

Microchip MPLAB XC8 Assembler V2.46 build 20240104201356 
                                                                                               Wed Nov 27 19:40:06 2024

Microchip MPLAB XC8 C Compiler v2.46 (Free license) build 20240104201356 Og1 
     1                           	processor	18F46K20
     2                           	fnconf	rparam,??,?,0
     3                           	pagewidth 120
     4                           	opt	flic
     5                           	psect	idataCOMRAM,global,class=CODE,delta=1,noexec
     6                           	psect	idataBANK0,global,class=CODE,delta=1,noexec
     7                           	psect	idataBANK1,global,class=CODE,delta=1,noexec
     8                           	psect	smallconst,global,reloc=2,class=SMALLCONST,delta=1,noexec
     9                           	psect	cinit,global,reloc=2,class=CODE,delta=1
    10                           	psect	bssCOMRAM,global,class=COMRAM,space=1,delta=1,lowdata,noexec
    11                           	psect	dataCOMRAM,global,class=COMRAM,space=1,delta=1,lowdata,noexec
    12                           	psect	bssBANK0,global,class=BANK0,space=1,delta=1,lowdata,noexec
    13                           	psect	dataBANK0,global,class=BANK0,space=1,delta=1,lowdata,noexec
    14                           	psect	bssBANK1,global,class=BANK1,space=1,delta=1,lowdata,noexec
    15                           	psect	dataBANK1,global,class=BANK1,space=1,delta=1,lowdata,noexec
    16                           	psect	cstackBANK0,global,class=BANK0,space=1,delta=1,lowdata,noexec
    17                           	psect	cstackCOMRAM,global,class=COMRAM,space=1,delta=1,lowdata,noexec
    18                           	psect	text0,global,reloc=2,class=CODE,delta=1
    19                           	psect	text1,global,reloc=2,class=CODE,delta=1
    20                           	psect	text2,global,reloc=2,class=CODE,delta=1
    21                           	psect	text3,global,reloc=2,class=CODE,delta=1
    22                           	psect	text4,global,reloc=2,class=CODE,delta=1
    23                           	psect	text5,global,reloc=2,class=CODE,delta=1
    24                           	psect	text6,global,reloc=2,class=CODE,delta=1
    25                           	psect	text7,global,reloc=2,class=CODE,delta=1
    26                           	psect	text8,global,reloc=2,class=CODE,delta=1
    27                           	psect	text9,global,reloc=2,class=CODE,delta=1,inline
    28                           	psect	text10,global,reloc=2,class=CODE,delta=1,inline
    29                           	psect	text11,global,reloc=2,class=CODE,delta=1,inline
    30                           	psect	text12,global,reloc=2,class=CODE,delta=1,inline
    31                           	psect	text13,global,reloc=2,class=CODE,delta=1
    32                           	psect	text14,global,reloc=2,class=CODE,delta=1
    33                           	psect	text15,global,reloc=2,class=CODE,delta=1,group=1
    34                           	psect	text16,global,reloc=2,class=CODE,delta=1,group=1
    35                           	psect	text17,global,reloc=2,class=CODE,delta=1,group=1
    36                           	psect	text18,global,reloc=2,class=CODE,delta=1,group=1
    37                           	psect	text19,global,reloc=2,class=CODE,delta=1
    38                           	psect	text20,global,reloc=2,class=CODE,delta=1
    39                           	psect	text21,global,reloc=2,class=CODE,delta=1
    40                           	psect	text22,global,reloc=2,class=CODE,delta=1
    41                           	psect	text23,global,reloc=2,class=CODE,delta=1
    42                           	psect	text24,global,reloc=2,class=CODE,delta=1
    43                           	psect	text25,global,reloc=2,class=CODE,delta=1
    44                           	psect	text26,global,reloc=2,class=CODE,delta=1
    45                           	psect	text27,global,reloc=2,class=CODE,delta=1
    46                           	psect	text28,global,reloc=2,class=CODE,delta=1
    47                           	psect	text29,global,reloc=2,class=CODE,delta=1
    48                           	psect	text30,global,reloc=2,class=CODE,delta=1
    49                           	psect	text31,global,reloc=2,class=CODE,delta=1
    50                           	psect	text32,global,reloc=2,class=CODE,delta=1
    51                           	psect	text33,global,reloc=2,class=CODE,delta=1
    52                           	psect	intcode,global,reloc=2,class=CODE,delta=1
    53                           	psect	text35,global,reloc=2,class=CODE,delta=1
    54                           	psect	text36,global,reloc=2,class=CODE,delta=1
    55                           	psect	text37,global,reloc=2,class=CODE,delta=1
    56                           	psect	text38,global,reloc=2,class=CODE,delta=1
    57                           	psect	text39,global,reloc=2,class=CODE,delta=1
    58                           	psect	text40,global,reloc=2,class=CODE,delta=1
    59                           	psect	text41,global,reloc=2,class=CODE,delta=1
    60                           	psect	text42,global,reloc=2,class=CODE,delta=1
    61                           	psect	text43,global,reloc=2,class=CODE,delta=1
    62                           	psect	text44,global,reloc=2,class=CODE,delta=1
    63                           	psect	text45,global,reloc=2,class=CODE,delta=1
    64                           	psect	text46,global,reloc=2,class=CODE,delta=1
    65                           	psect	text47,global,reloc=2,class=CODE,delta=1
    66                           	psect	text48,global,reloc=2,class=CODE,delta=1
    67                           	psect	text49,global,reloc=2,class=CODE,delta=1
    68                           	psect	text50,global,reloc=2,class=CODE,delta=1
    69                           	psect	text51,global,reloc=2,class=CODE,delta=1
    70                           	psect	text52,global,reloc=2,class=CODE,delta=1
    71                           	psect	intsave_regs,global,class=BIGRAM,space=1,delta=1,noexec
    72                           	psect	rparam,global,class=COMRAM,space=1,delta=1,noexec
    73                           	psect	temp,global,ovrld,common,class=COMRAM,space=1,delta=1,lowdata
    74                           	psect	config,global,abs,ovrld,class=CONFIG,space=4,delta=1,noexec
    75   000000                     
    76                           ; Generated 12/10/2023 GMT
    77                           ; 
    78                           ; Copyright © 2023, Microchip Technology Inc. and its subsidiaries ("Microchip")
    79                           ; All rights reserved.
    80                           ; 
    81                           ; This software is developed by Microchip Technology Inc. and its subsidiaries ("Microch
      +                          ip").
    82                           ; 
    83                           ; Redistribution and use in source and binary forms, with or without modification, are
    84                           ; permitted provided that the following conditions are met:
    85                           ; 
    86                           ;     1. Redistributions of source code must retain the above copyright notice, this lis
      +                          t of
    87                           ;        conditions and the following disclaimer.
    88                           ; 
    89                           ;     2. Redistributions in binary form must reproduce the above copyright notice, this 
      +                          list
    90                           ;        of conditions and the following disclaimer in the documentation and/or other
    91                           ;        materials provided with the distribution. Publication is not required when
    92                           ;        this file is used in an embedded application.
    93                           ; 
    94                           ;     3. Microchip's name may not be used to endorse or promote products derived from th
      +                          is
    95                           ;        software without specific prior written permission.
    96                           ; 
    97                           ; THIS SOFTWARE IS PROVIDED BY MICROCHIP "AS IS" AND ANY EXPRESS OR IMPLIED WARRANTIES,
    98                           ; INCLUDING, BUT NOT LIMITED TO, THE IMPLIED WARRANTIES OF MERCHANTABILITY AND FITNESS F
      +                          OR
    99                           ; PURPOSE ARE DISCLAIMED.  IN NO EVENT SHALL MICROCHIP BE LIABLE FOR ANY DIRECT, INDIREC
      +                          T,
   100                           ; INCIDENTAL, SPECIAL, EXEMPLARY, OR CONSEQUENTIAL DAMAGES (INCLUDING BUT NOT LIMITED TO
   101                           ; PROCUREMENT OF SUBSTITUTE GOODS OR SERVICES; LOSS OF USE, DATA OR PROFITS; OR BUSINESS
   102                           ; INTERRUPTION) HOWSOEVER CAUSED AND ON ANY THEORY OF LIABILITY, WHETHER IN CONTRACT, ST
      +                          RICT
   103                           ; LIABILITY, OR TORT (INCLUDING NEGLIGENCE OR OTHERWISE) ARISING IN ANY WAY OUT OF THE U
      +                          SE OF
   104                           ; THIS SOFTWARE, EVEN IF ADVISED OF THE POSSIBILITY OF SUCH DAMAGE.
   105                           ; 
   106                           ; 
   107                           ; Code-generator required, PIC18F46K20 Definitions
   108                           ; 
   109                           ; SFR Addresses
   110   000000                     
   111                           	psect	idataCOMRAM
   112   002E3A                     __pidataCOMRAM:
   113                           	callstack 0
   114                           
   115                           ;initializer for _last_temp_sent
   116   002E3A  FF                 	db	255
   117                           
   118                           ;initializer for _led1
   119   002E3B  03                 	db	3
   120                           
   121                           	psect	idataBANK0
   122   002BFA                     __pidataBANK0:
   123                           	callstack 0
   124                           
   125                           ;initializer for _port_register
   126   002BFA  80                 	db	128
   127   002BFB  0F                 	db	15
   128   002BFC  81                 	db	129
   129   002BFD  0F                 	db	15
   130   002BFE  82                 	db	130
   131   002BFF  0F                 	db	15
   132   002C00  83                 	db	131
   133   002C01  0F                 	db	15
   134   002C02  84                 	db	132
   135   002C03  0F                 	db	15
   136                           
   137                           ;initializer for _lat_register
   138   002C04  89                 	db	137
   139   002C05  0F                 	db	15
   140   002C06  8A                 	db	138
   141   002C07  0F                 	db	15
   142   002C08  8B                 	db	139
   143   002C09  0F                 	db	15
   144   002C0A  8C                 	db	140
   145   002C0B  0F                 	db	15
   146   002C0C  8D                 	db	141
   147   002C0D  0F                 	db	15
   148                           
   149                           ;initializer for _tris_register
   150   002C0E  92                 	db	146
   151   002C0F  0F                 	db	15
   152   002C10  93                 	db	147
   153   002C11  0F                 	db	15
   154   002C12  94                 	db	148
   155   002C13  0F                 	db	15
   156   002C14  95                 	db	149
   157   002C15  0F                 	db	15
   158   002C16  96                 	db	150
   159   002C17  0F                 	db	15
   160                           
   161                           ;initializer for _ret
   162   002C18  01                 	db	1
   163                           
   164                           ;initializer for _mssp_i2c1
   165   002C19  86A0               	dw	34464
   166   002C1B  0001               	dw	1
   167   002C1D  01                 	db	1
   168   002C1E  08                 	db	8
   169   002C1F  01                 	db	1
   170   002C20  00                 	db	0
   171   002C21  00                 	db	0
   172   002C22  00                 	db	0
   173   002C23  00                 	db	0
   174   002C24  00                 	db	0
   175   002C25  00                 	db	0
   176   002C26  00                 	db	0
   177   002C27  00                 	db	0
   178   002C28  00                 	db	0
   179                           
   180                           ;initializer for _keypad
   181   002C29  03                 	db	3
   182   002C2A  0B                 	db	11
   183   002C2B  13                 	db	19
   184   002C2C  1B                 	db	27
   185   002C2D  63                 	db	99
   186   002C2E  6B                 	db	107
   187   002C2F  73                 	db	115
   188                           
   189                           	psect	idataBANK1
   190   002DDA                     __pidataBANK1:
   191                           	callstack 0
   192                           
   193                           ;initializer for _usart1
   194   002DDA  2580               	dw	9600
   195   002DDC  0000               	dw	0
   196   002DDE  00                 	db	0
   197   002DDF  03                 	db	3
   198   002DE0  00                 	db	0
   199   002DE1  00                 	db	0
   200   002DE2  00                 	db	0
   201   002DE3  00                 	db	0
   202   002DE4  00                 	db	0
   203   002DE5  00                 	db	0
   204   002DE6  00                 	db	0
   205   002DE7  00                 	db	0
   206   002DE8  00                 	db	0
   207   002DE9  00                 	db	0
   208   002DEA  00                 	db	0
   209   002DEB  00                 	db	0
   210   002DEC  00                 	db	0
   211   002DED  00                 	db	0
   212                           
   213                           	psect	smallconst
   214   001000                     __psmallconst:
   215                           	callstack 0
   216   001000  00                 	db	0
   217   001001                     _keypad_value:
   218                           	callstack 0
   219   001001  37                 	db	55
   220   001002  38                 	db	56
   221   001003  39                 	db	57
   222   001004  34                 	db	52
   223   001005  35                 	db	53
   224   001006  36                 	db	54
   225   001007  31                 	db	49
   226   001008  32                 	db	50
   227   001009  33                 	db	51
   228   00100A  2A                 	db	42
   229   00100B  30                 	db	48
   230   00100C  23                 	db	35
   231   00100D                     __end_of_keypad_value:
   232                           	callstack 0
   233   000000                     _TMR3L	set	4018
   234   000000                     _TMR3H	set	4019
   235   000000                     _TMR1L	set	4046
   236   000000                     _TMR1H	set	4047
   237   000000                     _TMR0L	set	4054
   238   000000                     _TMR0H	set	4055
   239   000000                     _INTCON2bits	set	4081
   240   000000                     _SSPSTATbits	set	4039
   241   000000                     _SSPADD	set	4040
   242   000000                     _SSPCON2bits	set	4037
   243   000000                     _SSPCON1bits	set	4038
   244   000000                     _SPBRGH	set	4016
   245   000000                     _SPBRG	set	4015
   246   000000                     _BAUDCONbits	set	4024
   247   000000                     _TXREG	set	4013
   248   000000                     _TXSTAbits	set	4012
   249   000000                     _RCREG	set	4014
   250   000000                     _RCSTAbits	set	4011
   251   000000                     _EECON2	set	4007
   252   000000                     _CCPR2H	set	4028
   253   000000                     _CCPR2L	set	4027
   254   000000                     _CCPR1H	set	4031
   255   000000                     _CCPR1L	set	4030
   256   000000                     _ADCON1bits	set	4033
   257   000000                     _ADRESL	set	4035
   258   000000                     _ADRESH	set	4036
   259   000000                     _INTCONbits	set	4082
   260   000000                     _TRISD	set	3989
   261   000000                     _TRISC	set	3988
   262   000000                     _TRISB	set	3987
   263   000000                     _TRISE	set	3990
   264   000000                     _PORTBbits	set	3969
   265   000000                     _EECON1bits	set	4006
   266   000000                     _CFGS	set	32054
   267   000000                     _IOCBbits	set	3965
   268   000000                     _ANSELbits	set	3966
   269   000000                     _PIE1bits	set	3997
   270   000000                     _ADCON2bits	set	4032
   271   000000                     _ADCON0bits	set	4034
   272   000000                     _PIE2bits	set	4000
   273   000000                     _CCP2CONbits	set	4026
   274   000000                     _CCP1CONbits	set	4029
   275   000000                     _PIR1bits	set	3998
   276   000000                     _ANSELHbits	set	3967
   277   000000                     _PORTE	set	3972
   278   000000                     _PORTD	set	3971
   279   000000                     _PORTC	set	3970
   280   000000                     _PORTB	set	3969
   281   000000                     _PORTA	set	3968
   282   000000                     _LATA	set	3977
   283   000000                     _TRISA	set	3986
   284   000000                     _EEDATA	set	4008
   285   000000                     _EEADR	set	4009
   286   000000                     _EEADRH	set	4010
   287   000000                     _PIR2bits	set	4001
   288   000000                     _T3CONbits	set	4017
   289   000000                     _EEPGD	set	32055
   290   000000                     _LATE	set	3981
   291   000000                     _LATD	set	3980
   292   000000                     _LATC	set	3979
   293   000000                     _LATB	set	3978
   294   000000                     _TMR2	set	4044
   295   000000                     _T2CONbits	set	4042
   296   000000                     _T1CONbits	set	4045
   297   000000                     _T0CONbits	set	4053
   298   000000                     _INTCON3bits	set	4080
   299   000000                     _SSPBUF	set	4041
   300   00100D                     STR_5:
   301   00100D  53                 	db	83	;'S'
   302   00100E  79                 	db	121	;'y'
   303   00100F  73                 	db	115	;'s'
   304   001010  74                 	db	116	;'t'
   305   001011  65                 	db	101	;'e'
   306   001012  6D                 	db	109	;'m'
   307   001013  20                 	db	32
   308   001014  53                 	db	83	;'S'
   309   001015  74                 	db	116	;'t'
   310   001016  61                 	db	97	;'a'
   311   001017  72                 	db	114	;'r'
   312   001018  74                 	db	116	;'t'
   313   001019  65                 	db	101	;'e'
   314   00101A  64                 	db	100	;'d'
   315   00101B  0D                 	db	13
   316   00101C  00                 	db	0
   317   00101D                     STR_4:
   318   00101D  44                 	db	68	;'D'
   319   00101E  61                 	db	97	;'a'
   320   00101F  74                 	db	116	;'t'
   321   001020  65                 	db	101	;'e'
   322   001021  20                 	db	32
   323   001022  26                 	db	38
   324   001023  20                 	db	32
   325   001024  74                 	db	116	;'t'
   326   001025  69                 	db	105	;'i'
   327   001026  6D                 	db	109	;'m'
   328   001027  65                 	db	101	;'e'
   329   001028  20                 	db	32
   330   001029  3A                 	db	58	;':'
   331   00102A  20                 	db	32
   332   00102B  00                 	db	0
   333   00102C  25                 	db	37
   334   00102D  6C                 	db	108	;'l'
   335   00102E  75                 	db	117	;'u'
   336   00102F  00                 	db	0
   337   001030                     STR_1:
   338   001030  25                 	db	37
   339   001031  75                 	db	117	;'u'
   340   001032  00                 	db	0
   341   001033  00                 	db	0	; dummy byte at the end
   342   000000                     
   343                           ; #config settings
   344                           
   345                           	psect	cinit
   346   002834                     __pcinit:
   347                           	callstack 0
   348   002834                     start_initialization:
   349                           	callstack 0
   350   002834                     __initialization:
   351                           	callstack 0
   352                           
   353                           ; Initialize objects allocated to BANK1 (20 bytes)
   354                           ; load TBLPTR registers with __pidataBANK1
   355   002834  0EDA               	movlw	low __pidataBANK1
   356   002836  6EF6               	movwf	tblptrl,c
   357   002838  0E2D               	movlw	high __pidataBANK1
   358   00283A  6EF7               	movwf	tblptrh,c
   359   00283C  0E00               	movlw	low (__pidataBANK1 shr (0+16))
   360   00283E  6EF8               	movwf	tblptru,c
   361   002840  EE01  F000         	lfsr	0,__pdataBANK1
   362   002844  EE10 F014          	lfsr	1,20
   363   002848                     copy_data0:
   364   002848  0009               	tblrd		*+
   365   00284A  CFF5 FFEE          	movff	tablat,postinc0
   366   00284E  50E5               	movf	postdec1,w,c
   367   002850  50E1               	movf	fsr1l,w,c
   368   002852  E1FA               	bnz	copy_data0
   369                           
   370                           ; Initialize objects allocated to BANK0 (54 bytes)
   371                           ; load TBLPTR registers with __pidataBANK0
   372   002854  0EFA               	movlw	low __pidataBANK0
   373   002856  6EF6               	movwf	tblptrl,c
   374   002858  0E2B               	movlw	high __pidataBANK0
   375   00285A  6EF7               	movwf	tblptrh,c
   376   00285C  0E00               	movlw	low (__pidataBANK0 shr (0+16))
   377   00285E  6EF8               	movwf	tblptru,c
   378   002860  EE00  F0C5         	lfsr	0,__pdataBANK0
   379   002864  EE10 F036          	lfsr	1,54
   380   002868                     copy_data1:
   381   002868  0009               	tblrd		*+
   382   00286A  CFF5 FFEE          	movff	tablat,postinc0
   383   00286E  50E5               	movf	postdec1,w,c
   384   002870  50E1               	movf	fsr1l,w,c
   385   002872  E1FA               	bnz	copy_data1
   386                           
   387                           ; Initialize objects allocated to COMRAM (2 bytes)
   388                           ; load TBLPTR registers with __pidataCOMRAM
   389   002874  0E3A               	movlw	low __pidataCOMRAM
   390   002876  6EF6               	movwf	tblptrl,c
   391   002878  0E2E               	movlw	high __pidataCOMRAM
   392   00287A  6EF7               	movwf	tblptrh,c
   393   00287C  0E00               	movlw	low (__pidataCOMRAM shr (0+16))
   394   00287E  6EF8               	movwf	tblptru,c
   395   002880  0009               	tblrd		*+	;fetch initializer
   396   002882  CFF5 F05B          	movff	tablat,__pdataCOMRAM
   397   002886  0009               	tblrd		*+	;fetch initializer
   398   002888  CFF5 F05C          	movff	tablat,__pdataCOMRAM+1
   399                           
   400                           ; Clear objects allocated to BANK1 (11 bytes)
   401   00288C  EE01  F014         	lfsr	0,__pbssBANK1
   402   002890  0E0B               	movlw	11
   403   002892                     clear_0:
   404   002892  6AEE               	clrf	postinc0,c
   405   002894  06E8               	decf	wreg,f,c
   406   002896  E1FD               	bnz	clear_0
   407                           
   408                           ; Clear objects allocated to BANK0 (101 bytes)
   409   002898  EE00  F060         	lfsr	0,__pbssBANK0
   410   00289C  0E65               	movlw	101
   411   00289E                     clear_1:
   412   00289E  6AEE               	clrf	postinc0,c
   413   0028A0  06E8               	decf	wreg,f,c
   414   0028A2  E1FD               	bnz	clear_1
   415                           
   416                           ; Clear objects allocated to COMRAM (10 bytes)
   417   0028A4  EE00  F051         	lfsr	0,__pbssCOMRAM
   418   0028A8  0E0A               	movlw	10
   419   0028AA                     clear_2:
   420   0028AA  6AEE               	clrf	postinc0,c
   421   0028AC  06E8               	decf	wreg,f,c
   422   0028AE  E1FD               	bnz	clear_2
   423   0028B0                     end_of_initialization:
   424                           	callstack 0
   425   0028B0                     __end_of__initialization:
   426                           	callstack 0
   427   0028B0  905D               	bcf	int$flags,0,c	;clear compiler interrupt flag (level 1)
   428   0028B2  925D               	bcf	int$flags,1,c	;clear compiler interrupt flag (level 2)
   429   0028B4  0100               	movlb	0
   430   0028B6  EF91  F013         	goto	_main	;jump to C main() function
   431                           
   432                           	psect	bssCOMRAM
   433   000051                     __pbssCOMRAM:
   434                           	callstack 0
   435   000051                     _TC74_A7_TempVal:
   436                           	callstack 0
   437   000051                     	ds	1
   438   000052                     _timer2_preload_val:
   439                           	callstack 0
   440   000052                     	ds	1
   441   000053                     relay_turn_off@F3314:
   442                           	callstack 0
   443   000053                     	ds	1
   444   000054                     relay_turn_on@F3309:
   445                           	callstack 0
   446   000054                     	ds	1
   447   000055                     relay_initialization@F3304:
   448                           	callstack 0
   449   000055                     	ds	1
   450   000056                     led_toggle@F3325:
   451                           	callstack 0
   452   000056                     	ds	1
   453   000057                     led_turn_off@F3320:
   454                           	callstack 0
   455   000057                     	ds	1
   456   000058                     led_turn_on@F3315:
   457                           	callstack 0
   458   000058                     	ds	1
   459   000059                     led_initialization@F3310:
   460                           	callstack 0
   461   000059                     	ds	1
   462   00005A                     _ack:
   463                           	callstack 0
   464   00005A                     	ds	1
   465                           
   466                           	psect	dataCOMRAM
   467   00005B                     __pdataCOMRAM:
   468                           	callstack 0
   469   00005B                     _last_temp_sent:
   470                           	callstack 0
   471   00005B                     	ds	1
   472   00005C                     _led1:
   473                           	callstack 0
   474   00005C                     	ds	1
   475                           
   476                           	psect	bssBANK0
   477   000060                     __pbssBANK0:
   478                           	callstack 0
   479   000060                     _RealTimeDS1307:
   480                           	callstack 0
   481   000060                     	ds	6
   482   000066                     _RealTimeDS1307@RealTimeDS1307$F678:
   483                           	callstack 0
   484   000066                     	ds	6
   485   00006C                     	ds	6
   486   000072                     	ds	4
   487   000076                     _timer3_preload_val:
   488                           	callstack 0
   489   000076                     	ds	2
   490   000078                     _Timer3_InterruptHandler:
   491                           	callstack 0
   492   000078                     	ds	2
   493   00007A                     _Timer2_InterruptHandler:
   494                           	callstack 0
   495   00007A                     	ds	2
   496   00007C                     _timer1_preload_val:
   497                           	callstack 0
   498   00007C                     	ds	2
   499   00007E                     _Timer1_InterruptHandler:
   500                           	callstack 0
   501   00007E                     	ds	2
   502   000080                     _timer0_preload_val:
   503                           	callstack 0
   504   000080                     	ds	2
   505   000082                     _Timer0_InterruptHandler:
   506                           	callstack 0
   507   000082                     	ds	2
   508   000084                     _RB7_InterruptHandlerHigh:
   509                           	callstack 0
   510   000084                     	ds	2
   511   000086                     _RB7_InterruptHandlerLow:
   512                           	callstack 0
   513   000086                     	ds	2
   514   000088                     _RB6_InterruptHandlerHigh:
   515                           	callstack 0
   516   000088                     	ds	2
   517   00008A                     _RB6_InterruptHandlerLow:
   518                           	callstack 0
   519   00008A                     	ds	2
   520   00008C                     _RB5_InterruptHandlerHigh:
   521                           	callstack 0
   522   00008C                     	ds	2
   523   00008E                     _RB5_InterruptHandlerLow:
   524                           	callstack 0
   525   00008E                     	ds	2
   526   000090                     _RB4_InterruptHandlerHigh:
   527                           	callstack 0
   528   000090                     	ds	2
   529   000092                     _RB4_InterruptHandlerLow:
   530                           	callstack 0
   531   000092                     	ds	2
   532   000094                     _INT2_InterruptHandler:
   533                           	callstack 0
   534   000094                     	ds	2
   535   000096                     _INT1_InterruptHandler:
   536                           	callstack 0
   537   000096                     	ds	2
   538   000098                     _INT0_InterruptHandler:
   539                           	callstack 0
   540   000098                     	ds	2
   541   00009A                     _I2C_Report_Recieve_Overflow_Interrupt_Handler:
   542                           	callstack 0
   543   00009A                     	ds	2
   544   00009C                     _I2C_Default_Interrupt_Handler:
   545                           	callstack 0
   546   00009C                     	ds	2
   547   00009E                     _I2C_Report_Write_Collision_Interrupt_Handler:
   548                           	callstack 0
   549   00009E                     	ds	2
   550   0000A0                     _EUSART_OverrunError_Handler:
   551                           	callstack 0
   552   0000A0                     	ds	2
   553   0000A2                     _EUSART_FramingError_Handler:
   554                           	callstack 0
   555   0000A2                     	ds	2
   556   0000A4                     _EUSART_RX_Interrupt_Handler:
   557                           	callstack 0
   558   0000A4                     	ds	2
   559   0000A6                     _EUSART_TX_Interrupt_Handler:
   560                           	callstack 0
   561   0000A6                     	ds	2
   562   0000A8                     CCP_CompareSetValue@F3382:
   563                           	callstack 0
   564   0000A8                     	ds	2
   565   0000AA                     CCP_CaptureDataRead@F3373:
   566                           	callstack 0
   567   0000AA                     	ds	2
   568   0000AC                     _CCP2_Interrupt_Handler:
   569                           	callstack 0
   570   0000AC                     	ds	2
   571   0000AE                     _CCP1_Interrupt_Handler:
   572                           	callstack 0
   573   0000AE                     	ds	2
   574   0000B0                     _ADC_Interrupt_Handler:
   575                           	callstack 0
   576   0000B0                     	ds	2
   577   0000B2                     _U4Program:
   578                           	callstack 0
   579   0000B2                     	ds	1
   580   0000B3                     _Print_Pack_Date:
   581                           	callstack 0
   582   0000B3                     	ds	18
   583                           
   584                           	psect	dataBANK0
   585   0000C5                     __pdataBANK0:
   586                           	callstack 0
   587   0000C5                     _port_register:
   588                           	callstack 0
   589   0000C5                     	ds	10
   590   0000CF                     _lat_register:
   591                           	callstack 0
   592   0000CF                     	ds	10
   593   0000D9                     _tris_register:
   594                           	callstack 0
   595   0000D9                     	ds	10
   596   0000E3                     _ret:
   597                           	callstack 0
   598   0000E3                     	ds	1
   599   0000E4                     _mssp_i2c1:
   600                           	callstack 0
   601   0000E4                     	ds	16
   602   0000F4                     _keypad:
   603                           	callstack 0
   604   0000F4                     	ds	7
   605                           
   606                           	psect	bssBANK1
   607   000114                     __pbssBANK1:
   608                           	callstack 0
   609   000114                     	ds	11
   610                           
   611                           	psect	dataBANK1
   612   000100                     __pdataBANK1:
   613                           	callstack 0
   614   000100                     _usart1:
   615                           	callstack 0
   616   000100                     	ds	20
   617                           
   618                           	psect	cstackBANK0
   619   0000FB                     __pcstackBANK0:
   620                           	callstack 0
   621   0000FB                     ??_main:
   622                           
   623                           ; 1 bytes @ 0x0
   624   0000FB                     	ds	2
   625                           
   626                           	psect	cstackCOMRAM
   627   000001                     __pcstackCOMRAM:
   628                           	callstack 0
   629   000001                     RB4_ISR@source:
   630                           	callstack 0
   631   000001                     RB5_ISR@source:
   632                           	callstack 0
   633   000001                     RB6_ISR@source:
   634                           	callstack 0
   635   000001                     RB7_ISR@source:
   636                           	callstack 0
   637                           
   638                           ; 1 bytes @ 0x0
   639   000001                     	ds	1
   640   000002                     ?___xxtofl:
   641                           	callstack 0
   642   000002                     gpio_pin_direction_initializion@pin_config:
   643                           	callstack 0
   644   000002                     gpio_pin_write_logic@pin_config:
   645                           	callstack 0
   646   000002                     MSSP_I2C_Master_Send_Start@i2c_obj:
   647                           	callstack 0
   648   000002                     MSSP_I2C_Master_Send_Repeated_Start@i2c_obj:
   649                           	callstack 0
   650   000002                     MSSP_I2C_Master_Send_Stop@i2c_obj:
   651                           	callstack 0
   652   000002                     MSSP_I2C_Master_Write_Blocking@i2c_obj:
   653                           	callstack 0
   654   000002                     MSSP_I2C_Master_Read_Blocking@i2c_obj:
   655                           	callstack 0
   656   000002                     I2C_Slave_Mode_Config@i2c_obj:
   657                           	callstack 0
   658   000002                     MSSP_I2C_Interrupt_config@i2c_obj:
   659                           	callstack 0
   660   000002                     EUSART_ASYNC_WRITE_BYTE_BLOCKING@usart:
   661                           	callstack 0
   662   000002                     EUSART_ASYNC_TX_INIT@usart:
   663                           	callstack 0
   664   000002                     EUSART_ASYNC_RX_INIT@usart:
   665                           	callstack 0
   666   000002                     ___xxtofl@val:
   667                           	callstack 0
   668                           
   669                           ; 4 bytes @ 0x1
   670   000002                     	ds	1
   671   000003                     ??_gpio_pin_direction_initializion:
   672   000003                     ??_I2C_Slave_Mode_Config:
   673   000003                     gpio_pin_write_logic@logic:
   674                           	callstack 0
   675   000003                     MSSP_I2C_Master_Write_Blocking@i2c_data:
   676                           	callstack 0
   677   000003                     MSSP_I2C_Master_Read_Blocking@ack:
   678                           	callstack 0
   679                           
   680                           ; 1 bytes @ 0x2
   681   000003                     	ds	1
   682   000004                     ??_gpio_pin_write_logic:
   683   000004                     EUSART_ASYNC_WRITE_BYTE_BLOCKING@data:
   684                           	callstack 0
   685   000004                     MSSP_I2C_Master_Write_Blocking@ack:
   686                           	callstack 0
   687   000004                     MSSP_I2C_Master_Read_Blocking@i2c_data:
   688                           	callstack 0
   689                           
   690                           ; 1 bytes @ 0x3
   691   000004                     	ds	1
   692   000005                     ?_RealTimeClockDS1307_Get_Date_Time:
   693                           	callstack 0
   694   000005                     EEPROM_24C02C_Write_Byte@Byte_Address:
   695                           	callstack 0
   696   000005                     TempSensor_TC74_Read_Temp@TC74_Read_Address:
   697                           	callstack 0
   698   000005                     I2C_Master_Call_Slave@temp:
   699                           	callstack 0
   700   000005                     EUSART_ASYNC_WRITE_STRING_BLOCKING@usart:
   701                           	callstack 0
   702                           
   703                           ; 2 bytes @ 0x4
   704   000005                     	ds	1
   705   000006                     ??___xxtofl:
   706   000006                     EEPROM_24C02C_Write_Byte@data:
   707                           	callstack 0
   708   000006                     TempSensor_TC74_Read_Temp@TC74_Address:
   709                           	callstack 0
   710   000006                     I2C_Master_Call_Slave@Slave_Address:
   711                           	callstack 0
   712                           
   713                           ; 1 bytes @ 0x5
   714   000006                     	ds	1
   715   000007                     EEPROM_24C02C_Write_Byte@EEPROM_Address:
   716                           	callstack 0
   717   000007                     TempSensor_TC74_Read_Temp@TC74_TempVal:
   718                           	callstack 0
   719   000007                     EUSART_ASYNC_WRITE_STRING_BLOCKING@data:
   720                           	callstack 0
   721                           
   722                           ; 2 bytes @ 0x6
   723   000007                     	ds	1
   724   000008                     gpio_pin_direction_initializion@ret:
   725                           	callstack 0
   726                           
   727                           ; 1 bytes @ 0x7
   728   000008                     	ds	1
   729   000009                     gpio_pin_write_logic@ret:
   730                           	callstack 0
   731   000009                     EUSART_ASYNC_WRITE_STRING_BLOCKING@str_len:
   732                           	callstack 0
   733                           
   734                           ; 2 bytes @ 0x8
   735   000009                     	ds	1
   736   00000A                     gpio_pin_initialization@pin_config:
   737                           	callstack 0
   738   00000A                     ___xxtofl@sign:
   739                           	callstack 0
   740                           
   741                           ; 1 bytes @ 0x9
   742   00000A                     	ds	1
   743   00000B                     ??_gpio_pin_initialization:
   744   00000B                     ??_EUSART_ASYNC_WRITE_STRING_BLOCKING:
   745   00000B                     ___xxtofl@exp:
   746                           	callstack 0
   747   00000B                     RealTimeClockDS1307_Get_Date_Time@buffer:
   748                           	callstack 0
   749                           
   750                           ; 7 bytes @ 0xA
   751   00000B                     	ds	1
   752   00000C                     gpio_pin_initialization@ret:
   753                           	callstack 0
   754   00000C                     ___xxtofl@arg:
   755                           	callstack 0
   756                           
   757                           ; 4 bytes @ 0xB
   758   00000C                     	ds	1
   759   00000D                     keypad_initialization@keypad:
   760                           	callstack 0
   761   00000D                     led_initialization@led:
   762                           	callstack 0
   763   00000D                     EUSART_ASYNC_WRITE_STRING_BLOCKING@str_ctr:
   764                           	callstack 0
   765                           
   766                           ; 1 bytes @ 0xC
   767   00000D                     	ds	1
   768   00000E                     ??_led_initialization:
   769   00000E                     keypad_initialization@rows_counter:
   770                           	callstack 0
   771   00000E                     UART_LoggingDebugData_Send_String@Str:
   772                           	callstack 0
   773                           
   774                           ; 2 bytes @ 0xD
   775   00000E                     	ds	1
   776   00000F                     keypad_initialization@columns_counter:
   777                           	callstack 0
   778   00000F                     led_initialization@pin_obj:
   779                           	callstack 0
   780                           
   781                           ; 1 bytes @ 0xE
   782   00000F                     	ds	1
   783   000010                     ?___fldiv:
   784                           	callstack 0
   785   000010                     UART_LoggingDebugData_Send_String@str_len:
   786                           	callstack 0
   787   000010                     ___fldiv@b:
   788                           	callstack 0
   789                           
   790                           ; 4 bytes @ 0xF
   791   000010                     	ds	2
   792   000012                     RealTimeClockDS1307_Get_Date_Time@i:
   793                           	callstack 0
   794                           
   795                           ; 1 bytes @ 0x11
   796   000012                     	ds	2
   797   000014                     ___fldiv@a:
   798                           	callstack 0
   799                           
   800                           ; 4 bytes @ 0x13
   801   000014                     	ds	4
   802   000018                     ??___fldiv:
   803                           
   804                           ; 1 bytes @ 0x17
   805   000018                     	ds	4
   806   00001C                     ___fldiv@rem:
   807                           	callstack 0
   808                           
   809                           ; 4 bytes @ 0x1B
   810   00001C                     	ds	4
   811   000020                     ___fldiv@sign:
   812                           	callstack 0
   813                           
   814                           ; 1 bytes @ 0x1F
   815   000020                     	ds	1
   816   000021                     ___fldiv@new_exp:
   817                           	callstack 0
   818                           
   819                           ; 2 bytes @ 0x20
   820   000021                     	ds	2
   821   000023                     ___fldiv@grs:
   822                           	callstack 0
   823                           
   824                           ; 4 bytes @ 0x22
   825   000023                     	ds	4
   826   000027                     ___fldiv@bexp:
   827                           	callstack 0
   828                           
   829                           ; 1 bytes @ 0x26
   830   000027                     	ds	1
   831   000028                     ___fldiv@aexp:
   832                           	callstack 0
   833                           
   834                           ; 1 bytes @ 0x27
   835   000028                     	ds	1
   836   000029                     ?___fladd:
   837                           	callstack 0
   838   000029                     ___fladd@b:
   839                           	callstack 0
   840                           
   841                           ; 4 bytes @ 0x28
   842   000029                     	ds	4
   843   00002D                     ___fladd@a:
   844                           	callstack 0
   845                           
   846                           ; 4 bytes @ 0x2C
   847   00002D                     	ds	4
   848   000031                     ??___fladd:
   849                           
   850                           ; 1 bytes @ 0x30
   851   000031                     	ds	4
   852   000035                     ___fladd@signs:
   853                           	callstack 0
   854                           
   855                           ; 1 bytes @ 0x34
   856   000035                     	ds	1
   857   000036                     ___fladd@aexp:
   858                           	callstack 0
   859                           
   860                           ; 1 bytes @ 0x35
   861   000036                     	ds	1
   862   000037                     ___fladd@bexp:
   863                           	callstack 0
   864                           
   865                           ; 1 bytes @ 0x36
   866   000037                     	ds	1
   867   000038                     ___fladd@grs:
   868                           	callstack 0
   869                           
   870                           ; 1 bytes @ 0x37
   871   000038                     	ds	1
   872   000039                     ?___fltol:
   873                           	callstack 0
   874   000039                     ___fltol@f1:
   875                           	callstack 0
   876                           
   877                           ; 4 bytes @ 0x38
   878   000039                     	ds	4
   879   00003D                     ??___fltol:
   880                           
   881                           ; 1 bytes @ 0x3C
   882   00003D                     	ds	4
   883   000041                     ___fltol@sign1:
   884                           	callstack 0
   885                           
   886                           ; 1 bytes @ 0x40
   887   000041                     	ds	1
   888   000042                     ___fltol@exp1:
   889                           	callstack 0
   890                           
   891                           ; 1 bytes @ 0x41
   892   000042                     	ds	1
   893   000043                     I2C_MASTER_MODE_CLOCK_CONFIG@i2c_obj:
   894                           	callstack 0
   895   000043                     EUSART_Baud_Rate_Calculation@usart:
   896                           	callstack 0
   897                           
   898                           ; 2 bytes @ 0x42
   899   000043                     	ds	1
   900   000044                     ??_I2C_MASTER_MODE_CLOCK_CONFIG:
   901                           
   902                           ; 1 bytes @ 0x43
   903   000044                     	ds	1
   904   000045                     ??_EUSART_Baud_Rate_Calculation:
   905   000045                     MSSP_I2C_Init@i2c_obj:
   906                           	callstack 0
   907                           
   908                           ; 1 bytes @ 0x44
   909   000045                     	ds	1
   910   000046                     
   911                           ; 1 bytes @ 0x45
   912   000046                     	ds	1
   913   000047                     EUSART_Baud_Rate_Calculation@baudrate_temp:
   914                           	callstack 0
   915                           
   916                           ; 4 bytes @ 0x46
   917   000047                     	ds	4
   918   00004B                     _EUSART_Baud_Rate_Calculation$5445:
   919                           	callstack 0
   920                           
   921                           ; 4 bytes @ 0x4A
   922   00004B                     	ds	4
   923   00004F                     EUSART_ASYNC_INIT@usart:
   924                           	callstack 0
   925                           
   926                           ; 2 bytes @ 0x4E
   927   00004F                     	ds	2
   928   000051                     
   929                           ; 1 bytes @ 0x50
   930 ;;
   931 ;;Main: autosize = 0, tempsize = 2, incstack = 0, save=0
   932 ;;
   933 ;; *************** function _main *****************
   934 ;; Defined at:
   935 ;;		line 18 in file "application.c"
   936 ;; Parameters:    Size  Location     Type
   937 ;;		None
   938 ;; Auto vars:     Size  Location     Type
   939 ;;		None
   940 ;; Return value:  Size  Location     Type
   941 ;;                  2  1826[None  ] int 
   942 ;; Registers used:
   943 ;;		wreg, fsr0l, fsr0h, fsr2l, fsr2h, status,2, status,0, tblptrl, tblptrh, tblptru, prodl, prodh, cstack
   944 ;; Tracked objects:
   945 ;;		On entry : 0/0
   946 ;;		On exit  : 0/0
   947 ;;		Unchanged: 0/0
   948 ;; Data sizes:     COMRAM   BANK0   BANK1   BANK2   BANK3   BANK4   BANK5   BANK6   BANK7   BANK8   BANK9  BANK10  BANK1
      +1  BANK12  BANK13  BANK14  BANK15
   949 ;;      Params:         0       0       0       0       0       0       0       0       0       0       0       0       
      +0       0       0       0       0
   950 ;;      Locals:         0       0       0       0       0       0       0       0       0       0       0       0       
      +0       0       0       0       0
   951 ;;      Temps:          0       2       0       0       0       0       0       0       0       0       0       0       
      +0       0       0       0       0
   952 ;;      Totals:         0       2       0       0       0       0       0       0       0       0       0       0       
      +0       0       0       0       0
   953 ;;Total ram usage:        2 bytes
   954 ;; Hardware stack levels required when called: 7
   955 ;; This function calls:
   956 ;;		_EEPROM_24C02C_Write_Byte
   957 ;;		_I2C_Master_Call_Slave
   958 ;;		_Print_Date
   959 ;;		_RealTimeClockDS1307_Get_Date_Time
   960 ;;		_TempSensor_TC74_Read_Temp
   961 ;;		_UART_LoggingDebugData_Send_String
   962 ;;		_application_initialize
   963 ;; This function is called by:
   964 ;;		Startup code after reset
   965 ;; This function uses a non-reentrant model
   966 ;;
   967                           
   968                           	psect	text0
   969   002722                     __ptext0:
   970                           	callstack 0
   971   002722                     _main:
   972                           	callstack 24
   973   002722                     
   974                           ;application.c: 19:     application_initialize();
   975   002722  EC9F  F016         	call	_application_initialize	;wreg free
   976   002726                     
   977                           ;application.c: 21:     UART_LoggingDebugData_Send_String((uint8 *) "System Started\r", 
      +                          16);
   978   002726  0E0D               	movlw	low STR_5
   979   002728  6E0E               	movwf	UART_LoggingDebugData_Send_String@Str^0,c
   980   00272A  500E               	movf	UART_LoggingDebugData_Send_String@Str^0,w,c
   981   00272C  A4D8               	btfss	status,2,c
   982   00272E  0E10               	movlw	high __smallconst
   983   002730  6E0F               	movwf	(UART_LoggingDebugData_Send_String@Str+1)^0,c
   984   002732  0E00               	movlw	0
   985   002734  6E11               	movwf	(UART_LoggingDebugData_Send_String@str_len+1)^0,c
   986   002736  0E10               	movlw	16
   987   002738  6E10               	movwf	UART_LoggingDebugData_Send_String@str_len^0,c
   988   00273A  EC90  F016         	call	_UART_LoggingDebugData_Send_String	;wreg free
   989   00273E                     l8740:
   990                           
   991                           ;application.c: 24:         RealTimeDS1307 = RealTimeClockDS1307_Get_Date_Time();
   992   00273E  EC9C  F012         	call	_RealTimeClockDS1307_Get_Date_Time	;wreg free
   993   002742  EE20  F060         	lfsr	2,_RealTimeDS1307
   994   002746  0E05               	movlw	5
   995   002748                     u8481:
   996   002748  CFEB FFDB          	movff	plusw0,plusw2
   997   00274C  06E8               	decf	wreg,f,c
   998   00274E  E2FC               	bc	u8481
   999   002750                     
  1000                           ;application.c: 25:         Print_Date();
  1001   002750  ECF3  F012         	call	_Print_Date	;wreg free
  1002   002754                     
  1003                           ;application.c: 26:         TC74_A7_TempVal = TempSensor_TC74_Read_Temp(0x9E);
  1004   002754  0E9E               	movlw	158
  1005   002756  ECD1  F014         	call	_TempSensor_TC74_Read_Temp
  1006   00275A  6E51               	movwf	_TC74_A7_TempVal^0,c
  1007   00275C                     
  1008                           ;application.c: 30:         if (TC74_A7_TempVal != last_temp_sent) {
  1009   00275C  505B               	movf	_last_temp_sent^0,w,c
  1010   00275E  1851               	xorwf	_TC74_A7_TempVal^0,w,c
  1011   002760  B4D8               	btfsc	status,2,c
  1012   002762  EFB5  F013         	goto	u8491
  1013   002766  EFB7  F013         	goto	u8490
  1014   00276A                     u8491:
  1015   00276A  EFC5  F013         	goto	l8752
  1016   00276E                     u8490:
  1017   00276E                     
  1018                           ;application.c: 31:             EEPROM_24C02C_Write_Byte(0xA2, 0x00, TC74_A7_TempVal);
  1019   00276E  0E00               	movlw	0
  1020   002770  6E05               	movwf	EEPROM_24C02C_Write_Byte@Byte_Address^0,c
  1021   002772  C051  F006         	movff	_TC74_A7_TempVal,EEPROM_24C02C_Write_Byte@data
  1022   002776  0EA2               	movlw	162
  1023   002778  ECDB  F015         	call	_EEPROM_24C02C_Write_Byte
  1024                           
  1025                           ;application.c: 32:             I2C_Master_Call_Slave(0x70, TC74_A7_TempVal);
  1026   00277C  C051  F005         	movff	_TC74_A7_TempVal,I2C_Master_Call_Slave@temp
  1027   002780  0E70               	movlw	112
  1028   002782  EC18  F016         	call	_I2C_Master_Call_Slave
  1029   002786                     
  1030                           ;application.c: 33:             last_temp_sent = TC74_A7_TempVal;
  1031   002786  C051  F05B         	movff	_TC74_A7_TempVal,_last_temp_sent
  1032   00278A                     l8752:
  1033                           
  1034                           ;application.c: 35:         _delay((unsigned long)((1000)*(16000000UL/4000.0)));
  1035   00278A  0E15               	movlw	21
  1036   00278C  0100               	movlb	0	; () banked
  1037   00278E  6FFC               	movwf	(??_main+1)& (0+255),b
  1038   002790  0E4B               	movlw	75
  1039   002792  6FFB               	movwf	??_main& (0+255),b
  1040   002794  0EBE               	movlw	190
  1041   002796                     u8507:
  1042   002796  2EE8               	decfsz	wreg,f,c
  1043   002798  D7FE               	bra	u8507
  1044   00279A  2FFB               	decfsz	??_main& (0+255),f,b
  1045   00279C  D7FC               	bra	u8507
  1046   00279E  2FFC               	decfsz	(??_main+1)& (0+255),f,b
  1047   0027A0  D7FA               	bra	u8507
  1048   0027A2  0000               	nop	
  1049   0027A4  EF9F  F013         	goto	l8740
  1050   0027A8  EFE7  F001         	goto	start
  1051   0027AC                     __end_of_main:
  1052                           	callstack 0
  1053                           
  1054 ;; *************** function _application_initialize *****************
  1055 ;; Defined at:
  1056 ;;		line 39 in file "application.c"
  1057 ;; Parameters:    Size  Location     Type
  1058 ;;		None
  1059 ;; Auto vars:     Size  Location     Type
  1060 ;;		None
  1061 ;; Return value:  Size  Location     Type
  1062 ;;                  1    wreg      void 
  1063 ;; Registers used:
  1064 ;;		wreg, fsr2l, fsr2h, status,2, status,0, prodl, prodh, cstack
  1065 ;; Tracked objects:
  1066 ;;		On entry : 0/0
  1067 ;;		On exit  : 0/0
  1068 ;;		Unchanged: 0/0
  1069 ;; Data sizes:     COMRAM   BANK0   BANK1   BANK2   BANK3   BANK4   BANK5   BANK6   BANK7   BANK8   BANK9  BANK10  BANK1
      +1  BANK12  BANK13  BANK14  BANK15
  1070 ;;      Params:         0       0       0       0       0       0       0       0       0       0       0       0       
      +0       0       0       0       0
  1071 ;;      Locals:         0       0       0       0       0       0       0       0       0       0       0       0       
      +0       0       0       0       0
  1072 ;;      Temps:          0       0       0       0       0       0       0       0       0       0       0       0       
      +0       0       0       0       0
  1073 ;;      Totals:         0       0       0       0       0       0       0       0       0       0       0       0       
      +0       0       0       0       0
  1074 ;;Total ram usage:        0 bytes
  1075 ;; Hardware stack levels used: 1
  1076 ;; Hardware stack levels required when called: 6
  1077 ;; This function calls:
  1078 ;;		_EUSART_ASYNC_INIT
  1079 ;;		_MSSP_I2C_Init
  1080 ;;		_ecu_layer_initialize
  1081 ;; This function is called by:
  1082 ;;		_main
  1083 ;; This function uses a non-reentrant model
  1084 ;;
  1085                           
  1086                           	psect	text1
  1087   002D3E                     __ptext1:
  1088                           	callstack 0
  1089   002D3E                     _application_initialize:
  1090                           	callstack 24
  1091   002D3E                     
  1092                           ;application.c: 40:     ecu_layer_initialize();
  1093   002D3E  ECF7  F016         	call	_ecu_layer_initialize	;wreg free
  1094   002D42                     
  1095                           ;application.c: 41:     EUSART_ASYNC_INIT(&usart1);
  1096   002D42  0E00               	movlw	low _usart1
  1097   002D44  6E4F               	movwf	EUSART_ASYNC_INIT@usart^0,c
  1098   002D46  0E01               	movlw	high _usart1
  1099   002D48  6E50               	movwf	(EUSART_ASYNC_INIT@usart+1)^0,c
  1100   002D4A  ECB9  F015         	call	_EUSART_ASYNC_INIT	;wreg free
  1101   002D4E                     
  1102                           ;application.c: 42:     MSSP_I2C_Init(&mssp_i2c1);
  1103   002D4E  0EE4               	movlw	low _mssp_i2c1
  1104   002D50  6E45               	movwf	MSSP_I2C_Init@i2c_obj^0,c
  1105   002D52  EC9B  F00F         	call	_MSSP_I2C_Init	;wreg free
  1106   002D56  0012               	return		;funcret
  1107   002D58                     __end_of_application_initialize:
  1108                           	callstack 0
  1109                           
  1110 ;; *************** function _ecu_layer_initialize *****************
  1111 ;; Defined at:
  1112 ;;		line 176 in file "ECU_Layer/ecu_layer_init.c"
  1113 ;; Parameters:    Size  Location     Type
  1114 ;;		None
  1115 ;; Auto vars:     Size  Location     Type
  1116 ;;		None
  1117 ;; Return value:  Size  Location     Type
  1118 ;;                  1    wreg      void 
  1119 ;; Registers used:
  1120 ;;		wreg, fsr2l, fsr2h, status,2, status,0, prodl, prodh, cstack
  1121 ;; Tracked objects:
  1122 ;;		On entry : 0/0
  1123 ;;		On exit  : 0/0
  1124 ;;		Unchanged: 0/0
  1125 ;; Data sizes:     COMRAM   BANK0   BANK1   BANK2   BANK3   BANK4   BANK5   BANK6   BANK7   BANK8   BANK9  BANK10  BANK1
      +1  BANK12  BANK13  BANK14  BANK15
  1126 ;;      Params:         0       0       0       0       0       0       0       0       0       0       0       0       
      +0       0       0       0       0
  1127 ;;      Locals:         0       0       0       0       0       0       0       0       0       0       0       0       
      +0       0       0       0       0
  1128 ;;      Temps:          0       0       0       0       0       0       0       0       0       0       0       0       
      +0       0       0       0       0
  1129 ;;      Totals:         0       0       0       0       0       0       0       0       0       0       0       0       
      +0       0       0       0       0
  1130 ;;Total ram usage:        0 bytes
  1131 ;; Hardware stack levels used: 1
  1132 ;; Hardware stack levels required when called: 5
  1133 ;; This function calls:
  1134 ;;		_keypad_initialization
  1135 ;;		_led_initialization
  1136 ;; This function is called by:
  1137 ;;		_application_initialize
  1138 ;; This function uses a non-reentrant model
  1139 ;;
  1140                           
  1141                           	psect	text2
  1142   002DEE                     __ptext2:
  1143                           	callstack 0
  1144   002DEE                     _ecu_layer_initialize:
  1145                           	callstack 24
  1146   002DEE                     
  1147                           ;ECU_Layer/ecu_layer_init.c: 177:     led_initialization(&led1);
  1148   002DEE  0E5C               	movlw	low _led1
  1149   002DF0  6E0D               	movwf	led_initialization@led^0,c
  1150   002DF2  EC05  F015         	call	_led_initialization	;wreg free
  1151                           
  1152                           ;ECU_Layer/ecu_layer_init.c: 181:     keypad_initialization(&keypad);
  1153   002DF6  0EF4               	movlw	low _keypad
  1154   002DF8  6E0D               	movwf	keypad_initialization@keypad^0,c
  1155   002DFA  EC38  F015         	call	_keypad_initialization	;wreg free
  1156   002DFE  0012               	return		;funcret
  1157   002E00                     __end_of_ecu_layer_initialize:
  1158                           	callstack 0
  1159                           
  1160 ;; *************** function _led_initialization *****************
  1161 ;; Defined at:
  1162 ;;		line 17 in file "ECU_Layer/LED/ecu_led.c"
  1163 ;; Parameters:    Size  Location     Type
  1164 ;;  led             1   12[COMRAM] PTR const struct .
  1165 ;;		 -> led1(1), 
  1166 ;; Auto vars:     Size  Location     Type
  1167 ;;  pin_obj         1   14[COMRAM] struct .
  1168 ;;  ret             1    0        unsigned char 
  1169 ;; Return value:  Size  Location     Type
  1170 ;;                  1    wreg      unsigned char 
  1171 ;; Registers used:
  1172 ;;		wreg, fsr2l, fsr2h, status,2, status,0, prodl, prodh, cstack
  1173 ;; Tracked objects:
  1174 ;;		On entry : 0/0
  1175 ;;		On exit  : 0/0
  1176 ;;		Unchanged: 0/0
  1177 ;; Data sizes:     COMRAM   BANK0   BANK1   BANK2   BANK3   BANK4   BANK5   BANK6   BANK7   BANK8   BANK9  BANK10  BANK1
      +1  BANK12  BANK13  BANK14  BANK15
  1178 ;;      Params:         1       0       0       0       0       0       0       0       0       0       0       0       
      +0       0       0       0       0
  1179 ;;      Locals:         1       0       0       0       0       0       0       0       0       0       0       0       
      +0       0       0       0       0
  1180 ;;      Temps:          1       0       0       0       0       0       0       0       0       0       0       0       
      +0       0       0       0       0
  1181 ;;      Totals:         3       0       0       0       0       0       0       0       0       0       0       0       
      +0       0       0       0       0
  1182 ;;Total ram usage:        3 bytes
  1183 ;; Hardware stack levels used: 1
  1184 ;; Hardware stack levels required when called: 4
  1185 ;; This function calls:
  1186 ;;		_gpio_pin_initialization
  1187 ;; This function is called by:
  1188 ;;		_ecu_layer_initialize
  1189 ;; This function uses a non-reentrant model
  1190 ;;
  1191                           
  1192                           	psect	text3
  1193   002A0A                     __ptext3:
  1194                           	callstack 0
  1195   002A0A                     _led_initialization:
  1196                           	callstack 24
  1197   002A0A                     
  1198                           ;ECU_Layer/LED/ecu_led.c: 19:     if (((void*)0) == led) {
  1199   002A0A  500D               	movf	led_initialization@led^0,w,c
  1200   002A0C  A4D8               	btfss	status,2,c
  1201   002A0E  EF0B  F015         	goto	u5381
  1202   002A12  EF0D  F015         	goto	u5380
  1203   002A16                     u5381:
  1204   002A16  EF0F  F015         	goto	l292
  1205   002A1A                     u5380:
  1206   002A1A                     
  1207                           ;ECU_Layer/LED/ecu_led.c: 21:     } else {
  1208   002A1A  EF37  F015         	goto	l296
  1209   002A1E                     l292:
  1210                           
  1211                           ;ECU_Layer/LED/ecu_led.c: 22:         pin_config_t pin_obj = {
  1212   002A1E  C059  F00F         	movff	led_initialization@F3310,led_initialization@pin_obj
  1213   002A22  500D               	movf	led_initialization@led^0,w,c
  1214   002A24  6ED9               	movwf	fsr2l,c
  1215   002A26  6ADA               	clrf	fsr2h,c
  1216   002A28  50DF               	movf	223,w,c
  1217   002A2A  0B0F               	andlw	15
  1218   002A2C  6E0E               	movwf	??_led_initialization^0,c
  1219   002A2E  500F               	movf	led_initialization@pin_obj^0,w,c
  1220   002A30  180E               	xorwf	??_led_initialization^0,w,c
  1221   002A32  0BF8               	andlw	-8
  1222   002A34  180E               	xorwf	??_led_initialization^0,w,c
  1223   002A36  6E0F               	movwf	led_initialization@pin_obj^0,c
  1224   002A38  500D               	movf	led_initialization@led^0,w,c
  1225   002A3A  6ED9               	movwf	fsr2l,c
  1226   002A3C  6ADA               	clrf	fsr2h,c
  1227   002A3E  38DF               	swapf	223,w,c
  1228   002A40  0B07               	andlw	7
  1229   002A42  6E0E               	movwf	??_led_initialization^0,c
  1230   002A44  460E               	rlncf	??_led_initialization^0,f,c
  1231   002A46  460E               	rlncf	??_led_initialization^0,f,c
  1232   002A48  460E               	rlncf	??_led_initialization^0,f,c
  1233   002A4A  500F               	movf	led_initialization@pin_obj^0,w,c
  1234   002A4C  180E               	xorwf	??_led_initialization^0,w,c
  1235   002A4E  0BC7               	andlw	-57
  1236   002A50  180E               	xorwf	??_led_initialization^0,w,c
  1237   002A52  6E0F               	movwf	led_initialization@pin_obj^0,c
  1238   002A54  9C0F               	bcf	led_initialization@pin_obj^0,6,c
  1239   002A56  500D               	movf	led_initialization@led^0,w,c
  1240   002A58  6ED9               	movwf	fsr2l,c
  1241   002A5A  6ADA               	clrf	fsr2h,c
  1242   002A5C  AEDF               	btfss	indf2,7,c
  1243   002A5E  D002               	bra	u5395
  1244   002A60  8E0F               	bsf	led_initialization@pin_obj^0,7,c
  1245   002A62  D001               	bra	u5397
  1246   002A64                     u5395:
  1247   002A64  9E0F               	bcf	led_initialization@pin_obj^0,7,c
  1248   002A66                     u5397:
  1249   002A66                     
  1250                           ;ECU_Layer/LED/ecu_led.c: 28:         gpio_pin_initialization(&pin_obj);
  1251   002A66  0E0F               	movlw	low led_initialization@pin_obj
  1252   002A68  6E0A               	movwf	gpio_pin_initialization@pin_config^0,c
  1253   002A6A  EC68  F015         	call	_gpio_pin_initialization	;wreg free
  1254   002A6E                     l296:
  1255   002A6E  0012               	return		;funcret
  1256   002A70                     __end_of_led_initialization:
  1257                           	callstack 0
  1258                           
  1259 ;; *************** function _keypad_initialization *****************
  1260 ;; Defined at:
  1261 ;;		line 17 in file "ECU_Layer/keypad/ecu_keypad.c"
  1262 ;; Parameters:    Size  Location     Type
  1263 ;;  keypad          1   12[COMRAM] PTR const struct .
  1264 ;;		 -> keypad(7), 
  1265 ;; Auto vars:     Size  Location     Type
  1266 ;;  columns_coun    1   14[COMRAM] unsigned char 
  1267 ;;  rows_counter    1   13[COMRAM] unsigned char 
  1268 ;;  ret             1    0        unsigned char 
  1269 ;; Return value:  Size  Location     Type
  1270 ;;                  1    wreg      unsigned char 
  1271 ;; Registers used:
  1272 ;;		wreg, fsr2l, fsr2h, status,2, status,0, prodl, prodh, cstack
  1273 ;; Tracked objects:
  1274 ;;		On entry : 0/0
  1275 ;;		On exit  : 0/0
  1276 ;;		Unchanged: 0/0
  1277 ;; Data sizes:     COMRAM   BANK0   BANK1   BANK2   BANK3   BANK4   BANK5   BANK6   BANK7   BANK8   BANK9  BANK10  BANK1
      +1  BANK12  BANK13  BANK14  BANK15
  1278 ;;      Params:         1       0       0       0       0       0       0       0       0       0       0       0       
      +0       0       0       0       0
  1279 ;;      Locals:         2       0       0       0       0       0       0       0       0       0       0       0       
      +0       0       0       0       0
  1280 ;;      Temps:          0       0       0       0       0       0       0       0       0       0       0       0       
      +0       0       0       0       0
  1281 ;;      Totals:         3       0       0       0       0       0       0       0       0       0       0       0       
      +0       0       0       0       0
  1282 ;;Total ram usage:        3 bytes
  1283 ;; Hardware stack levels used: 1
  1284 ;; Hardware stack levels required when called: 4
  1285 ;; This function calls:
  1286 ;;		_gpio_pin_initialization
  1287 ;; This function is called by:
  1288 ;;		_ecu_layer_initialize
  1289 ;; This function uses a non-reentrant model
  1290 ;;
  1291                           
  1292                           	psect	text4
  1293   002A70                     __ptext4:
  1294                           	callstack 0
  1295   002A70                     _keypad_initialization:
  1296                           	callstack 24
  1297   002A70                     
  1298                           ;ECU_Layer/keypad/ecu_keypad.c: 19:     uint8 rows_counter = 0, columns_counter = 0;
  1299   002A70  0E00               	movlw	0
  1300   002A72  6E0E               	movwf	keypad_initialization@rows_counter^0,c
  1301   002A74  0E00               	movlw	0
  1302   002A76  6E0F               	movwf	keypad_initialization@columns_counter^0,c
  1303                           
  1304                           ;ECU_Layer/keypad/ecu_keypad.c: 20:     if (((void*)0) == keypad) {
  1305   002A78  500D               	movf	keypad_initialization@keypad^0,w,c
  1306   002A7A  A4D8               	btfss	status,2,c
  1307   002A7C  EF42  F015         	goto	u5351
  1308   002A80  EF44  F015         	goto	u5350
  1309   002A84                     u5351:
  1310   002A84  EF46  F015         	goto	l6314
  1311   002A88                     u5350:
  1312   002A88                     
  1313                           ;ECU_Layer/keypad/ecu_keypad.c: 22:     } else {
  1314   002A88  EF67  F015         	goto	l268
  1315   002A8C                     l6314:
  1316                           
  1317                           ;ECU_Layer/keypad/ecu_keypad.c: 23:         for (rows_counter = 0; rows_counter < 4; row
      +                          s_counter++) {
  1318   002A8C  0E00               	movlw	0
  1319   002A8E  6E0E               	movwf	keypad_initialization@rows_counter^0,c
  1320   002A90                     l6320:
  1321                           
  1322                           ;ECU_Layer/keypad/ecu_keypad.c: 24:             gpio_pin_initialization(&(keypad->keypad
      +                          _rows_pin[rows_counter]));
  1323   002A90  500D               	movf	keypad_initialization@keypad^0,w,c
  1324   002A92  240E               	addwf	keypad_initialization@rows_counter^0,w,c
  1325   002A94  6E0A               	movwf	gpio_pin_initialization@pin_config^0,c
  1326   002A96  EC68  F015         	call	_gpio_pin_initialization	;wreg free
  1327   002A9A                     
  1328                           ;ECU_Layer/keypad/ecu_keypad.c: 25:         }
  1329   002A9A  2A0E               	incf	keypad_initialization@rows_counter^0,f,c
  1330   002A9C  0E03               	movlw	3
  1331   002A9E  640E               	cpfsgt	keypad_initialization@rows_counter^0,c
  1332   002AA0  EF54  F015         	goto	u5361
  1333   002AA4  EF56  F015         	goto	u5360
  1334   002AA8                     u5361:
  1335   002AA8  EF48  F015         	goto	l6320
  1336   002AAC                     u5360:
  1337   002AAC                     
  1338                           ;ECU_Layer/keypad/ecu_keypad.c: 26:         for (columns_counter = 0; columns_counter < 
      +                          3; columns_counter++) {
  1339   002AAC  0E00               	movlw	0
  1340   002AAE  6E0F               	movwf	keypad_initialization@columns_counter^0,c
  1341   002AB0                     l6332:
  1342                           
  1343                           ;ECU_Layer/keypad/ecu_keypad.c: 27:             gpio_pin_initialization(&(keypad->keypad
      +                          _columns_pins[columns_counter]));
  1344   002AB0  500D               	movf	keypad_initialization@keypad^0,w,c
  1345   002AB2  240F               	addwf	keypad_initialization@columns_counter^0,w,c
  1346   002AB4  0F04               	addlw	4
  1347   002AB6  6E0A               	movwf	gpio_pin_initialization@pin_config^0,c
  1348   002AB8  EC68  F015         	call	_gpio_pin_initialization	;wreg free
  1349   002ABC                     
  1350                           ;ECU_Layer/keypad/ecu_keypad.c: 28:         }
  1351   002ABC  2A0F               	incf	keypad_initialization@columns_counter^0,f,c
  1352   002ABE  0E02               	movlw	2
  1353   002AC0  640F               	cpfsgt	keypad_initialization@columns_counter^0,c
  1354   002AC2  EF65  F015         	goto	u5371
  1355   002AC6  EF67  F015         	goto	u5370
  1356   002ACA                     u5371:
  1357   002ACA  EF58  F015         	goto	l6332
  1358   002ACE                     u5370:
  1359   002ACE                     l268:
  1360   002ACE  0012               	return		;funcret
  1361   002AD0                     __end_of_keypad_initialization:
  1362                           	callstack 0
  1363                           
  1364 ;; *************** function _gpio_pin_initialization *****************
  1365 ;; Defined at:
  1366 ;;		line 132 in file "MCAL_Layer/GPIO/hal_gpio.c"
  1367 ;; Parameters:    Size  Location     Type
  1368 ;;  pin_config      1    9[COMRAM] PTR const struct .
  1369 ;;		 -> keypad$keypad_columns_pins(3), keypad$keypad_rows_pin(4), keypad(7), relay_initialization@pin_obj(1), 
  1370 ;;		 -> led_initialization@pin_obj(1), 
  1371 ;; Auto vars:     Size  Location     Type
  1372 ;;  ret             1   11[COMRAM] unsigned char 
  1373 ;; Return value:  Size  Location     Type
  1374 ;;                  1    wreg      unsigned char 
  1375 ;; Registers used:
  1376 ;;		wreg, fsr2l, fsr2h, status,2, status,0, prodl, prodh, cstack
  1377 ;; Tracked objects:
  1378 ;;		On entry : 0/0
  1379 ;;		On exit  : 0/0
  1380 ;;		Unchanged: 0/0
  1381 ;; Data sizes:     COMRAM   BANK0   BANK1   BANK2   BANK3   BANK4   BANK5   BANK6   BANK7   BANK8   BANK9  BANK10  BANK1
      +1  BANK12  BANK13  BANK14  BANK15
  1382 ;;      Params:         1       0       0       0       0       0       0       0       0       0       0       0       
      +0       0       0       0       0
  1383 ;;      Locals:         1       0       0       0       0       0       0       0       0       0       0       0       
      +0       0       0       0       0
  1384 ;;      Temps:          1       0       0       0       0       0       0       0       0       0       0       0       
      +0       0       0       0       0
  1385 ;;      Totals:         3       0       0       0       0       0       0       0       0       0       0       0       
      +0       0       0       0       0
  1386 ;;Total ram usage:        3 bytes
  1387 ;; Hardware stack levels used: 1
  1388 ;; Hardware stack levels required when called: 3
  1389 ;; This function calls:
  1390 ;;		_gpio_pin_direction_initializion
  1391 ;;		_gpio_pin_write_logic
  1392 ;; This function is called by:
  1393 ;;		_keypad_initialization
  1394 ;;		_led_initialization
  1395 ;;		_seven_segment_initialize
  1396 ;;		_lcd_4bit_initialize
  1397 ;;		_lcd_8bit_initialize
  1398 ;;		_motor_initialization
  1399 ;;		_relay_initialization
  1400 ;;		_CCP_Init
  1401 ;; This function uses a non-reentrant model
  1402 ;;
  1403                           
  1404                           	psect	text5
  1405   002AD0                     __ptext5:
  1406                           	callstack 0
  1407   002AD0                     _gpio_pin_initialization:
  1408                           	callstack 24
  1409   002AD0                     
  1410                           ;MCAL_Layer/GPIO/hal_gpio.c: 133:     STD_ReturnType ret = (STD_ReturnType)0x01;
  1411   002AD0  0E01               	movlw	1
  1412   002AD2  6E0C               	movwf	gpio_pin_initialization@ret^0,c
  1413                           
  1414                           ;MCAL_Layer/GPIO/hal_gpio.c: 134:     if ((((void*)0) == pin_config) || (pin_config->pin
      +                           > 8 - 1)) {
  1415   002AD4  500A               	movf	gpio_pin_initialization@pin_config^0,w,c
  1416   002AD6  B4D8               	btfsc	status,2,c
  1417   002AD8  EF70  F015         	goto	u4521
  1418   002ADC  EF72  F015         	goto	u4520
  1419   002AE0                     u4521:
  1420   002AE0  EF82  F015         	goto	l5862
  1421   002AE4                     u4520:
  1422   002AE4  500A               	movf	gpio_pin_initialization@pin_config^0,w,c
  1423   002AE6  6ED9               	movwf	fsr2l,c
  1424   002AE8  6ADA               	clrf	fsr2h,c
  1425   002AEA  30DF               	rrcf	223,w,c
  1426   002AEC  32E8               	rrcf	wreg,f,c
  1427   002AEE  32E8               	rrcf	wreg,f,c
  1428   002AF0  0B07               	andlw	7
  1429   002AF2  6E0B               	movwf	??_gpio_pin_initialization^0,c
  1430   002AF4  0E07               	movlw	7
  1431   002AF6  640B               	cpfsgt	??_gpio_pin_initialization^0,c
  1432   002AF8  EF80  F015         	goto	u4531
  1433   002AFC  EF82  F015         	goto	u4530
  1434   002B00                     u4531:
  1435   002B00  EF86  F015         	goto	l5864
  1436   002B04                     u4530:
  1437   002B04                     l5862:
  1438                           
  1439                           ;MCAL_Layer/GPIO/hal_gpio.c: 135:         ret = (STD_ReturnType)0x00;
  1440   002B04  0E00               	movlw	0
  1441   002B06  6E0C               	movwf	gpio_pin_initialization@ret^0,c
  1442                           
  1443                           ;MCAL_Layer/GPIO/hal_gpio.c: 136:     } else {
  1444   002B08  EF95  F015         	goto	l5866
  1445   002B0C                     l5864:
  1446                           
  1447                           ;MCAL_Layer/GPIO/hal_gpio.c: 137:         gpio_pin_direction_initializion(pin_config);
  1448   002B0C  C00A  F002         	movff	gpio_pin_initialization@pin_config,gpio_pin_direction_initializion@pin_config
  1449   002B10  EC30  F010         	call	_gpio_pin_direction_initializion	;wreg free
  1450                           
  1451                           ;MCAL_Layer/GPIO/hal_gpio.c: 138:         gpio_pin_write_logic(pin_config, pin_config->l
      +                          ogic);
  1452   002B14  C00A  F002         	movff	gpio_pin_initialization@pin_config,gpio_pin_write_logic@pin_config
  1453   002B18  500A               	movf	gpio_pin_initialization@pin_config^0,w,c
  1454   002B1A  6ED9               	movwf	fsr2l,c
  1455   002B1C  6ADA               	clrf	fsr2h,c
  1456   002B1E  0E00               	movlw	0
  1457   002B20  BEDF               	btfsc	indf2,7,c
  1458   002B22  0E01               	movlw	1
  1459   002B24  6E03               	movwf	gpio_pin_write_logic@logic^0,c
  1460   002B26  ECB9  F010         	call	_gpio_pin_write_logic	;wreg free
  1461   002B2A                     l5866:
  1462                           
  1463                           ;MCAL_Layer/GPIO/hal_gpio.c: 140:     return ret;
  1464   002B2A  500C               	movf	gpio_pin_initialization@ret^0,w,c
  1465   002B2C  0012               	return		;funcret
  1466   002B2E                     __end_of_gpio_pin_initialization:
  1467                           	callstack 0
  1468                           
  1469 ;; *************** function _gpio_pin_write_logic *****************
  1470 ;; Defined at:
  1471 ;;		line 68 in file "MCAL_Layer/GPIO/hal_gpio.c"
  1472 ;; Parameters:    Size  Location     Type
  1473 ;;  pin_config      1    1[COMRAM] PTR const struct .
  1474 ;;		 -> keypad$keypad_columns_pins(3), keypad$keypad_rows_pin(4), keypad(7), relay_turn_off@pin_obj(1), 
  1475 ;;		 -> relay_turn_on@pin_obj(1), relay_initialization@pin_obj(1), led_turn_off@pin_obj(1), led_turn_on@pin_obj(1), 
  1476 ;;		 -> led_initialization@pin_obj(1), 
  1477 ;;  logic           1    2[COMRAM] enum E3230
  1478 ;; Auto vars:     Size  Location     Type
  1479 ;;  ret             1    8[COMRAM] unsigned char 
  1480 ;; Return value:  Size  Location     Type
  1481 ;;                  1    wreg      unsigned char 
  1482 ;; Registers used:
  1483 ;;		wreg, fsr2l, fsr2h, status,2, status,0, prodl, prodh
  1484 ;; Tracked objects:
  1485 ;;		On entry : 0/0
  1486 ;;		On exit  : 0/0
  1487 ;;		Unchanged: 0/0
  1488 ;; Data sizes:     COMRAM   BANK0   BANK1   BANK2   BANK3   BANK4   BANK5   BANK6   BANK7   BANK8   BANK9  BANK10  BANK1
      +1  BANK12  BANK13  BANK14  BANK15
  1489 ;;      Params:         2       0       0       0       0       0       0       0       0       0       0       0       
      +0       0       0       0       0
  1490 ;;      Locals:         1       0       0       0       0       0       0       0       0       0       0       0       
      +0       0       0       0       0
  1491 ;;      Temps:          5       0       0       0       0       0       0       0       0       0       0       0       
      +0       0       0       0       0
  1492 ;;      Totals:         8       0       0       0       0       0       0       0       0       0       0       0       
      +0       0       0       0       0
  1493 ;;Total ram usage:        8 bytes
  1494 ;; Hardware stack levels used: 1
  1495 ;; Hardware stack levels required when called: 2
  1496 ;; This function calls:
  1497 ;;		Nothing
  1498 ;; This function is called by:
  1499 ;;		_gpio_pin_initialization
  1500 ;;		_seven_segment_write_number
  1501 ;;		_lcd_4bit_send_command
  1502 ;;		_lcd_4bit_send_char_data
  1503 ;;		_lcd_8bit_send_command
  1504 ;;		_lcd_8bit_send_char_data
  1505 ;;		_lcd_send_4bit
  1506 ;;		_lcd_4bit_send_enable_signal
  1507 ;;		_lcd_8bit_send_enable_signal
  1508 ;;		_keypad_get_value
  1509 ;;		_led_turn_on
  1510 ;;		_led_turn_off
  1511 ;;		_motor_move_forward
  1512 ;;		_motor_move_backward
  1513 ;;		_motor_stop
  1514 ;;		_relay_turn_on
  1515 ;;		_relay_turn_off
  1516 ;; This function uses a non-reentrant model
  1517 ;;
  1518                           
  1519                           	psect	text6
  1520   002172                     __ptext6:
  1521                           	callstack 0
  1522   002172                     _gpio_pin_write_logic:
  1523                           	callstack 24
  1524   002172                     
  1525                           ;MCAL_Layer/GPIO/hal_gpio.c: 69:     STD_ReturnType ret = (STD_ReturnType)0x01;
  1526   002172  0E01               	movlw	1
  1527   002174  6E09               	movwf	gpio_pin_write_logic@ret^0,c
  1528                           
  1529                           ;MCAL_Layer/GPIO/hal_gpio.c: 70:     if ((((void*)0) == pin_config) || (pin_config->pin 
      +                          > 8 - 1)) {
  1530   002176  5002               	movf	gpio_pin_write_logic@pin_config^0,w,c
  1531   002178  B4D8               	btfsc	status,2,c
  1532   00217A  EFC1  F010         	goto	u4431
  1533   00217E  EFC3  F010         	goto	u4430
  1534   002182                     u4431:
  1535   002182  EFD3  F010         	goto	l5822
  1536   002186                     u4430:
  1537   002186  5002               	movf	gpio_pin_write_logic@pin_config^0,w,c
  1538   002188  6ED9               	movwf	fsr2l,c
  1539   00218A  6ADA               	clrf	fsr2h,c
  1540   00218C  30DF               	rrcf	223,w,c
  1541   00218E  32E8               	rrcf	wreg,f,c
  1542   002190  32E8               	rrcf	wreg,f,c
  1543   002192  0B07               	andlw	7
  1544   002194  6E04               	movwf	??_gpio_pin_write_logic^0,c
  1545   002196  0E07               	movlw	7
  1546   002198  6404               	cpfsgt	??_gpio_pin_write_logic^0,c
  1547   00219A  EFD1  F010         	goto	u4441
  1548   00219E  EFD3  F010         	goto	u4440
  1549   0021A2                     u4441:
  1550   0021A2  EF2A  F011         	goto	l5830
  1551   0021A6                     u4440:
  1552   0021A6                     l5822:
  1553                           
  1554                           ;MCAL_Layer/GPIO/hal_gpio.c: 71:         ret = (STD_ReturnType)0x00;
  1555   0021A6  0E00               	movlw	0
  1556   0021A8  6E09               	movwf	gpio_pin_write_logic@ret^0,c
  1557                           
  1558                           ;MCAL_Layer/GPIO/hal_gpio.c: 72:     } else {
  1559   0021AA  EF3F  F011         	goto	l5832
  1560   0021AE                     l5824:
  1561                           
  1562                           ;MCAL_Layer/GPIO/hal_gpio.c: 75:                 (*lat_register[pin_config->port] &= ~(1
      +                           << pin_config->pin));
  1563   0021AE  5002               	movf	gpio_pin_write_logic@pin_config^0,w,c
  1564   0021B0  6ED9               	movwf	fsr2l,c
  1565   0021B2  6ADA               	clrf	fsr2h,c
  1566   0021B4  30DF               	rrcf	223,w,c
  1567   0021B6  32E8               	rrcf	wreg,f,c
  1568   0021B8  32E8               	rrcf	wreg,f,c
  1569   0021BA  0B07               	andlw	7
  1570   0021BC  6E04               	movwf	??_gpio_pin_write_logic^0,c
  1571   0021BE  0E01               	movlw	1
  1572   0021C0  6E05               	movwf	(??_gpio_pin_write_logic+1)^0,c
  1573   0021C2  2A04               	incf	??_gpio_pin_write_logic^0,f,c
  1574   0021C4  EFE6  F010         	goto	u4454
  1575   0021C8                     u4455:
  1576   0021C8  90D8               	bcf	status,0,c
  1577   0021CA  3605               	rlcf	(??_gpio_pin_write_logic+1)^0,f,c
  1578   0021CC                     u4454:
  1579   0021CC  2E04               	decfsz	??_gpio_pin_write_logic^0,f,c
  1580   0021CE  EFE4  F010         	goto	u4455
  1581   0021D2  5005               	movf	(??_gpio_pin_write_logic+1)^0,w,c
  1582   0021D4  0AFF               	xorlw	255
  1583   0021D6  6E06               	movwf	(??_gpio_pin_write_logic+2)^0,c
  1584   0021D8  5002               	movf	gpio_pin_write_logic@pin_config^0,w,c
  1585   0021DA  6ED9               	movwf	fsr2l,c
  1586   0021DC  6ADA               	clrf	fsr2h,c
  1587   0021DE  50DF               	movf	223,w,c
  1588   0021E0  0B07               	andlw	7
  1589   0021E2  0D02               	mullw	2
  1590   0021E4  50F3               	movf	243,w,c
  1591   0021E6  0FCF               	addlw	low _lat_register
  1592   0021E8  6ED9               	movwf	fsr2l,c
  1593   0021EA  6ADA               	clrf	fsr2h,c
  1594   0021EC  CFDE F007          	movff	postinc2,??_gpio_pin_write_logic+3
  1595   0021F0  CFDD F008          	movff	postdec2,??_gpio_pin_write_logic+4
  1596   0021F4  C007  FFD9         	movff	??_gpio_pin_write_logic+3,fsr2l
  1597   0021F8  C008  FFDA         	movff	??_gpio_pin_write_logic+4,fsr2h
  1598   0021FC  5006               	movf	(??_gpio_pin_write_logic+2)^0,w,c
  1599   0021FE  16DF               	andwf	indf2,f,c
  1600                           
  1601                           ;MCAL_Layer/GPIO/hal_gpio.c: 76:                 break;
  1602   002200  EF3F  F011         	goto	l5832
  1603   002204                     l5826:
  1604                           
  1605                           ;MCAL_Layer/GPIO/hal_gpio.c: 78:                 (*lat_register[pin_config->port] |= (1 
      +                          << pin_config->pin));
  1606   002204  5002               	movf	gpio_pin_write_logic@pin_config^0,w,c
  1607   002206  6ED9               	movwf	fsr2l,c
  1608   002208  6ADA               	clrf	fsr2h,c
  1609   00220A  30DF               	rrcf	223,w,c
  1610   00220C  32E8               	rrcf	wreg,f,c
  1611   00220E  32E8               	rrcf	wreg,f,c
  1612   002210  0B07               	andlw	7
  1613   002212  6E04               	movwf	??_gpio_pin_write_logic^0,c
  1614   002214  0E01               	movlw	1
  1615   002216  6E05               	movwf	(??_gpio_pin_write_logic+1)^0,c
  1616   002218  2A04               	incf	??_gpio_pin_write_logic^0,f,c
  1617   00221A  EF11  F011         	goto	u4464
  1618   00221E                     u4465:
  1619   00221E  90D8               	bcf	status,0,c
  1620   002220  3605               	rlcf	(??_gpio_pin_write_logic+1)^0,f,c
  1621   002222                     u4464:
  1622   002222  2E04               	decfsz	??_gpio_pin_write_logic^0,f,c
  1623   002224  EF0F  F011         	goto	u4465
  1624   002228  5002               	movf	gpio_pin_write_logic@pin_config^0,w,c
  1625   00222A  6ED9               	movwf	fsr2l,c
  1626   00222C  6ADA               	clrf	fsr2h,c
  1627   00222E  50DF               	movf	223,w,c
  1628   002230  0B07               	andlw	7
  1629   002232  0D02               	mullw	2
  1630   002234  50F3               	movf	243,w,c
  1631   002236  0FCF               	addlw	low _lat_register
  1632   002238  6ED9               	movwf	fsr2l,c
  1633   00223A  6ADA               	clrf	fsr2h,c
  1634   00223C  CFDE F006          	movff	postinc2,??_gpio_pin_write_logic+2
  1635   002240  CFDD F007          	movff	postdec2,??_gpio_pin_write_logic+3
  1636   002244  C006  FFD9         	movff	??_gpio_pin_write_logic+2,fsr2l
  1637   002248  C007  FFDA         	movff	??_gpio_pin_write_logic+3,fsr2h
  1638   00224C  5005               	movf	(??_gpio_pin_write_logic+1)^0,w,c
  1639   00224E  12DF               	iorwf	indf2,f,c
  1640                           
  1641                           ;MCAL_Layer/GPIO/hal_gpio.c: 79:                 break;
  1642   002250  EF3F  F011         	goto	l5832
  1643   002254                     l5830:
  1644   002254  5003               	movf	gpio_pin_write_logic@logic^0,w,c
  1645   002256  6E04               	movwf	??_gpio_pin_write_logic^0,c
  1646   002258  6A05               	clrf	(??_gpio_pin_write_logic+1)^0,c
  1647                           
  1648                           ; Switch on 2 bytes has been partitioned into a top level switch of size 1, and 1 sub-sw
      +                          itches
  1649                           ; Switch size 1, requested type "simple"
  1650                           ; Number of cases is 1, Range of values is 0 to 0
  1651                           ; switch strategies available:
  1652                           ; Name         Instructions Cycles
  1653                           ; simple_byte            4     3 (average)
  1654                           ;	Chosen strategy is simple_byte
  1655   00225A  5005               	movf	(??_gpio_pin_write_logic+1)^0,w,c
  1656   00225C  0A00               	xorlw	0	; case 0
  1657   00225E  B4D8               	btfsc	status,2,c
  1658   002260  EF34  F011         	goto	l8794
  1659   002264  EFD3  F010         	goto	l5822
  1660   002268                     l8794:
  1661                           
  1662                           ; Switch size 1, requested type "simple"
  1663                           ; Number of cases is 2, Range of values is 0 to 1
  1664                           ; switch strategies available:
  1665                           ; Name         Instructions Cycles
  1666                           ; simple_byte            7     4 (average)
  1667                           ;	Chosen strategy is simple_byte
  1668   002268  5004               	movf	??_gpio_pin_write_logic^0,w,c
  1669   00226A  0A00               	xorlw	0	; case 0
  1670   00226C  B4D8               	btfsc	status,2,c
  1671   00226E  EFD7  F010         	goto	l5824
  1672   002272  0A01               	xorlw	1	; case 1
  1673   002274  B4D8               	btfsc	status,2,c
  1674   002276  EF02  F011         	goto	l5826
  1675   00227A  EFD3  F010         	goto	l5822
  1676   00227E                     l5832:
  1677                           
  1678                           ;MCAL_Layer/GPIO/hal_gpio.c: 84:     return ret;
  1679   00227E  5009               	movf	gpio_pin_write_logic@ret^0,w,c
  1680   002280  0012               	return		;funcret
  1681   002282                     __end_of_gpio_pin_write_logic:
  1682                           	callstack 0
  1683                           
  1684 ;; *************** function _gpio_pin_direction_initializion *****************
  1685 ;; Defined at:
  1686 ;;		line 23 in file "MCAL_Layer/GPIO/hal_gpio.c"
  1687 ;; Parameters:    Size  Location     Type
  1688 ;;  pin_config      1    1[COMRAM] PTR const struct .
  1689 ;;		 -> keypad$keypad_columns_pins(3), keypad$keypad_rows_pin(4), keypad(7), relay_initialization@pin_obj(1), 
  1690 ;;		 -> led_initialization@pin_obj(1), 
  1691 ;; Auto vars:     Size  Location     Type
  1692 ;;  ret             1    7[COMRAM] unsigned char 
  1693 ;; Return value:  Size  Location     Type
  1694 ;;                  1    wreg      unsigned char 
  1695 ;; Registers used:
  1696 ;;		wreg, fsr2l, fsr2h, status,2, status,0, prodl, prodh
  1697 ;; Tracked objects:
  1698 ;;		On entry : 0/0
  1699 ;;		On exit  : 0/0
  1700 ;;		Unchanged: 0/0
  1701 ;; Data sizes:     COMRAM   BANK0   BANK1   BANK2   BANK3   BANK4   BANK5   BANK6   BANK7   BANK8   BANK9  BANK10  BANK1
      +1  BANK12  BANK13  BANK14  BANK15
  1702 ;;      Params:         1       0       0       0       0       0       0       0       0       0       0       0       
      +0       0       0       0       0
  1703 ;;      Locals:         1       0       0       0       0       0       0       0       0       0       0       0       
      +0       0       0       0       0
  1704 ;;      Temps:          5       0       0       0       0       0       0       0       0       0       0       0       
      +0       0       0       0       0
  1705 ;;      Totals:         7       0       0       0       0       0       0       0       0       0       0       0       
      +0       0       0       0       0
  1706 ;;Total ram usage:        7 bytes
  1707 ;; Hardware stack levels used: 1
  1708 ;; Hardware stack levels required when called: 2
  1709 ;; This function calls:
  1710 ;;		Nothing
  1711 ;; This function is called by:
  1712 ;;		_gpio_pin_initialization
  1713 ;;		_button_initialization
  1714 ;;		_interrupt_intx_pin_init
  1715 ;;		_interrupt_RBx_pin_init
  1716 ;; This function uses a non-reentrant model
  1717 ;;
  1718                           
  1719                           	psect	text7
  1720   002060                     __ptext7:
  1721                           	callstack 0
  1722   002060                     _gpio_pin_direction_initializion:
  1723                           	callstack 24
  1724   002060                     
  1725                           ;MCAL_Layer/GPIO/hal_gpio.c: 24:     STD_ReturnType ret = (STD_ReturnType)0x01;
  1726   002060  0E01               	movlw	1
  1727   002062  6E08               	movwf	gpio_pin_direction_initializion@ret^0,c
  1728                           
  1729                           ;MCAL_Layer/GPIO/hal_gpio.c: 25:     if ((((void*)0) == pin_config) || (pin_config->pin 
      +                          > 8 - 1)) {
  1730   002064  5002               	movf	gpio_pin_direction_initializion@pin_config^0,w,c
  1731   002066  B4D8               	btfsc	status,2,c
  1732   002068  EF38  F010         	goto	u4471
  1733   00206C  EF3A  F010         	goto	u4470
  1734   002070                     u4471:
  1735   002070  EF4A  F010         	goto	l5844
  1736   002074                     u4470:
  1737   002074  5002               	movf	gpio_pin_direction_initializion@pin_config^0,w,c
  1738   002076  6ED9               	movwf	fsr2l,c
  1739   002078  6ADA               	clrf	fsr2h,c
  1740   00207A  30DF               	rrcf	223,w,c
  1741   00207C  32E8               	rrcf	wreg,f,c
  1742   00207E  32E8               	rrcf	wreg,f,c
  1743   002080  0B07               	andlw	7
  1744   002082  6E03               	movwf	??_gpio_pin_direction_initializion^0,c
  1745   002084  0E07               	movlw	7
  1746   002086  6403               	cpfsgt	??_gpio_pin_direction_initializion^0,c
  1747   002088  EF48  F010         	goto	u4481
  1748   00208C  EF4A  F010         	goto	u4480
  1749   002090                     u4481:
  1750   002090  EFA1  F010         	goto	l5852
  1751   002094                     u4480:
  1752   002094                     l5844:
  1753                           
  1754                           ;MCAL_Layer/GPIO/hal_gpio.c: 26:         ret = (STD_ReturnType)0x00;
  1755   002094  0E00               	movlw	0
  1756   002096  6E08               	movwf	gpio_pin_direction_initializion@ret^0,c
  1757                           
  1758                           ;MCAL_Layer/GPIO/hal_gpio.c: 27:     } else {
  1759   002098  EFB7  F010         	goto	l5854
  1760   00209C                     l5846:
  1761                           
  1762                           ;MCAL_Layer/GPIO/hal_gpio.c: 30:                 (*tris_register[pin_config->port] &= ~(
      +                          1 << pin_config->pin));
  1763   00209C  5002               	movf	gpio_pin_direction_initializion@pin_config^0,w,c
  1764   00209E  6ED9               	movwf	fsr2l,c
  1765   0020A0  6ADA               	clrf	fsr2h,c
  1766   0020A2  30DF               	rrcf	223,w,c
  1767   0020A4  32E8               	rrcf	wreg,f,c
  1768   0020A6  32E8               	rrcf	wreg,f,c
  1769   0020A8  0B07               	andlw	7
  1770   0020AA  6E03               	movwf	??_gpio_pin_direction_initializion^0,c
  1771   0020AC  0E01               	movlw	1
  1772   0020AE  6E04               	movwf	(??_gpio_pin_direction_initializion+1)^0,c
  1773   0020B0  2A03               	incf	??_gpio_pin_direction_initializion^0,f,c
  1774   0020B2  EF5D  F010         	goto	u4494
  1775   0020B6                     u4495:
  1776   0020B6  90D8               	bcf	status,0,c
  1777   0020B8  3604               	rlcf	(??_gpio_pin_direction_initializion+1)^0,f,c
  1778   0020BA                     u4494:
  1779   0020BA  2E03               	decfsz	??_gpio_pin_direction_initializion^0,f,c
  1780   0020BC  EF5B  F010         	goto	u4495
  1781   0020C0  5004               	movf	(??_gpio_pin_direction_initializion+1)^0,w,c
  1782   0020C2  0AFF               	xorlw	255
  1783   0020C4  6E05               	movwf	(??_gpio_pin_direction_initializion+2)^0,c
  1784   0020C6  5002               	movf	gpio_pin_direction_initializion@pin_config^0,w,c
  1785   0020C8  6ED9               	movwf	fsr2l,c
  1786   0020CA  6ADA               	clrf	fsr2h,c
  1787   0020CC  50DF               	movf	223,w,c
  1788   0020CE  0B07               	andlw	7
  1789   0020D0  0D02               	mullw	2
  1790   0020D2  50F3               	movf	243,w,c
  1791   0020D4  0FD9               	addlw	low _tris_register
  1792   0020D6  6ED9               	movwf	fsr2l,c
  1793   0020D8  6ADA               	clrf	fsr2h,c
  1794   0020DA  CFDE F006          	movff	postinc2,??_gpio_pin_direction_initializion+3
  1795   0020DE  CFDD F007          	movff	postdec2,??_gpio_pin_direction_initializion+4
  1796   0020E2  C006  FFD9         	movff	??_gpio_pin_direction_initializion+3,fsr2l
  1797   0020E6  C007  FFDA         	movff	??_gpio_pin_direction_initializion+4,fsr2h
  1798   0020EA  5005               	movf	(??_gpio_pin_direction_initializion+2)^0,w,c
  1799   0020EC  16DF               	andwf	indf2,f,c
  1800                           
  1801                           ;MCAL_Layer/GPIO/hal_gpio.c: 31:                 break;
  1802   0020EE  EFB7  F010         	goto	l5854
  1803   0020F2                     l5848:
  1804                           
  1805                           ;MCAL_Layer/GPIO/hal_gpio.c: 33:                 (*tris_register[pin_config->port] |= (1
      +                           << pin_config->pin));
  1806   0020F2  5002               	movf	gpio_pin_direction_initializion@pin_config^0,w,c
  1807   0020F4  6ED9               	movwf	fsr2l,c
  1808   0020F6  6ADA               	clrf	fsr2h,c
  1809   0020F8  30DF               	rrcf	223,w,c
  1810   0020FA  32E8               	rrcf	wreg,f,c
  1811   0020FC  32E8               	rrcf	wreg,f,c
  1812   0020FE  0B07               	andlw	7
  1813   002100  6E03               	movwf	??_gpio_pin_direction_initializion^0,c
  1814   002102  0E01               	movlw	1
  1815   002104  6E04               	movwf	(??_gpio_pin_direction_initializion+1)^0,c
  1816   002106  2A03               	incf	??_gpio_pin_direction_initializion^0,f,c
  1817   002108  EF88  F010         	goto	u4504
  1818   00210C                     u4505:
  1819   00210C  90D8               	bcf	status,0,c
  1820   00210E  3604               	rlcf	(??_gpio_pin_direction_initializion+1)^0,f,c
  1821   002110                     u4504:
  1822   002110  2E03               	decfsz	??_gpio_pin_direction_initializion^0,f,c
  1823   002112  EF86  F010         	goto	u4505
  1824   002116  5002               	movf	gpio_pin_direction_initializion@pin_config^0,w,c
  1825   002118  6ED9               	movwf	fsr2l,c
  1826   00211A  6ADA               	clrf	fsr2h,c
  1827   00211C  50DF               	movf	223,w,c
  1828   00211E  0B07               	andlw	7
  1829   002120  0D02               	mullw	2
  1830   002122  50F3               	movf	243,w,c
  1831   002124  0FD9               	addlw	low _tris_register
  1832   002126  6ED9               	movwf	fsr2l,c
  1833   002128  6ADA               	clrf	fsr2h,c
  1834   00212A  CFDE F005          	movff	postinc2,??_gpio_pin_direction_initializion+2
  1835   00212E  CFDD F006          	movff	postdec2,??_gpio_pin_direction_initializion+3
  1836   002132  C005  FFD9         	movff	??_gpio_pin_direction_initializion+2,fsr2l
  1837   002136  C006  FFDA         	movff	??_gpio_pin_direction_initializion+3,fsr2h
  1838   00213A  5004               	movf	(??_gpio_pin_direction_initializion+1)^0,w,c
  1839   00213C  12DF               	iorwf	indf2,f,c
  1840                           
  1841                           ;MCAL_Layer/GPIO/hal_gpio.c: 34:                 break;
  1842   00213E  EFB7  F010         	goto	l5854
  1843   002142                     l5852:
  1844   002142  5002               	movf	gpio_pin_direction_initializion@pin_config^0,w,c
  1845   002144  6ED9               	movwf	fsr2l,c
  1846   002146  6ADA               	clrf	fsr2h,c
  1847   002148  BCDF               	btfsc	indf2,6,c
  1848   00214A  EFA9  F010         	goto	u4511
  1849   00214E  EFAC  F010         	goto	u4510
  1850   002152                     u4511:
  1851   002152  0E01               	movlw	1
  1852   002154  EFAD  F010         	goto	u4516
  1853   002158                     u4510:
  1854   002158  0E00               	movlw	0
  1855   00215A                     u4516:
  1856                           
  1857                           ; Switch size 1, requested type "simple"
  1858                           ; Number of cases is 2, Range of values is 0 to 1
  1859                           ; switch strategies available:
  1860                           ; Name         Instructions Cycles
  1861                           ; simple_byte            7     4 (average)
  1862                           ;	Chosen strategy is simple_byte
  1863   00215A  0A00               	xorlw	0	; case 0
  1864   00215C  B4D8               	btfsc	status,2,c
  1865   00215E  EF4E  F010         	goto	l5846
  1866   002162  0A01               	xorlw	1	; case 1
  1867   002164  B4D8               	btfsc	status,2,c
  1868   002166  EF79  F010         	goto	l5848
  1869   00216A  EF4A  F010         	goto	l5844
  1870   00216E                     l5854:
  1871                           
  1872                           ;MCAL_Layer/GPIO/hal_gpio.c: 38:     return ret;
  1873   00216E  5008               	movf	gpio_pin_direction_initializion@ret^0,w,c
  1874   002170  0012               	return		;funcret
  1875   002172                     __end_of_gpio_pin_direction_initializion:
  1876                           	callstack 0
  1877                           
  1878 ;; *************** function _MSSP_I2C_Init *****************
  1879 ;; Defined at:
  1880 ;;		line 26 in file "MCAL_Layer/I2C/hal_i2c.c"
  1881 ;; Parameters:    Size  Location     Type
  1882 ;;  i2c_obj         1   68[COMRAM] PTR const struct .
  1883 ;;		 -> mssp_i2c1(16), 
  1884 ;; Auto vars:     Size  Location     Type
  1885 ;;  ret             1    0        unsigned char 
  1886 ;; Return value:  Size  Location     Type
  1887 ;;                  1    wreg      unsigned char 
  1888 ;; Registers used:
  1889 ;;		wreg, fsr2l, fsr2h, status,2, status,0, cstack
  1890 ;; Tracked objects:
  1891 ;;		On entry : 0/0
  1892 ;;		On exit  : 0/0
  1893 ;;		Unchanged: 0/0
  1894 ;; Data sizes:     COMRAM   BANK0   BANK1   BANK2   BANK3   BANK4   BANK5   BANK6   BANK7   BANK8   BANK9  BANK10  BANK1
      +1  BANK12  BANK13  BANK14  BANK15
  1895 ;;      Params:         1       0       0       0       0       0       0       0       0       0       0       0       
      +0       0       0       0       0
  1896 ;;      Locals:         0       0       0       0       0       0       0       0       0       0       0       0       
      +0       0       0       0       0
  1897 ;;      Temps:          1       0       0       0       0       0       0       0       0       0       0       0       
      +0       0       0       0       0
  1898 ;;      Totals:         2       0       0       0       0       0       0       0       0       0       0       0       
      +0       0       0       0       0
  1899 ;;Total ram usage:        2 bytes
  1900 ;; Hardware stack levels used: 1
  1901 ;; Hardware stack levels required when called: 4
  1902 ;; This function calls:
  1903 ;;		_I2C_MASTER_MODE_CLOCK_CONFIG
  1904 ;;		_I2C_Slave_Mode_Config
  1905 ;;		_MSSP_I2C_Interrupt_config
  1906 ;;		_MSSP_I2C_MODE_GPIO_CFG
  1907 ;; This function is called by:
  1908 ;;		_application_initialize
  1909 ;; This function uses a non-reentrant model
  1910 ;;
  1911                           
  1912                           	psect	text8
  1913   001F36                     __ptext8:
  1914                           	callstack 0
  1915   001F36                     _MSSP_I2C_Init:
  1916                           	callstack 25
  1917   001F36                     
  1918                           ;MCAL_Layer/I2C/hal_i2c.c: 28:     if (i2c_obj == ((void*)0)) {
  1919   001F36  5045               	movf	MSSP_I2C_Init@i2c_obj^0,w,c
  1920   001F38  A4D8               	btfss	status,2,c
  1921   001F3A  EFA1  F00F         	goto	u8351
  1922   001F3E  EFA3  F00F         	goto	u8350
  1923   001F42                     u8351:
  1924   001F42  EFA5  F00F         	goto	l1057
  1925   001F46                     u8350:
  1926   001F46                     
  1927                           ;MCAL_Layer/I2C/hal_i2c.c: 30:     } else {
  1928   001F46  EF2F  F010         	goto	l1074
  1929   001F4A                     l1057:
  1930                           
  1931                           ;MCAL_Layer/I2C/hal_i2c.c: 32:         (SSPCON1bits.SSPEN = 0);
  1932   001F4A  9AC6               	bcf	198,5,c	;volatile
  1933   001F4C                     
  1934                           ;MCAL_Layer/I2C/hal_i2c.c: 34:         if (i2c_obj->i2c_config.i2c_mode == 1) {
  1935   001F4C  5045               	movf	MSSP_I2C_Init@i2c_obj^0,w,c
  1936   001F4E  6ED9               	movwf	fsr2l,c
  1937   001F50  6ADA               	clrf	fsr2h,c
  1938   001F52  0E04               	movlw	4
  1939   001F54  26D9               	addwf	fsr2l,f,c
  1940   001F56  04DE               	decf	postinc2,w,c
  1941   001F58  A4D8               	btfss	status,2,c
  1942   001F5A  EFB1  F00F         	goto	u8361
  1943   001F5E  EFB3  F00F         	goto	u8360
  1944   001F62                     u8361:
  1945   001F62  EFB9  F00F         	goto	l8594
  1946   001F66                     u8360:
  1947   001F66                     
  1948                           ;MCAL_Layer/I2C/hal_i2c.c: 35:             I2C_MASTER_MODE_CLOCK_CONFIG(i2c_obj);
  1949   001F66  C045  F043         	movff	MSSP_I2C_Init@i2c_obj,I2C_MASTER_MODE_CLOCK_CONFIG@i2c_obj
  1950   001F6A  EC46  F013         	call	_I2C_MASTER_MODE_CLOCK_CONFIG	;wreg free
  1951                           
  1952                           ;MCAL_Layer/I2C/hal_i2c.c: 36:         } else if (i2c_obj->i2c_config.i2c_mode == 0) {
  1953   001F6E  EFF0  F00F         	goto	l8608
  1954   001F72                     l8594:
  1955   001F72  5045               	movf	MSSP_I2C_Init@i2c_obj^0,w,c
  1956   001F74  6ED9               	movwf	fsr2l,c
  1957   001F76  6ADA               	clrf	fsr2h,c
  1958   001F78  0E04               	movlw	4
  1959   001F7A  26D9               	addwf	fsr2l,f,c
  1960   001F7C  50DF               	movf	indf2,w,c
  1961   001F7E  A4D8               	btfss	status,2,c
  1962   001F80  EFC4  F00F         	goto	u8371
  1963   001F84  EFC6  F00F         	goto	u8370
  1964   001F88                     u8371:
  1965   001F88  EFF0  F00F         	goto	l8608
  1966   001F8C                     u8370:
  1967   001F8C                     
  1968                           ;MCAL_Layer/I2C/hal_i2c.c: 38:             if (i2c_obj->i2c_config.i2c_generel_call == 1
      +                          ) {
  1969   001F8C  5045               	movf	MSSP_I2C_Init@i2c_obj^0,w,c
  1970   001F8E  6ED9               	movwf	fsr2l,c
  1971   001F90  6ADA               	clrf	fsr2h,c
  1972   001F92  0E06               	movlw	6
  1973   001F94  26D9               	addwf	fsr2l,f,c
  1974   001F96  A4DF               	btfss	indf2,2,c
  1975   001F98  EFD0  F00F         	goto	u8381
  1976   001F9C  EFD2  F00F         	goto	u8380
  1977   001FA0                     u8381:
  1978   001FA0  EFD5  F00F         	goto	l8600
  1979   001FA4                     u8380:
  1980   001FA4                     
  1981                           ;MCAL_Layer/I2C/hal_i2c.c: 39:                 (SSPCON2bits.GCEN = 1);
  1982   001FA4  8EC5               	bsf	197,7,c	;volatile
  1983                           
  1984                           ;MCAL_Layer/I2C/hal_i2c.c: 40:             } else if (i2c_obj->i2c_config.i2c_generel_ca
      +                          ll == 0) {
  1985   001FA6  EFE2  F00F         	goto	l1063
  1986   001FAA                     l8600:
  1987   001FAA  5045               	movf	MSSP_I2C_Init@i2c_obj^0,w,c
  1988   001FAC  6ED9               	movwf	fsr2l,c
  1989   001FAE  6ADA               	clrf	fsr2h,c
  1990   001FB0  0E06               	movlw	6
  1991   001FB2  26D9               	addwf	fsr2l,f,c
  1992   001FB4  B4DF               	btfsc	indf2,2,c
  1993   001FB6  EFDF  F00F         	goto	u8391
  1994   001FBA  EFE1  F00F         	goto	u8390
  1995   001FBE                     u8391:
  1996   001FBE  EFE2  F00F         	goto	l1063
  1997   001FC2                     u8390:
  1998   001FC2                     
  1999                           ;MCAL_Layer/I2C/hal_i2c.c: 41:                 (SSPCON2bits.GCEN = 0);
  2000   001FC2  9EC5               	bcf	197,7,c	;volatile
  2001   001FC4                     l1063:
  2002                           
  2003                           ;MCAL_Layer/I2C/hal_i2c.c: 46:             SSPCON1bits.WCOL = 0;
  2004   001FC4  9EC6               	bcf	198,7,c	;volatile
  2005                           
  2006                           ;MCAL_Layer/I2C/hal_i2c.c: 48:             SSPCON1bits.SSPOV = 0;
  2007   001FC6  9CC6               	bcf	198,6,c	;volatile
  2008                           
  2009                           ;MCAL_Layer/I2C/hal_i2c.c: 50:             SSPCON1bits.CKP = 1;
  2010   001FC8  88C6               	bsf	198,4,c	;volatile
  2011   001FCA                     
  2012                           ;MCAL_Layer/I2C/hal_i2c.c: 52:             SSPADD = i2c_obj->i2c_config.i2c_slave_addres
      +                          s;
  2013   001FCA  5045               	movf	MSSP_I2C_Init@i2c_obj^0,w,c
  2014   001FCC  6ED9               	movwf	fsr2l,c
  2015   001FCE  6ADA               	clrf	fsr2h,c
  2016   001FD0  0E07               	movlw	7
  2017   001FD2  26D9               	addwf	fsr2l,f,c
  2018   001FD4  50DF               	movf	indf2,w,c
  2019   001FD6  6EC8               	movwf	200,c	;volatile
  2020   001FD8                     
  2021                           ;MCAL_Layer/I2C/hal_i2c.c: 54:             I2C_Slave_Mode_Config(i2c_obj);
  2022   001FD8  C045  F002         	movff	MSSP_I2C_Init@i2c_obj,I2C_Slave_Mode_Config@i2c_obj
  2023   001FDC  ECAC  F016         	call	_I2C_Slave_Mode_Config	;wreg free
  2024   001FE0                     l8608:
  2025                           
  2026                           ;MCAL_Layer/I2C/hal_i2c.c: 57:         MSSP_I2C_MODE_GPIO_CFG();
  2027   001FE0  EC00  F017         	call	_MSSP_I2C_MODE_GPIO_CFG	;wreg free
  2028   001FE4                     
  2029                           ;MCAL_Layer/I2C/hal_i2c.c: 59:         if (i2c_obj->i2c_config.i2c_slew_rate == 0) {
  2030   001FE4  5045               	movf	MSSP_I2C_Init@i2c_obj^0,w,c
  2031   001FE6  6ED9               	movwf	fsr2l,c
  2032   001FE8  6ADA               	clrf	fsr2h,c
  2033   001FEA  0E06               	movlw	6
  2034   001FEC  26D9               	addwf	fsr2l,f,c
  2035   001FEE  B0DF               	btfsc	indf2,0,c
  2036   001FF0  EFFC  F00F         	goto	u8401
  2037   001FF4  EFFE  F00F         	goto	u8400
  2038   001FF8                     u8401:
  2039   001FF8  EF01  F010         	goto	l8614
  2040   001FFC                     u8400:
  2041   001FFC                     
  2042                           ;MCAL_Layer/I2C/hal_i2c.c: 60:             (SSPSTATbits.SMP = 0);
  2043   001FFC  9EC7               	bcf	199,7,c	;volatile
  2044                           
  2045                           ;MCAL_Layer/I2C/hal_i2c.c: 61:         } else if (i2c_obj->i2c_config.i2c_slew_rate == 1
      +                          ) {
  2046   001FFE  EF0E  F010         	goto	l8618
  2047   002002                     l8614:
  2048   002002  5045               	movf	MSSP_I2C_Init@i2c_obj^0,w,c
  2049   002004  6ED9               	movwf	fsr2l,c
  2050   002006  6ADA               	clrf	fsr2h,c
  2051   002008  0E06               	movlw	6
  2052   00200A  26D9               	addwf	fsr2l,f,c
  2053   00200C  A0DF               	btfss	indf2,0,c
  2054   00200E  EF0B  F010         	goto	u8411
  2055   002012  EF0D  F010         	goto	u8410
  2056   002016                     u8411:
  2057   002016  EF0E  F010         	goto	l8618
  2058   00201A                     u8410:
  2059   00201A                     
  2060                           ;MCAL_Layer/I2C/hal_i2c.c: 62:             (SSPSTATbits.SMP = 1);
  2061   00201A  8EC7               	bsf	199,7,c	;volatile
  2062   00201C                     l8618:
  2063                           
  2064                           ;MCAL_Layer/I2C/hal_i2c.c: 67:         if (i2c_obj->i2c_config.i2c_smbus == 1) {
  2065   00201C  5045               	movf	MSSP_I2C_Init@i2c_obj^0,w,c
  2066   00201E  6ED9               	movwf	fsr2l,c
  2067   002020  6ADA               	clrf	fsr2h,c
  2068   002022  0E06               	movlw	6
  2069   002024  26D9               	addwf	fsr2l,f,c
  2070   002026  A2DF               	btfss	indf2,1,c
  2071   002028  EF18  F010         	goto	u8421
  2072   00202C  EF1A  F010         	goto	u8420
  2073   002030                     u8421:
  2074   002030  EF1D  F010         	goto	l8622
  2075   002034                     u8420:
  2076   002034                     
  2077                           ;MCAL_Layer/I2C/hal_i2c.c: 68:             (SSPSTATbits.CKE = 1);
  2078   002034  8CC7               	bsf	199,6,c	;volatile
  2079                           
  2080                           ;MCAL_Layer/I2C/hal_i2c.c: 69:         } else if (i2c_obj->i2c_config.i2c_smbus == 0) {
  2081   002036  EF2A  F010         	goto	l8626
  2082   00203A                     l8622:
  2083   00203A  5045               	movf	MSSP_I2C_Init@i2c_obj^0,w,c
  2084   00203C  6ED9               	movwf	fsr2l,c
  2085   00203E  6ADA               	clrf	fsr2h,c
  2086   002040  0E06               	movlw	6
  2087   002042  26D9               	addwf	fsr2l,f,c
  2088   002044  B2DF               	btfsc	indf2,1,c
  2089   002046  EF27  F010         	goto	u8431
  2090   00204A  EF29  F010         	goto	u8430
  2091   00204E                     u8431:
  2092   00204E  EF2A  F010         	goto	l8626
  2093   002052                     u8430:
  2094   002052                     
  2095                           ;MCAL_Layer/I2C/hal_i2c.c: 70:             (SSPSTATbits.CKE = 0);
  2096   002052  9CC7               	bcf	199,6,c	;volatile
  2097   002054                     l8626:
  2098                           
  2099                           ;MCAL_Layer/I2C/hal_i2c.c: 75:         MSSP_I2C_Interrupt_config(i2c_obj);
  2100   002054  C045  F002         	movff	MSSP_I2C_Init@i2c_obj,MSSP_I2C_Interrupt_config@i2c_obj
  2101   002058  EC97  F015         	call	_MSSP_I2C_Interrupt_config	;wreg free
  2102   00205C                     
  2103                           ;MCAL_Layer/I2C/hal_i2c.c: 77:         (SSPCON1bits.SSPEN = 1);
  2104   00205C  8AC6               	bsf	198,5,c	;volatile
  2105   00205E                     l1074:
  2106   00205E  0012               	return		;funcret
  2107   002060                     __end_of_MSSP_I2C_Init:
  2108                           	callstack 0
  2109                           
  2110 ;; *************** function _MSSP_I2C_MODE_GPIO_CFG *****************
  2111 ;; Defined at:
  2112 ;;		line 275 in file "MCAL_Layer/I2C/hal_i2c.c"
  2113 ;; Parameters:    Size  Location     Type
  2114 ;;		None
  2115 ;; Auto vars:     Size  Location     Type
  2116 ;;		None
  2117 ;; Return value:  Size  Location     Type
  2118 ;;                  1    wreg      void 
  2119 ;; Registers used:
  2120 ;;		status,2, status,0
  2121 ;; Tracked objects:
  2122 ;;		On entry : 0/0
  2123 ;;		On exit  : 0/0
  2124 ;;		Unchanged: 0/0
  2125 ;; Data sizes:     COMRAM   BANK0   BANK1   BANK2   BANK3   BANK4   BANK5   BANK6   BANK7   BANK8   BANK9  BANK10  BANK1
      +1  BANK12  BANK13  BANK14  BANK15
  2126 ;;      Params:         0       0       0       0       0       0       0       0       0       0       0       0       
      +0       0       0       0       0
  2127 ;;      Locals:         0       0       0       0       0       0       0       0       0       0       0       0       
      +0       0       0       0       0
  2128 ;;      Temps:          0       0       0       0       0       0       0       0       0       0       0       0       
      +0       0       0       0       0
  2129 ;;      Totals:         0       0       0       0       0       0       0       0       0       0       0       0       
      +0       0       0       0       0
  2130 ;;Total ram usage:        0 bytes
  2131 ;; Hardware stack levels used: 1
  2132 ;; Hardware stack levels required when called: 2
  2133 ;; This function calls:
  2134 ;;		Nothing
  2135 ;; This function is called by:
  2136 ;;		_MSSP_I2C_Init
  2137 ;; This function uses a non-reentrant model
  2138 ;;
  2139                           
  2140                           	psect	text9
  2141   002E00                     __ptext9:
  2142                           	callstack 0
  2143   002E00                     _MSSP_I2C_MODE_GPIO_CFG:
  2144                           	callstack 26
  2145   002E00                     
  2146                           ;MCAL_Layer/I2C/hal_i2c.c: 276:     (TRISC |= (1 << 0x3));
  2147   002E00  8694               	bsf	148,3,c	;volatile
  2148                           
  2149                           ;MCAL_Layer/I2C/hal_i2c.c: 277:     (TRISC |= (1 << 0x4));
  2150   002E02  8894               	bsf	148,4,c	;volatile
  2151   002E04  0012               	return		;funcret
  2152   002E06                     __end_of_MSSP_I2C_MODE_GPIO_CFG:
  2153                           	callstack 0
  2154                           
  2155 ;; *************** function _MSSP_I2C_Interrupt_config *****************
  2156 ;; Defined at:
  2157 ;;		line 302 in file "MCAL_Layer/I2C/hal_i2c.c"
  2158 ;; Parameters:    Size  Location     Type
  2159 ;;  i2c_obj         1    1[COMRAM] PTR const struct .
  2160 ;;		 -> mssp_i2c1(16), 
  2161 ;; Auto vars:     Size  Location     Type
  2162 ;;		None
  2163 ;; Return value:  Size  Location     Type
  2164 ;;                  1    wreg      void 
  2165 ;; Registers used:
  2166 ;;		wreg, fsr2l, fsr2h, status,2, status,0
  2167 ;; Tracked objects:
  2168 ;;		On entry : 0/0
  2169 ;;		On exit  : 0/0
  2170 ;;		Unchanged: 0/0
  2171 ;; Data sizes:     COMRAM   BANK0   BANK1   BANK2   BANK3   BANK4   BANK5   BANK6   BANK7   BANK8   BANK9  BANK10  BANK1
      +1  BANK12  BANK13  BANK14  BANK15
  2172 ;;      Params:         1       0       0       0       0       0       0       0       0       0       0       0       
      +0       0       0       0       0
  2173 ;;      Locals:         0       0       0       0       0       0       0       0       0       0       0       0       
      +0       0       0       0       0
  2174 ;;      Temps:          0       0       0       0       0       0       0       0       0       0       0       0       
      +0       0       0       0       0
  2175 ;;      Totals:         1       0       0       0       0       0       0       0       0       0       0       0       
      +0       0       0       0       0
  2176 ;;Total ram usage:        1 bytes
  2177 ;; Hardware stack levels used: 1
  2178 ;; Hardware stack levels required when called: 2
  2179 ;; This function calls:
  2180 ;;		Nothing
  2181 ;; This function is called by:
  2182 ;;		_MSSP_I2C_Init
  2183 ;; This function uses a non-reentrant model
  2184 ;;
  2185                           
  2186                           	psect	text10
  2187   002B2E                     __ptext10:
  2188                           	callstack 0
  2189   002B2E                     _MSSP_I2C_Interrupt_config:
  2190                           	callstack 26
  2191   002B2E                     
  2192                           ;MCAL_Layer/I2C/hal_i2c.c: 304:     (PIE1bits.SSPIE = 1);
  2193   002B2E  869D               	bsf	157,3,c	;volatile
  2194                           
  2195                           ;MCAL_Layer/I2C/hal_i2c.c: 305:     (PIR1bits.SSPIF = 0);
  2196   002B30  969E               	bcf	158,3,c	;volatile
  2197                           
  2198                           ;MCAL_Layer/I2C/hal_i2c.c: 306:     (PIE2bits.BCLIE = 1);
  2199   002B32  86A0               	bsf	160,3,c	;volatile
  2200                           
  2201                           ;MCAL_Layer/I2C/hal_i2c.c: 307:     (PIR2bits.BCLIF = 0);
  2202   002B34  96A1               	bcf	161,3,c	;volatile
  2203                           
  2204                           ;MCAL_Layer/I2C/hal_i2c.c: 327:     (INTCONbits.GIE = 1);
  2205   002B36  8EF2               	bsf	242,7,c	;volatile
  2206                           
  2207                           ;MCAL_Layer/I2C/hal_i2c.c: 328:     (INTCONbits.PEIE = 1);
  2208   002B38  8CF2               	bsf	242,6,c	;volatile
  2209   002B3A                     
  2210                           ;MCAL_Layer/I2C/hal_i2c.c: 330:     I2C_Default_Interrupt_Handler = i2c_obj->I2C_Default
      +                          InterruptHandler;
  2211   002B3A  5002               	movf	MSSP_I2C_Interrupt_config@i2c_obj^0,w,c
  2212   002B3C  6ED9               	movwf	fsr2l,c
  2213   002B3E  6ADA               	clrf	fsr2h,c
  2214   002B40  0E0C               	movlw	12
  2215   002B42  26D9               	addwf	fsr2l,f,c
  2216   002B44  CFDE F09C          	movff	postinc2,_I2C_Default_Interrupt_Handler
  2217   002B48  CFDD F09D          	movff	postdec2,_I2C_Default_Interrupt_Handler+1
  2218                           
  2219                           ;MCAL_Layer/I2C/hal_i2c.c: 331:     I2C_Report_Write_Collision_Interrupt_Handler = i2c_o
      +                          bj->I2C_Report_Write_Collision;
  2220   002B4C  5002               	movf	MSSP_I2C_Interrupt_config@i2c_obj^0,w,c
  2221   002B4E  6ED9               	movwf	fsr2l,c
  2222   002B50  6ADA               	clrf	fsr2h,c
  2223   002B52  0E0A               	movlw	10
  2224   002B54  26D9               	addwf	fsr2l,f,c
  2225   002B56  CFDE F09E          	movff	postinc2,_I2C_Report_Write_Collision_Interrupt_Handler
  2226   002B5A  CFDD F09F          	movff	postdec2,_I2C_Report_Write_Collision_Interrupt_Handler+1
  2227                           
  2228                           ;MCAL_Layer/I2C/hal_i2c.c: 332:     I2C_Report_Recieve_Overflow_Interrupt_Handler = i2c_
      +                          obj->I2C_Report_Recieve_Overflow;
  2229   002B5E  5002               	movf	MSSP_I2C_Interrupt_config@i2c_obj^0,w,c
  2230   002B60  6ED9               	movwf	fsr2l,c
  2231   002B62  6ADA               	clrf	fsr2h,c
  2232   002B64  0E0E               	movlw	14
  2233   002B66  26D9               	addwf	fsr2l,f,c
  2234   002B68  CFDE F09A          	movff	postinc2,_I2C_Report_Recieve_Overflow_Interrupt_Handler
  2235   002B6C  CFDD F09B          	movff	postdec2,_I2C_Report_Recieve_Overflow_Interrupt_Handler+1
  2236   002B70  0012               	return		;funcret
  2237   002B72                     __end_of_MSSP_I2C_Interrupt_config:
  2238                           	callstack 0
  2239                           
  2240 ;; *************** function _I2C_Slave_Mode_Config *****************
  2241 ;; Defined at:
  2242 ;;		line 288 in file "MCAL_Layer/I2C/hal_i2c.c"
  2243 ;; Parameters:    Size  Location     Type
  2244 ;;  i2c_obj         1    1[COMRAM] PTR const struct .
  2245 ;;		 -> mssp_i2c1(16), 
  2246 ;; Auto vars:     Size  Location     Type
  2247 ;;		None
  2248 ;; Return value:  Size  Location     Type
  2249 ;;                  1    wreg      void 
  2250 ;; Registers used:
  2251 ;;		wreg, fsr2l, fsr2h, status,2, status,0
  2252 ;; Tracked objects:
  2253 ;;		On entry : 0/0
  2254 ;;		On exit  : 0/0
  2255 ;;		Unchanged: 0/0
  2256 ;; Data sizes:     COMRAM   BANK0   BANK1   BANK2   BANK3   BANK4   BANK5   BANK6   BANK7   BANK8   BANK9  BANK10  BANK1
      +1  BANK12  BANK13  BANK14  BANK15
  2257 ;;      Params:         1       0       0       0       0       0       0       0       0       0       0       0       
      +0       0       0       0       0
  2258 ;;      Locals:         0       0       0       0       0       0       0       0       0       0       0       0       
      +0       0       0       0       0
  2259 ;;      Temps:          1       0       0       0       0       0       0       0       0       0       0       0       
      +0       0       0       0       0
  2260 ;;      Totals:         2       0       0       0       0       0       0       0       0       0       0       0       
      +0       0       0       0       0
  2261 ;;Total ram usage:        2 bytes
  2262 ;; Hardware stack levels used: 1
  2263 ;; Hardware stack levels required when called: 2
  2264 ;; This function calls:
  2265 ;;		Nothing
  2266 ;; This function is called by:
  2267 ;;		_MSSP_I2C_Init
  2268 ;; This function uses a non-reentrant model
  2269 ;;
  2270                           
  2271                           	psect	text11
  2272   002D58                     __ptext11:
  2273                           	callstack 0
  2274   002D58                     _I2C_Slave_Mode_Config:
  2275                           	callstack 26
  2276   002D58                     
  2277                           ;MCAL_Layer/I2C/hal_i2c.c: 289:     SSPCON1bits.SSPM = i2c_obj->i2c_config.i2c_mode_conf
      +                          ig;
  2278   002D58  5002               	movf	I2C_Slave_Mode_Config@i2c_obj^0,w,c
  2279   002D5A  6ED9               	movwf	fsr2l,c
  2280   002D5C  6ADA               	clrf	fsr2h,c
  2281   002D5E  0E05               	movlw	5
  2282   002D60  26D9               	addwf	fsr2l,f,c
  2283   002D62  50DF               	movf	indf2,w,c
  2284   002D64  6E03               	movwf	??_I2C_Slave_Mode_Config^0,c
  2285   002D66  50C6               	movf	198,w,c	;volatile
  2286   002D68  1803               	xorwf	??_I2C_Slave_Mode_Config^0,w,c
  2287   002D6A  0BF0               	andlw	-16
  2288   002D6C  1803               	xorwf	??_I2C_Slave_Mode_Config^0,w,c
  2289   002D6E  6EC6               	movwf	198,c	;volatile
  2290   002D70  0012               	return		;funcret
  2291   002D72                     __end_of_I2C_Slave_Mode_Config:
  2292                           	callstack 0
  2293                           
  2294 ;; *************** function _I2C_MASTER_MODE_CLOCK_CONFIG *****************
  2295 ;; Defined at:
  2296 ;;		line 263 in file "MCAL_Layer/I2C/hal_i2c.c"
  2297 ;; Parameters:    Size  Location     Type
  2298 ;;  i2c_obj         1   66[COMRAM] PTR const struct .
  2299 ;;		 -> mssp_i2c1(16), 
  2300 ;; Auto vars:     Size  Location     Type
  2301 ;;		None
  2302 ;; Return value:  Size  Location     Type
  2303 ;;                  1    wreg      void 
  2304 ;; Registers used:
  2305 ;;		wreg, fsr2l, fsr2h, status,2, status,0, cstack
  2306 ;; Tracked objects:
  2307 ;;		On entry : 0/0
  2308 ;;		On exit  : 0/0
  2309 ;;		Unchanged: 0/0
  2310 ;; Data sizes:     COMRAM   BANK0   BANK1   BANK2   BANK3   BANK4   BANK5   BANK6   BANK7   BANK8   BANK9  BANK10  BANK1
      +1  BANK12  BANK13  BANK14  BANK15
  2311 ;;      Params:         1       0       0       0       0       0       0       0       0       0       0       0       
      +0       0       0       0       0
  2312 ;;      Locals:         0       0       0       0       0       0       0       0       0       0       0       0       
      +0       0       0       0       0
  2313 ;;      Temps:          1       0       0       0       0       0       0       0       0       0       0       0       
      +0       0       0       0       0
  2314 ;;      Totals:         2       0       0       0       0       0       0       0       0       0       0       0       
      +0       0       0       0       0
  2315 ;;Total ram usage:        2 bytes
  2316 ;; Hardware stack levels used: 1
  2317 ;; Hardware stack levels required when called: 3
  2318 ;; This function calls:
  2319 ;;		___fladd
  2320 ;;		___fldiv
  2321 ;;		___fltol
  2322 ;;		___xxtofl
  2323 ;; This function is called by:
  2324 ;;		_MSSP_I2C_Init
  2325 ;; This function uses a non-reentrant model
  2326 ;;
  2327                           
  2328                           	psect	text12
  2329   00268C                     __ptext12:
  2330                           	callstack 0
  2331   00268C                     _I2C_MASTER_MODE_CLOCK_CONFIG:
  2332                           	callstack 25
  2333   00268C                     
  2334                           ;MCAL_Layer/I2C/hal_i2c.c: 264:     SSPCON1bits.SSPM = i2c_obj->i2c_config.i2c_mode_conf
      +                          ig;
  2335   00268C  5043               	movf	I2C_MASTER_MODE_CLOCK_CONFIG@i2c_obj^0,w,c
  2336   00268E  6ED9               	movwf	fsr2l,c
  2337   002690  6ADA               	clrf	fsr2h,c
  2338   002692  0E05               	movlw	5
  2339   002694  26D9               	addwf	fsr2l,f,c
  2340   002696  50DF               	movf	indf2,w,c
  2341   002698  6E44               	movwf	??_I2C_MASTER_MODE_CLOCK_CONFIG^0,c
  2342   00269A  50C6               	movf	198,w,c	;volatile
  2343   00269C  1844               	xorwf	??_I2C_MASTER_MODE_CLOCK_CONFIG^0,w,c
  2344   00269E  0BF0               	andlw	-16
  2345   0026A0  1844               	xorwf	??_I2C_MASTER_MODE_CLOCK_CONFIG^0,w,c
  2346   0026A2  6EC6               	movwf	198,c	;volatile
  2347   0026A4                     
  2348                           ;MCAL_Layer/I2C/hal_i2c.c: 265:     SSPADD = (uint8) (((16000000UL / 4.0) / i2c_obj->clo
      +                          ck) - 1);
  2349   0026A4  0E00               	movlw	0
  2350   0026A6  6E2D               	movwf	___fladd@a^0,c
  2351   0026A8  0E00               	movlw	0
  2352   0026AA  6E2E               	movwf	(___fladd@a+1)^0,c
  2353   0026AC  0E80               	movlw	128
  2354   0026AE  6E2F               	movwf	(___fladd@a+2)^0,c
  2355   0026B0  0EBF               	movlw	191
  2356   0026B2  6E30               	movwf	(___fladd@a+3)^0,c
  2357   0026B4  5043               	movf	I2C_MASTER_MODE_CLOCK_CONFIG@i2c_obj^0,w,c
  2358   0026B6  6ED9               	movwf	fsr2l,c
  2359   0026B8  6ADA               	clrf	fsr2h,c
  2360   0026BA  CFDE F002          	movff	postinc2,___xxtofl@val
  2361   0026BE  CFDE F003          	movff	postinc2,___xxtofl@val+1
  2362   0026C2  CFDE F004          	movff	postinc2,___xxtofl@val+2
  2363   0026C6  CFDE F005          	movff	postinc2,___xxtofl@val+3
  2364   0026CA  0E00               	movlw	0
  2365   0026CC  ECC1  F00E         	call	___xxtofl
  2366   0026D0  C002  F014         	movff	?___xxtofl,___fldiv@a
  2367   0026D4  C003  F015         	movff	?___xxtofl+1,___fldiv@a+1
  2368   0026D8  C004  F016         	movff	?___xxtofl+2,___fldiv@a+2
  2369   0026DC  C005  F017         	movff	?___xxtofl+3,___fldiv@a+3
  2370   0026E0  0E00               	movlw	0
  2371   0026E2  6E10               	movwf	___fldiv@b^0,c
  2372   0026E4  0E24               	movlw	36
  2373   0026E6  6E11               	movwf	(___fldiv@b+1)^0,c
  2374   0026E8  0E74               	movlw	116
  2375   0026EA  6E12               	movwf	(___fldiv@b+2)^0,c
  2376   0026EC  0E4A               	movlw	74
  2377   0026EE  6E13               	movwf	(___fldiv@b+3)^0,c
  2378   0026F0  ECF4  F00C         	call	___fldiv	;wreg free
  2379   0026F4  C010  F029         	movff	?___fldiv,___fladd@b
  2380   0026F8  C011  F02A         	movff	?___fldiv+1,___fladd@b+1
  2381   0026FC  C012  F02B         	movff	?___fldiv+2,___fladd@b+2
  2382   002700  C013  F02C         	movff	?___fldiv+3,___fladd@b+3
  2383   002704  EC94  F00A         	call	___fladd	;wreg free
  2384   002708  C029  F039         	movff	?___fladd,___fltol@f1
  2385   00270C  C02A  F03A         	movff	?___fladd+1,___fltol@f1+1
  2386   002710  C02B  F03B         	movff	?___fladd+2,___fltol@f1+2
  2387   002714  C02C  F03C         	movff	?___fladd+3,___fltol@f1+3
  2388   002718  EC41  F011         	call	___fltol	;wreg free
  2389   00271C  5039               	movf	?___fltol^0,w,c
  2390   00271E  6EC8               	movwf	200,c	;volatile
  2391   002720  0012               	return		;funcret
  2392   002722                     __end_of_I2C_MASTER_MODE_CLOCK_CONFIG:
  2393                           	callstack 0
  2394                           
  2395 ;; *************** function _EUSART_ASYNC_INIT *****************
  2396 ;; Defined at:
  2397 ;;		line 32 in file "MCAL_Layer/eusart/hal_eusart.c"
  2398 ;; Parameters:    Size  Location     Type
  2399 ;;  usart           2   78[COMRAM] PTR const struct .
  2400 ;;		 -> usart1(20), 
  2401 ;; Auto vars:     Size  Location     Type
  2402 ;;  ret             1    0        unsigned char 
  2403 ;; Return value:  Size  Location     Type
  2404 ;;                  1    wreg      unsigned char 
  2405 ;; Registers used:
  2406 ;;		wreg, fsr2l, fsr2h, status,2, status,0, cstack
  2407 ;; Tracked objects:
  2408 ;;		On entry : 0/0
  2409 ;;		On exit  : 0/0
  2410 ;;		Unchanged: 0/0
  2411 ;; Data sizes:     COMRAM   BANK0   BANK1   BANK2   BANK3   BANK4   BANK5   BANK6   BANK7   BANK8   BANK9  BANK10  BANK1
      +1  BANK12  BANK13  BANK14  BANK15
  2412 ;;      Params:         2       0       0       0       0       0       0       0       0       0       0       0       
      +0       0       0       0       0
  2413 ;;      Locals:         0       0       0       0       0       0       0       0       0       0       0       0       
      +0       0       0       0       0
  2414 ;;      Temps:          0       0       0       0       0       0       0       0       0       0       0       0       
      +0       0       0       0       0
  2415 ;;      Totals:         2       0       0       0       0       0       0       0       0       0       0       0       
      +0       0       0       0       0
  2416 ;;Total ram usage:        2 bytes
  2417 ;; Hardware stack levels used: 1
  2418 ;; Hardware stack levels required when called: 4
  2419 ;; This function calls:
  2420 ;;		_EUSART_ASYNC_RX_INIT
  2421 ;;		_EUSART_ASYNC_TX_INIT
  2422 ;;		_EUSART_Baud_Rate_Calculation
  2423 ;; This function is called by:
  2424 ;;		_application_initialize
  2425 ;; This function uses a non-reentrant model
  2426 ;;
  2427                           
  2428                           	psect	text13
  2429   002B72                     __ptext13:
  2430                           	callstack 0
  2431   002B72                     _EUSART_ASYNC_INIT:
  2432                           	callstack 25
  2433   002B72                     
  2434                           ;MCAL_Layer/eusart/hal_eusart.c: 34:     if (((void*)0) == usart) {
  2435   002B72  504F               	movf	EUSART_ASYNC_INIT@usart^0,w,c
  2436   002B74  1050               	iorwf	(EUSART_ASYNC_INIT@usart+1)^0,w,c
  2437   002B76  A4D8               	btfss	status,2,c
  2438   002B78  EFC0  F015         	goto	u5831
  2439   002B7C  EFC2  F015         	goto	u5830
  2440   002B80                     u5831:
  2441   002B80  EFC4  F015         	goto	l796
  2442   002B84                     u5830:
  2443   002B84                     
  2444                           ;MCAL_Layer/eusart/hal_eusart.c: 36:     } else {
  2445   002B84  EFDA  F015         	goto	l798
  2446   002B88                     l796:
  2447                           
  2448                           ;MCAL_Layer/eusart/hal_eusart.c: 37:         ( RCSTAbits.SPEN = 0);
  2449   002B88  9EAB               	bcf	171,7,c	;volatile
  2450   002B8A                     
  2451                           ;MCAL_Layer/eusart/hal_eusart.c: 38:         (TRISC |= (1 << 0x7));
  2452   002B8A  8E94               	bsf	148,7,c	;volatile
  2453                           
  2454                           ;MCAL_Layer/eusart/hal_eusart.c: 39:         (TRISC |= (1 << 0x6));
  2455   002B8C  8C94               	bsf	148,6,c	;volatile
  2456   002B8E                     
  2457                           ;MCAL_Layer/eusart/hal_eusart.c: 40:         EUSART_Baud_Rate_Calculation(usart);
  2458   002B8E  C04F  F043         	movff	EUSART_ASYNC_INIT@usart,EUSART_Baud_Rate_Calculation@usart
  2459   002B92  C050  F044         	movff	EUSART_ASYNC_INIT@usart+1,EUSART_Baud_Rate_Calculation@usart+1
  2460   002B96  EC1A  F008         	call	_EUSART_Baud_Rate_Calculation	;wreg free
  2461   002B9A                     
  2462                           ;MCAL_Layer/eusart/hal_eusart.c: 41:         EUSART_ASYNC_TX_INIT(usart);
  2463   002B9A  C04F  F002         	movff	EUSART_ASYNC_INIT@usart,EUSART_ASYNC_TX_INIT@usart
  2464   002B9E  C050  F003         	movff	EUSART_ASYNC_INIT@usart+1,EUSART_ASYNC_TX_INIT@usart+1
  2465   002BA2  EC3A  F012         	call	_EUSART_ASYNC_TX_INIT	;wreg free
  2466   002BA6                     
  2467                           ;MCAL_Layer/eusart/hal_eusart.c: 42:         EUSART_ASYNC_RX_INIT(usart);
  2468   002BA6  C04F  F002         	movff	EUSART_ASYNC_INIT@usart,EUSART_ASYNC_RX_INIT@usart
  2469   002BAA  C050  F003         	movff	EUSART_ASYNC_INIT@usart+1,EUSART_ASYNC_RX_INIT@usart+1
  2470   002BAE  ECC4  F011         	call	_EUSART_ASYNC_RX_INIT	;wreg free
  2471   002BB2                     
  2472                           ;MCAL_Layer/eusart/hal_eusart.c: 43:         ( RCSTAbits.SPEN = 1);
  2473   002BB2  8EAB               	bsf	171,7,c	;volatile
  2474   002BB4                     l798:
  2475   002BB4  0012               	return		;funcret
  2476   002BB6                     __end_of_EUSART_ASYNC_INIT:
  2477                           	callstack 0
  2478                           
  2479 ;; *************** function _EUSART_Baud_Rate_Calculation *****************
  2480 ;; Defined at:
  2481 ;;		line 241 in file "MCAL_Layer/eusart/hal_eusart.c"
  2482 ;; Parameters:    Size  Location     Type
  2483 ;;  usart           2   66[COMRAM] PTR const struct .
  2484 ;;		 -> usart1(20), 
  2485 ;; Auto vars:     Size  Location     Type
  2486 ;;  baudrate_tem    4   70[COMRAM] float 
  2487 ;;  ret             1    0        unsigned char 
  2488 ;; Return value:  Size  Location     Type
  2489 ;;                  1    wreg      unsigned char 
  2490 ;; Registers used:
  2491 ;;		wreg, fsr2l, fsr2h, status,2, status,0, cstack
  2492 ;; Tracked objects:
  2493 ;;		On entry : 0/0
  2494 ;;		On exit  : 0/0
  2495 ;;		Unchanged: 0/0
  2496 ;; Data sizes:     COMRAM   BANK0   BANK1   BANK2   BANK3   BANK4   BANK5   BANK6   BANK7   BANK8   BANK9  BANK10  BANK1
      +1  BANK12  BANK13  BANK14  BANK15
  2497 ;;      Params:         2       0       0       0       0       0       0       0       0       0       0       0       
      +0       0       0       0       0
  2498 ;;      Locals:         8       0       0       0       0       0       0       0       0       0       0       0       
      +0       0       0       0       0
  2499 ;;      Temps:          2       0       0       0       0       0       0       0       0       0       0       0       
      +0       0       0       0       0
  2500 ;;      Totals:        12       0       0       0       0       0       0       0       0       0       0       0       
      +0       0       0       0       0
  2501 ;;Total ram usage:       12 bytes
  2502 ;; Hardware stack levels used: 1
  2503 ;; Hardware stack levels required when called: 3
  2504 ;; This function calls:
  2505 ;;		___fladd
  2506 ;;		___fldiv
  2507 ;;		___fltol
  2508 ;;		___xxtofl
  2509 ;; This function is called by:
  2510 ;;		_EUSART_ASYNC_INIT
  2511 ;; This function uses a non-reentrant model
  2512 ;;
  2513                           
  2514                           	psect	text14
  2515   001034                     __ptext14:
  2516                           	callstack 0
  2517   001034                     _EUSART_Baud_Rate_Calculation:
  2518                           	callstack 25
  2519   001034                     
  2520                           ;MCAL_Layer/eusart/hal_eusart.c: 243:     float baudrate_temp = 0;
  2521   001034  0E00               	movlw	0
  2522   001036  6E47               	movwf	EUSART_Baud_Rate_Calculation@baudrate_temp^0,c
  2523   001038  0E00               	movlw	0
  2524   00103A  6E48               	movwf	(EUSART_Baud_Rate_Calculation@baudrate_temp+1)^0,c
  2525   00103C  0E00               	movlw	0
  2526   00103E  6E49               	movwf	(EUSART_Baud_Rate_Calculation@baudrate_temp+2)^0,c
  2527   001040  0E00               	movlw	0
  2528   001042  6E4A               	movwf	(EUSART_Baud_Rate_Calculation@baudrate_temp+3)^0,c
  2529   001044                     
  2530                           ;MCAL_Layer/eusart/hal_eusart.c: 244:     if (((void*)0) == usart) {
  2531   001044  5043               	movf	EUSART_Baud_Rate_Calculation@usart^0,w,c
  2532   001046  1044               	iorwf	(EUSART_Baud_Rate_Calculation@usart+1)^0,w,c
  2533   001048  A4D8               	btfss	status,2,c
  2534   00104A  EF29  F008         	goto	u5431
  2535   00104E  EF2B  F008         	goto	u5430
  2536   001052                     u5431:
  2537   001052  EF49  F00A         	goto	l6412
  2538   001056                     u5430:
  2539   001056                     
  2540                           ;MCAL_Layer/eusart/hal_eusart.c: 246:     } else {
  2541   001056  EF93  F00A         	goto	l863
  2542   00105A                     l855:
  2543                           
  2544                           ;MCAL_Layer/eusart/hal_eusart.c: 249:                 TXSTAbits.SYNC = 0;
  2545   00105A  98AC               	bcf	172,4,c	;volatile
  2546                           
  2547                           ;MCAL_Layer/eusart/hal_eusart.c: 250:                 TXSTAbits.BRGH = 0;
  2548   00105C  94AC               	bcf	172,2,c	;volatile
  2549                           
  2550                           ;MCAL_Layer/eusart/hal_eusart.c: 251:                 BAUDCONbits.BRG16 = 0;
  2551   00105E  96B8               	bcf	184,3,c	;volatile
  2552   001060                     
  2553                           ;MCAL_Layer/eusart/hal_eusart.c: 252:                 baudrate_temp = ((16000000UL / (fl
      +                          oat) usart->baudrate_value) / 64) - 1;
  2554   001060  C043  FFD9         	movff	EUSART_Baud_Rate_Calculation@usart,fsr2l
  2555   001064  C044  FFDA         	movff	EUSART_Baud_Rate_Calculation@usart+1,fsr2h
  2556   001068  CFDE F002          	movff	postinc2,___xxtofl@val
  2557   00106C  CFDE F003          	movff	postinc2,___xxtofl@val+1
  2558   001070  CFDE F004          	movff	postinc2,___xxtofl@val+2
  2559   001074  CFDE F005          	movff	postinc2,___xxtofl@val+3
  2560   001078  0E00               	movlw	0
  2561   00107A  ECC1  F00E         	call	___xxtofl
  2562   00107E  C002  F014         	movff	?___xxtofl,___fldiv@a
  2563   001082  C003  F015         	movff	?___xxtofl+1,___fldiv@a+1
  2564   001086  C004  F016         	movff	?___xxtofl+2,___fldiv@a+2
  2565   00108A  C005  F017         	movff	?___xxtofl+3,___fldiv@a+3
  2566   00108E  0E00               	movlw	0
  2567   001090  6E10               	movwf	___fldiv@b^0,c
  2568   001092  0E24               	movlw	36
  2569   001094  6E11               	movwf	(___fldiv@b+1)^0,c
  2570   001096  0E74               	movlw	116
  2571   001098  6E12               	movwf	(___fldiv@b+2)^0,c
  2572   00109A  0E4B               	movlw	75
  2573   00109C  6E13               	movwf	(___fldiv@b+3)^0,c
  2574   00109E  ECF4  F00C         	call	___fldiv	;wreg free
  2575   0010A2  C010  F04B         	movff	?___fldiv,_EUSART_Baud_Rate_Calculation$5445
  2576   0010A6  C011  F04C         	movff	?___fldiv+1,_EUSART_Baud_Rate_Calculation$5445+1
  2577   0010AA  C012  F04D         	movff	?___fldiv+2,_EUSART_Baud_Rate_Calculation$5445+2
  2578   0010AE  C013  F04E         	movff	?___fldiv+3,_EUSART_Baud_Rate_Calculation$5445+3
  2579   0010B2                     
  2580                           ;MCAL_Layer/eusart/hal_eusart.c: 252:                 baudrate_temp = ((16000000UL / (fl
      +                          oat) usart->baudrate_value) / 64) - 1;
  2581   0010B2  0E00               	movlw	0
  2582   0010B4  6E14               	movwf	___fldiv@a^0,c
  2583   0010B6  0E00               	movlw	0
  2584   0010B8  6E15               	movwf	(___fldiv@a+1)^0,c
  2585   0010BA  0E80               	movlw	128
  2586   0010BC  6E16               	movwf	(___fldiv@a+2)^0,c
  2587   0010BE  0E42               	movlw	66
  2588   0010C0  6E17               	movwf	(___fldiv@a+3)^0,c
  2589   0010C2  C04B  F010         	movff	_EUSART_Baud_Rate_Calculation$5445,___fldiv@b
  2590   0010C6  C04C  F011         	movff	_EUSART_Baud_Rate_Calculation$5445+1,___fldiv@b+1
  2591   0010CA  C04D  F012         	movff	_EUSART_Baud_Rate_Calculation$5445+2,___fldiv@b+2
  2592   0010CE  C04E  F013         	movff	_EUSART_Baud_Rate_Calculation$5445+3,___fldiv@b+3
  2593   0010D2  ECF4  F00C         	call	___fldiv	;wreg free
  2594   0010D6  C010  F029         	movff	?___fldiv,___fladd@b
  2595   0010DA  C011  F02A         	movff	?___fldiv+1,___fladd@b+1
  2596   0010DE  C012  F02B         	movff	?___fldiv+2,___fladd@b+2
  2597   0010E2  C013  F02C         	movff	?___fldiv+3,___fladd@b+3
  2598   0010E6  0E00               	movlw	0
  2599   0010E8  6E2D               	movwf	___fladd@a^0,c
  2600   0010EA  0E00               	movlw	0
  2601   0010EC  6E2E               	movwf	(___fladd@a+1)^0,c
  2602   0010EE  0E80               	movlw	128
  2603   0010F0  6E2F               	movwf	(___fladd@a+2)^0,c
  2604   0010F2  0EBF               	movlw	191
  2605   0010F4  6E30               	movwf	(___fladd@a+3)^0,c
  2606   0010F6  EC94  F00A         	call	___fladd	;wreg free
  2607   0010FA  C029  F047         	movff	?___fladd,EUSART_Baud_Rate_Calculation@baudrate_temp
  2608   0010FE  C02A  F048         	movff	?___fladd+1,EUSART_Baud_Rate_Calculation@baudrate_temp+1
  2609   001102  C02B  F049         	movff	?___fladd+2,EUSART_Baud_Rate_Calculation@baudrate_temp+2
  2610   001106  C02C  F04A         	movff	?___fladd+3,EUSART_Baud_Rate_Calculation@baudrate_temp+3
  2611   00110A                     l6376:
  2612                           
  2613                           ;MCAL_Layer/eusart/hal_eusart.c: 254:                 break;
  2614   00110A  EF74  F00A         	goto	l6414
  2615   00110E                     l857:
  2616                           
  2617                           ;MCAL_Layer/eusart/hal_eusart.c: 256:                 TXSTAbits.SYNC = 0;
  2618   00110E  98AC               	bcf	172,4,c	;volatile
  2619                           
  2620                           ;MCAL_Layer/eusart/hal_eusart.c: 257:                 TXSTAbits.BRGH = 1;
  2621   001110  84AC               	bsf	172,2,c	;volatile
  2622                           
  2623                           ;MCAL_Layer/eusart/hal_eusart.c: 258:                 BAUDCONbits.BRG16 = 0;
  2624   001112  96B8               	bcf	184,3,c	;volatile
  2625   001114                     
  2626                           ;MCAL_Layer/eusart/hal_eusart.c: 259:                 baudrate_temp = ((16000000UL / (fl
      +                          oat) usart->baudrate_value) / 16) - 1;
  2627   001114  C043  FFD9         	movff	EUSART_Baud_Rate_Calculation@usart,fsr2l
  2628   001118  C044  FFDA         	movff	EUSART_Baud_Rate_Calculation@usart+1,fsr2h
  2629   00111C  CFDE F002          	movff	postinc2,___xxtofl@val
  2630   001120  CFDE F003          	movff	postinc2,___xxtofl@val+1
  2631   001124  CFDE F004          	movff	postinc2,___xxtofl@val+2
  2632   001128  CFDE F005          	movff	postinc2,___xxtofl@val+3
  2633   00112C  0E00               	movlw	0
  2634   00112E  ECC1  F00E         	call	___xxtofl
  2635   001132  C002  F014         	movff	?___xxtofl,___fldiv@a
  2636   001136  C003  F015         	movff	?___xxtofl+1,___fldiv@a+1
  2637   00113A  C004  F016         	movff	?___xxtofl+2,___fldiv@a+2
  2638   00113E  C005  F017         	movff	?___xxtofl+3,___fldiv@a+3
  2639   001142  0E00               	movlw	0
  2640   001144  6E10               	movwf	___fldiv@b^0,c
  2641   001146  0E24               	movlw	36
  2642   001148  6E11               	movwf	(___fldiv@b+1)^0,c
  2643   00114A  0E74               	movlw	116
  2644   00114C  6E12               	movwf	(___fldiv@b+2)^0,c
  2645   00114E  0E4B               	movlw	75
  2646   001150  6E13               	movwf	(___fldiv@b+3)^0,c
  2647   001152  ECF4  F00C         	call	___fldiv	;wreg free
  2648   001156  C010  F04B         	movff	?___fldiv,_EUSART_Baud_Rate_Calculation$5445
  2649   00115A  C011  F04C         	movff	?___fldiv+1,_EUSART_Baud_Rate_Calculation$5445+1
  2650   00115E  C012  F04D         	movff	?___fldiv+2,_EUSART_Baud_Rate_Calculation$5445+2
  2651   001162  C013  F04E         	movff	?___fldiv+3,_EUSART_Baud_Rate_Calculation$5445+3
  2652   001166                     
  2653                           ;MCAL_Layer/eusart/hal_eusart.c: 259:                 baudrate_temp = ((16000000UL / (fl
      +                          oat) usart->baudrate_value) / 16) - 1;
  2654   001166  0E00               	movlw	0
  2655   001168  6E14               	movwf	___fldiv@a^0,c
  2656   00116A  0E00               	movlw	0
  2657   00116C  6E15               	movwf	(___fldiv@a+1)^0,c
  2658   00116E  0E80               	movlw	128
  2659   001170  6E16               	movwf	(___fldiv@a+2)^0,c
  2660   001172  0E41               	movlw	65
  2661   001174  6E17               	movwf	(___fldiv@a+3)^0,c
  2662   001176  C04B  F010         	movff	_EUSART_Baud_Rate_Calculation$5445,___fldiv@b
  2663   00117A  C04C  F011         	movff	_EUSART_Baud_Rate_Calculation$5445+1,___fldiv@b+1
  2664   00117E  C04D  F012         	movff	_EUSART_Baud_Rate_Calculation$5445+2,___fldiv@b+2
  2665   001182  C04E  F013         	movff	_EUSART_Baud_Rate_Calculation$5445+3,___fldiv@b+3
  2666   001186  ECF4  F00C         	call	___fldiv	;wreg free
  2667   00118A  C010  F029         	movff	?___fldiv,___fladd@b
  2668   00118E  C011  F02A         	movff	?___fldiv+1,___fladd@b+1
  2669   001192  C012  F02B         	movff	?___fldiv+2,___fladd@b+2
  2670   001196  C013  F02C         	movff	?___fldiv+3,___fladd@b+3
  2671   00119A  0E00               	movlw	0
  2672   00119C  6E2D               	movwf	___fladd@a^0,c
  2673   00119E  0E00               	movlw	0
  2674   0011A0  6E2E               	movwf	(___fladd@a+1)^0,c
  2675   0011A2  0E80               	movlw	128
  2676   0011A4  6E2F               	movwf	(___fladd@a+2)^0,c
  2677   0011A6  0EBF               	movlw	191
  2678   0011A8  6E30               	movwf	(___fladd@a+3)^0,c
  2679   0011AA  EC94  F00A         	call	___fladd	;wreg free
  2680   0011AE  C029  F047         	movff	?___fladd,EUSART_Baud_Rate_Calculation@baudrate_temp
  2681   0011B2  C02A  F048         	movff	?___fladd+1,EUSART_Baud_Rate_Calculation@baudrate_temp+1
  2682   0011B6  C02B  F049         	movff	?___fladd+2,EUSART_Baud_Rate_Calculation@baudrate_temp+2
  2683   0011BA  C02C  F04A         	movff	?___fladd+3,EUSART_Baud_Rate_Calculation@baudrate_temp+3
  2684   0011BE  EF85  F008         	goto	l6376
  2685   0011C2                     l858:
  2686                           
  2687                           ;MCAL_Layer/eusart/hal_eusart.c: 263:                 TXSTAbits.SYNC = 0;
  2688   0011C2  98AC               	bcf	172,4,c	;volatile
  2689                           
  2690                           ;MCAL_Layer/eusart/hal_eusart.c: 264:                 TXSTAbits.BRGH = 0;
  2691   0011C4  94AC               	bcf	172,2,c	;volatile
  2692                           
  2693                           ;MCAL_Layer/eusart/hal_eusart.c: 265:                 BAUDCONbits.BRG16 = 1;
  2694   0011C6  86B8               	bsf	184,3,c	;volatile
  2695   0011C8                     
  2696                           ;MCAL_Layer/eusart/hal_eusart.c: 266:                 baudrate_temp = ((16000000UL / (fl
      +                          oat) usart->baudrate_value) / 16) - 1;
  2697   0011C8  C043  FFD9         	movff	EUSART_Baud_Rate_Calculation@usart,fsr2l
  2698   0011CC  C044  FFDA         	movff	EUSART_Baud_Rate_Calculation@usart+1,fsr2h
  2699   0011D0  CFDE F002          	movff	postinc2,___xxtofl@val
  2700   0011D4  CFDE F003          	movff	postinc2,___xxtofl@val+1
  2701   0011D8  CFDE F004          	movff	postinc2,___xxtofl@val+2
  2702   0011DC  CFDE F005          	movff	postinc2,___xxtofl@val+3
  2703   0011E0  0E00               	movlw	0
  2704   0011E2  ECC1  F00E         	call	___xxtofl
  2705   0011E6  C002  F014         	movff	?___xxtofl,___fldiv@a
  2706   0011EA  C003  F015         	movff	?___xxtofl+1,___fldiv@a+1
  2707   0011EE  C004  F016         	movff	?___xxtofl+2,___fldiv@a+2
  2708   0011F2  C005  F017         	movff	?___xxtofl+3,___fldiv@a+3
  2709   0011F6  0E00               	movlw	0
  2710   0011F8  6E10               	movwf	___fldiv@b^0,c
  2711   0011FA  0E24               	movlw	36
  2712   0011FC  6E11               	movwf	(___fldiv@b+1)^0,c
  2713   0011FE  0E74               	movlw	116
  2714   001200  6E12               	movwf	(___fldiv@b+2)^0,c
  2715   001202  0E4B               	movlw	75
  2716   001204  6E13               	movwf	(___fldiv@b+3)^0,c
  2717   001206  ECF4  F00C         	call	___fldiv	;wreg free
  2718   00120A  C010  F04B         	movff	?___fldiv,_EUSART_Baud_Rate_Calculation$5445
  2719   00120E  C011  F04C         	movff	?___fldiv+1,_EUSART_Baud_Rate_Calculation$5445+1
  2720   001212  C012  F04D         	movff	?___fldiv+2,_EUSART_Baud_Rate_Calculation$5445+2
  2721   001216  C013  F04E         	movff	?___fldiv+3,_EUSART_Baud_Rate_Calculation$5445+3
  2722   00121A                     
  2723                           ;MCAL_Layer/eusart/hal_eusart.c: 266:                 baudrate_temp = ((16000000UL / (fl
      +                          oat) usart->baudrate_value) / 16) - 1;
  2724   00121A  0E00               	movlw	0
  2725   00121C  6E14               	movwf	___fldiv@a^0,c
  2726   00121E  0E00               	movlw	0
  2727   001220  6E15               	movwf	(___fldiv@a+1)^0,c
  2728   001222  0E80               	movlw	128
  2729   001224  6E16               	movwf	(___fldiv@a+2)^0,c
  2730   001226  0E41               	movlw	65
  2731   001228  6E17               	movwf	(___fldiv@a+3)^0,c
  2732   00122A  C04B  F010         	movff	_EUSART_Baud_Rate_Calculation$5445,___fldiv@b
  2733   00122E  C04C  F011         	movff	_EUSART_Baud_Rate_Calculation$5445+1,___fldiv@b+1
  2734   001232  C04D  F012         	movff	_EUSART_Baud_Rate_Calculation$5445+2,___fldiv@b+2
  2735   001236  C04E  F013         	movff	_EUSART_Baud_Rate_Calculation$5445+3,___fldiv@b+3
  2736   00123A  ECF4  F00C         	call	___fldiv	;wreg free
  2737   00123E  C010  F029         	movff	?___fldiv,___fladd@b
  2738   001242  C011  F02A         	movff	?___fldiv+1,___fladd@b+1
  2739   001246  C012  F02B         	movff	?___fldiv+2,___fladd@b+2
  2740   00124A  C013  F02C         	movff	?___fldiv+3,___fladd@b+3
  2741   00124E  0E00               	movlw	0
  2742   001250  6E2D               	movwf	___fladd@a^0,c
  2743   001252  0E00               	movlw	0
  2744   001254  6E2E               	movwf	(___fladd@a+1)^0,c
  2745   001256  0E80               	movlw	128
  2746   001258  6E2F               	movwf	(___fladd@a+2)^0,c
  2747   00125A  0EBF               	movlw	191
  2748   00125C  6E30               	movwf	(___fladd@a+3)^0,c
  2749   00125E  EC94  F00A         	call	___fladd	;wreg free
  2750   001262  C029  F047         	movff	?___fladd,EUSART_Baud_Rate_Calculation@baudrate_temp
  2751   001266  C02A  F048         	movff	?___fladd+1,EUSART_Baud_Rate_Calculation@baudrate_temp+1
  2752   00126A  C02B  F049         	movff	?___fladd+2,EUSART_Baud_Rate_Calculation@baudrate_temp+2
  2753   00126E  C02C  F04A         	movff	?___fladd+3,EUSART_Baud_Rate_Calculation@baudrate_temp+3
  2754   001272  EF85  F008         	goto	l6376
  2755   001276                     l859:
  2756                           
  2757                           ;MCAL_Layer/eusart/hal_eusart.c: 270:                 TXSTAbits.SYNC = 0;
  2758   001276  98AC               	bcf	172,4,c	;volatile
  2759                           
  2760                           ;MCAL_Layer/eusart/hal_eusart.c: 271:                 TXSTAbits.BRGH = 1;
  2761   001278  84AC               	bsf	172,2,c	;volatile
  2762                           
  2763                           ;MCAL_Layer/eusart/hal_eusart.c: 272:                 BAUDCONbits.BRG16 = 1;
  2764   00127A  86B8               	bsf	184,3,c	;volatile
  2765   00127C                     
  2766                           ;MCAL_Layer/eusart/hal_eusart.c: 273:                 baudrate_temp = ((16000000UL / (fl
      +                          oat) usart->baudrate_value) / 4) - 1;
  2767   00127C  C043  FFD9         	movff	EUSART_Baud_Rate_Calculation@usart,fsr2l
  2768   001280  C044  FFDA         	movff	EUSART_Baud_Rate_Calculation@usart+1,fsr2h
  2769   001284  CFDE F002          	movff	postinc2,___xxtofl@val
  2770   001288  CFDE F003          	movff	postinc2,___xxtofl@val+1
  2771   00128C  CFDE F004          	movff	postinc2,___xxtofl@val+2
  2772   001290  CFDE F005          	movff	postinc2,___xxtofl@val+3
  2773   001294  0E00               	movlw	0
  2774   001296  ECC1  F00E         	call	___xxtofl
  2775   00129A  C002  F014         	movff	?___xxtofl,___fldiv@a
  2776   00129E  C003  F015         	movff	?___xxtofl+1,___fldiv@a+1
  2777   0012A2  C004  F016         	movff	?___xxtofl+2,___fldiv@a+2
  2778   0012A6  C005  F017         	movff	?___xxtofl+3,___fldiv@a+3
  2779   0012AA  0E00               	movlw	0
  2780   0012AC  6E10               	movwf	___fldiv@b^0,c
  2781   0012AE  0E24               	movlw	36
  2782   0012B0  6E11               	movwf	(___fldiv@b+1)^0,c
  2783   0012B2  0E74               	movlw	116
  2784   0012B4  6E12               	movwf	(___fldiv@b+2)^0,c
  2785   0012B6  0E4B               	movlw	75
  2786   0012B8  6E13               	movwf	(___fldiv@b+3)^0,c
  2787   0012BA  ECF4  F00C         	call	___fldiv	;wreg free
  2788   0012BE  C010  F04B         	movff	?___fldiv,_EUSART_Baud_Rate_Calculation$5445
  2789   0012C2  C011  F04C         	movff	?___fldiv+1,_EUSART_Baud_Rate_Calculation$5445+1
  2790   0012C6  C012  F04D         	movff	?___fldiv+2,_EUSART_Baud_Rate_Calculation$5445+2
  2791   0012CA  C013  F04E         	movff	?___fldiv+3,_EUSART_Baud_Rate_Calculation$5445+3
  2792   0012CE                     
  2793                           ;MCAL_Layer/eusart/hal_eusart.c: 273:                 baudrate_temp = ((16000000UL / (fl
      +                          oat) usart->baudrate_value) / 4) - 1;
  2794   0012CE  0E00               	movlw	0
  2795   0012D0  6E14               	movwf	___fldiv@a^0,c
  2796   0012D2  0E00               	movlw	0
  2797   0012D4  6E15               	movwf	(___fldiv@a+1)^0,c
  2798   0012D6  0E80               	movlw	128
  2799   0012D8  6E16               	movwf	(___fldiv@a+2)^0,c
  2800   0012DA  0E40               	movlw	64
  2801   0012DC  6E17               	movwf	(___fldiv@a+3)^0,c
  2802   0012DE  C04B  F010         	movff	_EUSART_Baud_Rate_Calculation$5445,___fldiv@b
  2803   0012E2  C04C  F011         	movff	_EUSART_Baud_Rate_Calculation$5445+1,___fldiv@b+1
  2804   0012E6  C04D  F012         	movff	_EUSART_Baud_Rate_Calculation$5445+2,___fldiv@b+2
  2805   0012EA  C04E  F013         	movff	_EUSART_Baud_Rate_Calculation$5445+3,___fldiv@b+3
  2806   0012EE  ECF4  F00C         	call	___fldiv	;wreg free
  2807   0012F2  C010  F029         	movff	?___fldiv,___fladd@b
  2808   0012F6  C011  F02A         	movff	?___fldiv+1,___fladd@b+1
  2809   0012FA  C012  F02B         	movff	?___fldiv+2,___fladd@b+2
  2810   0012FE  C013  F02C         	movff	?___fldiv+3,___fladd@b+3
  2811   001302  0E00               	movlw	0
  2812   001304  6E2D               	movwf	___fladd@a^0,c
  2813   001306  0E00               	movlw	0
  2814   001308  6E2E               	movwf	(___fladd@a+1)^0,c
  2815   00130A  0E80               	movlw	128
  2816   00130C  6E2F               	movwf	(___fladd@a+2)^0,c
  2817   00130E  0EBF               	movlw	191
  2818   001310  6E30               	movwf	(___fladd@a+3)^0,c
  2819   001312  EC94  F00A         	call	___fladd	;wreg free
  2820   001316  C029  F047         	movff	?___fladd,EUSART_Baud_Rate_Calculation@baudrate_temp
  2821   00131A  C02A  F048         	movff	?___fladd+1,EUSART_Baud_Rate_Calculation@baudrate_temp+1
  2822   00131E  C02B  F049         	movff	?___fladd+2,EUSART_Baud_Rate_Calculation@baudrate_temp+2
  2823   001322  C02C  F04A         	movff	?___fladd+3,EUSART_Baud_Rate_Calculation@baudrate_temp+3
  2824   001326  EF85  F008         	goto	l6376
  2825   00132A                     l860:
  2826                           
  2827                           ;MCAL_Layer/eusart/hal_eusart.c: 277:                 TXSTAbits.SYNC = 1;
  2828   00132A  88AC               	bsf	172,4,c	;volatile
  2829                           
  2830                           ;MCAL_Layer/eusart/hal_eusart.c: 278:                 BAUDCONbits.BRG16 = 0;
  2831   00132C  96B8               	bcf	184,3,c	;volatile
  2832   00132E                     
  2833                           ;MCAL_Layer/eusart/hal_eusart.c: 279:                 baudrate_temp = ((16000000UL / (fl
      +                          oat) usart->baudrate_value) / 4) - 1;
  2834   00132E  C043  FFD9         	movff	EUSART_Baud_Rate_Calculation@usart,fsr2l
  2835   001332  C044  FFDA         	movff	EUSART_Baud_Rate_Calculation@usart+1,fsr2h
  2836   001336  CFDE F002          	movff	postinc2,___xxtofl@val
  2837   00133A  CFDE F003          	movff	postinc2,___xxtofl@val+1
  2838   00133E  CFDE F004          	movff	postinc2,___xxtofl@val+2
  2839   001342  CFDE F005          	movff	postinc2,___xxtofl@val+3
  2840   001346  0E00               	movlw	0
  2841   001348  ECC1  F00E         	call	___xxtofl
  2842   00134C  C002  F014         	movff	?___xxtofl,___fldiv@a
  2843   001350  C003  F015         	movff	?___xxtofl+1,___fldiv@a+1
  2844   001354  C004  F016         	movff	?___xxtofl+2,___fldiv@a+2
  2845   001358  C005  F017         	movff	?___xxtofl+3,___fldiv@a+3
  2846   00135C  0E00               	movlw	0
  2847   00135E  6E10               	movwf	___fldiv@b^0,c
  2848   001360  0E24               	movlw	36
  2849   001362  6E11               	movwf	(___fldiv@b+1)^0,c
  2850   001364  0E74               	movlw	116
  2851   001366  6E12               	movwf	(___fldiv@b+2)^0,c
  2852   001368  0E4B               	movlw	75
  2853   00136A  6E13               	movwf	(___fldiv@b+3)^0,c
  2854   00136C  ECF4  F00C         	call	___fldiv	;wreg free
  2855   001370  C010  F04B         	movff	?___fldiv,_EUSART_Baud_Rate_Calculation$5445
  2856   001374  C011  F04C         	movff	?___fldiv+1,_EUSART_Baud_Rate_Calculation$5445+1
  2857   001378  C012  F04D         	movff	?___fldiv+2,_EUSART_Baud_Rate_Calculation$5445+2
  2858   00137C  C013  F04E         	movff	?___fldiv+3,_EUSART_Baud_Rate_Calculation$5445+3
  2859   001380                     
  2860                           ;MCAL_Layer/eusart/hal_eusart.c: 279:                 baudrate_temp = ((16000000UL / (fl
      +                          oat) usart->baudrate_value) / 4) - 1;
  2861   001380  0E00               	movlw	0
  2862   001382  6E14               	movwf	___fldiv@a^0,c
  2863   001384  0E00               	movlw	0
  2864   001386  6E15               	movwf	(___fldiv@a+1)^0,c
  2865   001388  0E80               	movlw	128
  2866   00138A  6E16               	movwf	(___fldiv@a+2)^0,c
  2867   00138C  0E40               	movlw	64
  2868   00138E  6E17               	movwf	(___fldiv@a+3)^0,c
  2869   001390  C04B  F010         	movff	_EUSART_Baud_Rate_Calculation$5445,___fldiv@b
  2870   001394  C04C  F011         	movff	_EUSART_Baud_Rate_Calculation$5445+1,___fldiv@b+1
  2871   001398  C04D  F012         	movff	_EUSART_Baud_Rate_Calculation$5445+2,___fldiv@b+2
  2872   00139C  C04E  F013         	movff	_EUSART_Baud_Rate_Calculation$5445+3,___fldiv@b+3
  2873   0013A0  ECF4  F00C         	call	___fldiv	;wreg free
  2874   0013A4  C010  F029         	movff	?___fldiv,___fladd@b
  2875   0013A8  C011  F02A         	movff	?___fldiv+1,___fladd@b+1
  2876   0013AC  C012  F02B         	movff	?___fldiv+2,___fladd@b+2
  2877   0013B0  C013  F02C         	movff	?___fldiv+3,___fladd@b+3
  2878   0013B4  0E00               	movlw	0
  2879   0013B6  6E2D               	movwf	___fladd@a^0,c
  2880   0013B8  0E00               	movlw	0
  2881   0013BA  6E2E               	movwf	(___fladd@a+1)^0,c
  2882   0013BC  0E80               	movlw	128
  2883   0013BE  6E2F               	movwf	(___fladd@a+2)^0,c
  2884   0013C0  0EBF               	movlw	191
  2885   0013C2  6E30               	movwf	(___fladd@a+3)^0,c
  2886   0013C4  EC94  F00A         	call	___fladd	;wreg free
  2887   0013C8  C029  F047         	movff	?___fladd,EUSART_Baud_Rate_Calculation@baudrate_temp
  2888   0013CC  C02A  F048         	movff	?___fladd+1,EUSART_Baud_Rate_Calculation@baudrate_temp+1
  2889   0013D0  C02B  F049         	movff	?___fladd+2,EUSART_Baud_Rate_Calculation@baudrate_temp+2
  2890   0013D4  C02C  F04A         	movff	?___fladd+3,EUSART_Baud_Rate_Calculation@baudrate_temp+3
  2891   0013D8  EF85  F008         	goto	l6376
  2892   0013DC                     l861:
  2893                           
  2894                           ;MCAL_Layer/eusart/hal_eusart.c: 283:                 TXSTAbits.SYNC = 1;
  2895   0013DC  88AC               	bsf	172,4,c	;volatile
  2896                           
  2897                           ;MCAL_Layer/eusart/hal_eusart.c: 284:                 BAUDCONbits.BRG16 = 1;
  2898   0013DE  86B8               	bsf	184,3,c	;volatile
  2899   0013E0                     
  2900                           ;MCAL_Layer/eusart/hal_eusart.c: 285:                 baudrate_temp = ((16000000UL / (fl
      +                          oat) usart->baudrate_value) / 4) - 1;
  2901   0013E0  C043  FFD9         	movff	EUSART_Baud_Rate_Calculation@usart,fsr2l
  2902   0013E4  C044  FFDA         	movff	EUSART_Baud_Rate_Calculation@usart+1,fsr2h
  2903   0013E8  CFDE F002          	movff	postinc2,___xxtofl@val
  2904   0013EC  CFDE F003          	movff	postinc2,___xxtofl@val+1
  2905   0013F0  CFDE F004          	movff	postinc2,___xxtofl@val+2
  2906   0013F4  CFDE F005          	movff	postinc2,___xxtofl@val+3
  2907   0013F8  0E00               	movlw	0
  2908   0013FA  ECC1  F00E         	call	___xxtofl
  2909   0013FE  C002  F014         	movff	?___xxtofl,___fldiv@a
  2910   001402  C003  F015         	movff	?___xxtofl+1,___fldiv@a+1
  2911   001406  C004  F016         	movff	?___xxtofl+2,___fldiv@a+2
  2912   00140A  C005  F017         	movff	?___xxtofl+3,___fldiv@a+3
  2913   00140E  0E00               	movlw	0
  2914   001410  6E10               	movwf	___fldiv@b^0,c
  2915   001412  0E24               	movlw	36
  2916   001414  6E11               	movwf	(___fldiv@b+1)^0,c
  2917   001416  0E74               	movlw	116
  2918   001418  6E12               	movwf	(___fldiv@b+2)^0,c
  2919   00141A  0E4B               	movlw	75
  2920   00141C  6E13               	movwf	(___fldiv@b+3)^0,c
  2921   00141E  ECF4  F00C         	call	___fldiv	;wreg free
  2922   001422  C010  F04B         	movff	?___fldiv,_EUSART_Baud_Rate_Calculation$5445
  2923   001426  C011  F04C         	movff	?___fldiv+1,_EUSART_Baud_Rate_Calculation$5445+1
  2924   00142A  C012  F04D         	movff	?___fldiv+2,_EUSART_Baud_Rate_Calculation$5445+2
  2925   00142E  C013  F04E         	movff	?___fldiv+3,_EUSART_Baud_Rate_Calculation$5445+3
  2926   001432                     
  2927                           ;MCAL_Layer/eusart/hal_eusart.c: 285:                 baudrate_temp = ((16000000UL / (fl
      +                          oat) usart->baudrate_value) / 4) - 1;
  2928   001432  0E00               	movlw	0
  2929   001434  6E14               	movwf	___fldiv@a^0,c
  2930   001436  0E00               	movlw	0
  2931   001438  6E15               	movwf	(___fldiv@a+1)^0,c
  2932   00143A  0E80               	movlw	128
  2933   00143C  6E16               	movwf	(___fldiv@a+2)^0,c
  2934   00143E  0E40               	movlw	64
  2935   001440  6E17               	movwf	(___fldiv@a+3)^0,c
  2936   001442  C04B  F010         	movff	_EUSART_Baud_Rate_Calculation$5445,___fldiv@b
  2937   001446  C04C  F011         	movff	_EUSART_Baud_Rate_Calculation$5445+1,___fldiv@b+1
  2938   00144A  C04D  F012         	movff	_EUSART_Baud_Rate_Calculation$5445+2,___fldiv@b+2
  2939   00144E  C04E  F013         	movff	_EUSART_Baud_Rate_Calculation$5445+3,___fldiv@b+3
  2940   001452  ECF4  F00C         	call	___fldiv	;wreg free
  2941   001456  C010  F029         	movff	?___fldiv,___fladd@b
  2942   00145A  C011  F02A         	movff	?___fldiv+1,___fladd@b+1
  2943   00145E  C012  F02B         	movff	?___fldiv+2,___fladd@b+2
  2944   001462  C013  F02C         	movff	?___fldiv+3,___fladd@b+3
  2945   001466  0E00               	movlw	0
  2946   001468  6E2D               	movwf	___fladd@a^0,c
  2947   00146A  0E00               	movlw	0
  2948   00146C  6E2E               	movwf	(___fladd@a+1)^0,c
  2949   00146E  0E80               	movlw	128
  2950   001470  6E2F               	movwf	(___fladd@a+2)^0,c
  2951   001472  0EBF               	movlw	191
  2952   001474  6E30               	movwf	(___fladd@a+3)^0,c
  2953   001476  EC94  F00A         	call	___fladd	;wreg free
  2954   00147A  C029  F047         	movff	?___fladd,EUSART_Baud_Rate_Calculation@baudrate_temp
  2955   00147E  C02A  F048         	movff	?___fladd+1,EUSART_Baud_Rate_Calculation@baudrate_temp+1
  2956   001482  C02B  F049         	movff	?___fladd+2,EUSART_Baud_Rate_Calculation@baudrate_temp+2
  2957   001486  C02C  F04A         	movff	?___fladd+3,EUSART_Baud_Rate_Calculation@baudrate_temp+3
  2958   00148A  EF85  F008         	goto	l6376
  2959   00148E                     l6408:
  2960                           
  2961                           ;MCAL_Layer/eusart/hal_eusart.c: 290:                 break;
  2962   00148E  EF74  F00A         	goto	l6414
  2963   001492                     l6412:
  2964   001492  EE20 F004          	lfsr	2,4
  2965   001496  5043               	movf	EUSART_Baud_Rate_Calculation@usart^0,w,c
  2966   001498  26D9               	addwf	fsr2l,f,c
  2967   00149A  5044               	movf	(EUSART_Baud_Rate_Calculation@usart+1)^0,w,c
  2968   00149C  22DA               	addwfc	fsr2h,f,c
  2969   00149E  50DF               	movf	indf2,w,c
  2970   0014A0  6E45               	movwf	??_EUSART_Baud_Rate_Calculation^0,c
  2971   0014A2  6A46               	clrf	(??_EUSART_Baud_Rate_Calculation+1)^0,c
  2972                           
  2973                           ; Switch on 2 bytes has been partitioned into a top level switch of size 1, and 1 sub-sw
      +                          itches
  2974                           ; Switch size 1, requested type "simple"
  2975                           ; Number of cases is 1, Range of values is 0 to 0
  2976                           ; switch strategies available:
  2977                           ; Name         Instructions Cycles
  2978                           ; simple_byte            4     3 (average)
  2979                           ;	Chosen strategy is simple_byte
  2980   0014A4  5046               	movf	(??_EUSART_Baud_Rate_Calculation+1)^0,w,c
  2981   0014A6  0A00               	xorlw	0	; case 0
  2982   0014A8  B4D8               	btfsc	status,2,c
  2983   0014AA  EF59  F00A         	goto	l8796
  2984   0014AE  EF47  F00A         	goto	l6408
  2985   0014B2                     l8796:
  2986                           
  2987                           ; Switch size 1, requested type "simple"
  2988                           ; Number of cases is 6, Range of values is 0 to 5
  2989                           ; switch strategies available:
  2990                           ; Name         Instructions Cycles
  2991                           ; simple_byte           19    10 (average)
  2992                           ;	Chosen strategy is simple_byte
  2993   0014B2  5045               	movf	??_EUSART_Baud_Rate_Calculation^0,w,c
  2994   0014B4  0A00               	xorlw	0	; case 0
  2995   0014B6  B4D8               	btfsc	status,2,c
  2996   0014B8  EF2D  F008         	goto	l855
  2997   0014BC  0A01               	xorlw	1	; case 1
  2998   0014BE  B4D8               	btfsc	status,2,c
  2999   0014C0  EF87  F008         	goto	l857
  3000   0014C4  0A03               	xorlw	3	; case 2
  3001   0014C6  B4D8               	btfsc	status,2,c
  3002   0014C8  EFE1  F008         	goto	l858
  3003   0014CC  0A01               	xorlw	1	; case 3
  3004   0014CE  B4D8               	btfsc	status,2,c
  3005   0014D0  EF3B  F009         	goto	l859
  3006   0014D4  0A07               	xorlw	7	; case 4
  3007   0014D6  B4D8               	btfsc	status,2,c
  3008   0014D8  EF95  F009         	goto	l860
  3009   0014DC  0A01               	xorlw	1	; case 5
  3010   0014DE  B4D8               	btfsc	status,2,c
  3011   0014E0  EFEE  F009         	goto	l861
  3012   0014E4  EF47  F00A         	goto	l6408
  3013   0014E8                     l6414:
  3014                           
  3015                           ;MCAL_Layer/eusart/hal_eusart.c: 292:         SPBRG = (uint8) ((uint32) baudrate_temp);
  3016   0014E8  C047  F039         	movff	EUSART_Baud_Rate_Calculation@baudrate_temp,___fltol@f1
  3017   0014EC  C048  F03A         	movff	EUSART_Baud_Rate_Calculation@baudrate_temp+1,___fltol@f1+1
  3018   0014F0  C049  F03B         	movff	EUSART_Baud_Rate_Calculation@baudrate_temp+2,___fltol@f1+2
  3019   0014F4  C04A  F03C         	movff	EUSART_Baud_Rate_Calculation@baudrate_temp+3,___fltol@f1+3
  3020   0014F8  EC41  F011         	call	___fltol	;wreg free
  3021   0014FC  5039               	movf	?___fltol^0,w,c
  3022   0014FE  6EAF               	movwf	175,c	;volatile
  3023                           
  3024                           ;MCAL_Layer/eusart/hal_eusart.c: 293:         SPBRGH = (uint8) (((uint32) baudrate_temp)
      +                           >> 8);
  3025   001500  C047  F039         	movff	EUSART_Baud_Rate_Calculation@baudrate_temp,___fltol@f1
  3026   001504  C048  F03A         	movff	EUSART_Baud_Rate_Calculation@baudrate_temp+1,___fltol@f1+1
  3027   001508  C049  F03B         	movff	EUSART_Baud_Rate_Calculation@baudrate_temp+2,___fltol@f1+2
  3028   00150C  C04A  F03C         	movff	EUSART_Baud_Rate_Calculation@baudrate_temp+3,___fltol@f1+3
  3029   001510  EC41  F011         	call	___fltol	;wreg free
  3030   001514  C03A  F039         	movff	?___fltol+1,?___fltol
  3031   001518  C03B  F03A         	movff	?___fltol+2,?___fltol+1
  3032   00151C  C03C  F03B         	movff	?___fltol+3,?___fltol+2
  3033   001520  6A3C               	clrf	(?___fltol+3)^0,c
  3034   001522  5039               	movf	?___fltol^0,w,c
  3035   001524  6EB0               	movwf	176,c	;volatile
  3036   001526                     l863:
  3037   001526  0012               	return		;funcret
  3038   001528                     __end_of_EUSART_Baud_Rate_Calculation:
  3039                           	callstack 0
  3040                           
  3041 ;; *************** function ___xxtofl *****************
  3042 ;; Defined at:
  3043 ;;		line 10 in file "C:\Program Files\Microchip\xc8\v2.46\pic\sources\c99\common\xxtofl.c"
  3044 ;; Parameters:    Size  Location     Type
  3045 ;;  sign            1    wreg     unsigned char 
  3046 ;;  val             4    1[COMRAM] long 
  3047 ;; Auto vars:     Size  Location     Type
  3048 ;;  sign            1    9[COMRAM] unsigned char 
  3049 ;;  arg             4   11[COMRAM] unsigned long 
  3050 ;;  exp             1   10[COMRAM] unsigned char 
  3051 ;; Return value:  Size  Location     Type
  3052 ;;                  4    1[COMRAM] unsigned char 
  3053 ;; Registers used:
  3054 ;;		wreg, status,2, status,0
  3055 ;; Tracked objects:
  3056 ;;		On entry : 0/0
  3057 ;;		On exit  : 0/0
  3058 ;;		Unchanged: 0/0
  3059 ;; Data sizes:     COMRAM   BANK0   BANK1   BANK2   BANK3   BANK4   BANK5   BANK6   BANK7   BANK8   BANK9  BANK10  BANK1
      +1  BANK12  BANK13  BANK14  BANK15
  3060 ;;      Params:         4       0       0       0       0       0       0       0       0       0       0       0       
      +0       0       0       0       0
  3061 ;;      Locals:         6       0       0       0       0       0       0       0       0       0       0       0       
      +0       0       0       0       0
  3062 ;;      Temps:          4       0       0       0       0       0       0       0       0       0       0       0       
      +0       0       0       0       0
  3063 ;;      Totals:        14       0       0       0       0       0       0       0       0       0       0       0       
      +0       0       0       0       0
  3064 ;;Total ram usage:       14 bytes
  3065 ;; Hardware stack levels used: 1
  3066 ;; Hardware stack levels required when called: 2
  3067 ;; This function calls:
  3068 ;;		Nothing
  3069 ;; This function is called by:
  3070 ;;		_EUSART_Baud_Rate_Calculation
  3071 ;;		_I2C_MASTER_MODE_CLOCK_CONFIG
  3072 ;; This function uses a non-reentrant model
  3073 ;;
  3074                           
  3075                           	psect	text15
  3076   001D82                     __ptext15:
  3077                           	callstack 0
  3078   001D82                     ___xxtofl:
  3079                           	callstack 25
  3080                           
  3081                           ;incstack = 0
  3082                           ;___xxtofl@sign stored from wreg
  3083   001D82  6E0A               	movwf	___xxtofl@sign^0,c
  3084   001D84  500A               	movf	___xxtofl@sign^0,w,c
  3085   001D86  B4D8               	btfsc	status,2,c
  3086   001D88  EFC8  F00E         	goto	u5251
  3087   001D8C  EFCA  F00E         	goto	u5250
  3088   001D90                     u5251:
  3089   001D90  EFEC  F00E         	goto	l2495
  3090   001D94                     u5250:
  3091   001D94  BE05               	btfsc	(___xxtofl@val+3)^0,7,c
  3092   001D96  EFD1  F00E         	goto	u5260
  3093   001D9A  EFCF  F00E         	goto	u5261
  3094   001D9E                     u5261:
  3095   001D9E  EFEC  F00E         	goto	l2495
  3096   001DA2                     u5260:
  3097   001DA2  C002  F006         	movff	___xxtofl@val,??___xxtofl
  3098   001DA6  C003  F007         	movff	___xxtofl@val+1,??___xxtofl+1
  3099   001DAA  C004  F008         	movff	___xxtofl@val+2,??___xxtofl+2
  3100   001DAE  C005  F009         	movff	___xxtofl@val+3,??___xxtofl+3
  3101   001DB2  1E06               	comf	??___xxtofl^0,f,c
  3102   001DB4  1E07               	comf	(??___xxtofl+1)^0,f,c
  3103   001DB6  1E08               	comf	(??___xxtofl+2)^0,f,c
  3104   001DB8  1E09               	comf	(??___xxtofl+3)^0,f,c
  3105   001DBA  2A06               	incf	??___xxtofl^0,f,c
  3106   001DBC  0E00               	movlw	0
  3107   001DBE  2207               	addwfc	(??___xxtofl+1)^0,f,c
  3108   001DC0  2208               	addwfc	(??___xxtofl+2)^0,f,c
  3109   001DC2  2209               	addwfc	(??___xxtofl+3)^0,f,c
  3110   001DC4  C006  F00C         	movff	??___xxtofl,___xxtofl@arg
  3111   001DC8  C007  F00D         	movff	??___xxtofl+1,___xxtofl@arg+1
  3112   001DCC  C008  F00E         	movff	??___xxtofl+2,___xxtofl@arg+2
  3113   001DD0  C009  F00F         	movff	??___xxtofl+3,___xxtofl@arg+3
  3114   001DD4  EFF4  F00E         	goto	l6270
  3115   001DD8                     l2495:
  3116   001DD8  C002  F00C         	movff	___xxtofl@val,___xxtofl@arg
  3117   001DDC  C003  F00D         	movff	___xxtofl@val+1,___xxtofl@arg+1
  3118   001DE0  C004  F00E         	movff	___xxtofl@val+2,___xxtofl@arg+2
  3119   001DE4  C005  F00F         	movff	___xxtofl@val+3,___xxtofl@arg+3
  3120   001DE8                     l6270:
  3121   001DE8  5002               	movf	___xxtofl@val^0,w,c
  3122   001DEA  1003               	iorwf	(___xxtofl@val+1)^0,w,c
  3123   001DEC  1004               	iorwf	(___xxtofl@val+2)^0,w,c
  3124   001DEE  1005               	iorwf	(___xxtofl@val+3)^0,w,c
  3125   001DF0  A4D8               	btfss	status,2,c
  3126   001DF2  EFFD  F00E         	goto	u5271
  3127   001DF6  EFFF  F00E         	goto	u5270
  3128   001DFA                     u5271:
  3129   001DFA  EF09  F00F         	goto	l6276
  3130   001DFE                     u5270:
  3131   001DFE  0E00               	movlw	0
  3132   001E00  6E02               	movwf	?___xxtofl^0,c
  3133   001E02  0E00               	movlw	0
  3134   001E04  6E03               	movwf	(?___xxtofl+1)^0,c
  3135   001E06  0E00               	movlw	0
  3136   001E08  6E04               	movwf	(?___xxtofl+2)^0,c
  3137   001E0A  0E00               	movlw	0
  3138   001E0C  6E05               	movwf	(?___xxtofl+3)^0,c
  3139   001E0E  EF9A  F00F         	goto	l2498
  3140   001E12                     l6276:
  3141   001E12  0E96               	movlw	150
  3142   001E14  6E0B               	movwf	___xxtofl@exp^0,c
  3143   001E16  EF13  F00F         	goto	l6280
  3144   001E1A                     l6278:
  3145   001E1A  2A0B               	incf	___xxtofl@exp^0,f,c
  3146   001E1C  90D8               	bcf	status,0,c
  3147   001E1E  320F               	rrcf	(___xxtofl@arg+3)^0,f,c
  3148   001E20  320E               	rrcf	(___xxtofl@arg+2)^0,f,c
  3149   001E22  320D               	rrcf	(___xxtofl@arg+1)^0,f,c
  3150   001E24  320C               	rrcf	___xxtofl@arg^0,f,c
  3151   001E26                     l6280:
  3152   001E26  0E00               	movlw	0
  3153   001E28  140C               	andwf	___xxtofl@arg^0,w,c
  3154   001E2A  6E06               	movwf	??___xxtofl^0,c
  3155   001E2C  0E00               	movlw	0
  3156   001E2E  140D               	andwf	(___xxtofl@arg+1)^0,w,c
  3157   001E30  6E07               	movwf	(??___xxtofl+1)^0,c
  3158   001E32  0E00               	movlw	0
  3159   001E34  140E               	andwf	(___xxtofl@arg+2)^0,w,c
  3160   001E36  6E08               	movwf	(??___xxtofl+2)^0,c
  3161   001E38  0EFE               	movlw	254
  3162   001E3A  140F               	andwf	(___xxtofl@arg+3)^0,w,c
  3163   001E3C  6E09               	movwf	(??___xxtofl+3)^0,c
  3164   001E3E  5006               	movf	??___xxtofl^0,w,c
  3165   001E40  1007               	iorwf	(??___xxtofl+1)^0,w,c
  3166   001E42  1008               	iorwf	(??___xxtofl+2)^0,w,c
  3167   001E44  1009               	iorwf	(??___xxtofl+3)^0,w,c
  3168   001E46  A4D8               	btfss	status,2,c
  3169   001E48  EF28  F00F         	goto	u5281
  3170   001E4C  EF2A  F00F         	goto	u5280
  3171   001E50                     u5281:
  3172   001E50  EF0D  F00F         	goto	l6278
  3173   001E54                     u5280:
  3174   001E54  EF38  F00F         	goto	l2502
  3175   001E58                     l6282:
  3176   001E58  2A0B               	incf	___xxtofl@exp^0,f,c
  3177   001E5A  0E01               	movlw	1
  3178   001E5C  260C               	addwf	___xxtofl@arg^0,f,c
  3179   001E5E  0E00               	movlw	0
  3180   001E60  220D               	addwfc	(___xxtofl@arg+1)^0,f,c
  3181   001E62  220E               	addwfc	(___xxtofl@arg+2)^0,f,c
  3182   001E64  220F               	addwfc	(___xxtofl@arg+3)^0,f,c
  3183   001E66  90D8               	bcf	status,0,c
  3184   001E68  320F               	rrcf	(___xxtofl@arg+3)^0,f,c
  3185   001E6A  320E               	rrcf	(___xxtofl@arg+2)^0,f,c
  3186   001E6C  320D               	rrcf	(___xxtofl@arg+1)^0,f,c
  3187   001E6E  320C               	rrcf	___xxtofl@arg^0,f,c
  3188   001E70                     l2502:
  3189   001E70  0E00               	movlw	0
  3190   001E72  140C               	andwf	___xxtofl@arg^0,w,c
  3191   001E74  6E06               	movwf	??___xxtofl^0,c
  3192   001E76  0E00               	movlw	0
  3193   001E78  140D               	andwf	(___xxtofl@arg+1)^0,w,c
  3194   001E7A  6E07               	movwf	(??___xxtofl+1)^0,c
  3195   001E7C  0E00               	movlw	0
  3196   001E7E  140E               	andwf	(___xxtofl@arg+2)^0,w,c
  3197   001E80  6E08               	movwf	(??___xxtofl+2)^0,c
  3198   001E82  0EFF               	movlw	255
  3199   001E84  140F               	andwf	(___xxtofl@arg+3)^0,w,c
  3200   001E86  6E09               	movwf	(??___xxtofl+3)^0,c
  3201   001E88  5006               	movf	??___xxtofl^0,w,c
  3202   001E8A  1007               	iorwf	(??___xxtofl+1)^0,w,c
  3203   001E8C  1008               	iorwf	(??___xxtofl+2)^0,w,c
  3204   001E8E  1009               	iorwf	(??___xxtofl+3)^0,w,c
  3205   001E90  A4D8               	btfss	status,2,c
  3206   001E92  EF4D  F00F         	goto	u5291
  3207   001E96  EF4F  F00F         	goto	u5290
  3208   001E9A                     u5291:
  3209   001E9A  EF2C  F00F         	goto	l6282
  3210   001E9E                     u5290:
  3211   001E9E  EF57  F00F         	goto	l6290
  3212   001EA2                     l6288:
  3213   001EA2  060B               	decf	___xxtofl@exp^0,f,c
  3214   001EA4  90D8               	bcf	status,0,c
  3215   001EA6  360C               	rlcf	___xxtofl@arg^0,f,c
  3216   001EA8  360D               	rlcf	(___xxtofl@arg+1)^0,f,c
  3217   001EAA  360E               	rlcf	(___xxtofl@arg+2)^0,f,c
  3218   001EAC  360F               	rlcf	(___xxtofl@arg+3)^0,f,c
  3219   001EAE                     l6290:
  3220   001EAE  BE0E               	btfsc	(___xxtofl@arg+2)^0,7,c
  3221   001EB0  EF5C  F00F         	goto	u5301
  3222   001EB4  EF5E  F00F         	goto	u5300
  3223   001EB8                     u5301:
  3224   001EB8  EF66  F00F         	goto	l2509
  3225   001EBC                     u5300:
  3226   001EBC  0E02               	movlw	2
  3227   001EBE  600B               	cpfslt	___xxtofl@exp^0,c
  3228   001EC0  EF64  F00F         	goto	u5311
  3229   001EC4  EF66  F00F         	goto	u5310
  3230   001EC8                     u5311:
  3231   001EC8  EF51  F00F         	goto	l6288
  3232   001ECC                     u5310:
  3233   001ECC                     l2509:
  3234   001ECC  B00B               	btfsc	___xxtofl@exp^0,0,c
  3235   001ECE  EF6B  F00F         	goto	u5321
  3236   001ED2  EF6D  F00F         	goto	u5320
  3237   001ED6                     u5321:
  3238   001ED6  EF6E  F00F         	goto	l6296
  3239   001EDA                     u5320:
  3240   001EDA  9E0E               	bcf	(___xxtofl@arg+2)^0,7,c
  3241   001EDC                     l6296:
  3242   001EDC  90D8               	bcf	status,0,c
  3243   001EDE  320B               	rrcf	___xxtofl@exp^0,f,c
  3244   001EE0  C00B  F006         	movff	___xxtofl@exp,??___xxtofl
  3245   001EE4  6A07               	clrf	(??___xxtofl+1)^0,c
  3246   001EE6  6A08               	clrf	(??___xxtofl+2)^0,c
  3247   001EE8  6A09               	clrf	(??___xxtofl+3)^0,c
  3248   001EEA  C006  F009         	movff	??___xxtofl,??___xxtofl+3
  3249   001EEE  6A08               	clrf	(??___xxtofl+2)^0,c
  3250   001EF0  6A07               	clrf	(??___xxtofl+1)^0,c
  3251   001EF2  6A06               	clrf	??___xxtofl^0,c
  3252   001EF4  5006               	movf	??___xxtofl^0,w,c
  3253   001EF6  120C               	iorwf	___xxtofl@arg^0,f,c
  3254   001EF8  5007               	movf	(??___xxtofl+1)^0,w,c
  3255   001EFA  120D               	iorwf	(___xxtofl@arg+1)^0,f,c
  3256   001EFC  5008               	movf	(??___xxtofl+2)^0,w,c
  3257   001EFE  120E               	iorwf	(___xxtofl@arg+2)^0,f,c
  3258   001F00  5009               	movf	(??___xxtofl+3)^0,w,c
  3259   001F02  120F               	iorwf	(___xxtofl@arg+3)^0,f,c
  3260   001F04  500A               	movf	___xxtofl@sign^0,w,c
  3261   001F06  B4D8               	btfsc	status,2,c
  3262   001F08  EF88  F00F         	goto	u5331
  3263   001F0C  EF8A  F00F         	goto	u5330
  3264   001F10                     u5331:
  3265   001F10  EF92  F00F         	goto	l6306
  3266   001F14                     u5330:
  3267   001F14  BE05               	btfsc	(___xxtofl@val+3)^0,7,c
  3268   001F16  EF91  F00F         	goto	u5340
  3269   001F1A  EF8F  F00F         	goto	u5341
  3270   001F1E                     u5341:
  3271   001F1E  EF92  F00F         	goto	l6306
  3272   001F22                     u5340:
  3273   001F22  8E0F               	bsf	(___xxtofl@arg+3)^0,7,c
  3274   001F24                     l6306:
  3275   001F24  C00C  F002         	movff	___xxtofl@arg,?___xxtofl
  3276   001F28  C00D  F003         	movff	___xxtofl@arg+1,?___xxtofl+1
  3277   001F2C  C00E  F004         	movff	___xxtofl@arg+2,?___xxtofl+2
  3278   001F30  C00F  F005         	movff	___xxtofl@arg+3,?___xxtofl+3
  3279   001F34                     l2498:
  3280   001F34  0012               	return		;funcret
  3281   001F36                     __end_of___xxtofl:
  3282                           	callstack 0
  3283                           
  3284 ;; *************** function ___fltol *****************
  3285 ;; Defined at:
  3286 ;;		line 43 in file "C:\Program Files\Microchip\xc8\v2.46\pic\sources\c99\common\fltol.c"
  3287 ;; Parameters:    Size  Location     Type
  3288 ;;  f1              4   56[COMRAM] unsigned char 
  3289 ;; Auto vars:     Size  Location     Type
  3290 ;;  exp1            1   65[COMRAM] unsigned char 
  3291 ;;  sign1           1   64[COMRAM] unsigned char 
  3292 ;; Return value:  Size  Location     Type
  3293 ;;                  4   56[COMRAM] long 
  3294 ;; Registers used:
  3295 ;;		wreg, status,2, status,0
  3296 ;; Tracked objects:
  3297 ;;		On entry : 0/0
  3298 ;;		On exit  : 0/0
  3299 ;;		Unchanged: 0/0
  3300 ;; Data sizes:     COMRAM   BANK0   BANK1   BANK2   BANK3   BANK4   BANK5   BANK6   BANK7   BANK8   BANK9  BANK10  BANK1
      +1  BANK12  BANK13  BANK14  BANK15
  3301 ;;      Params:         4       0       0       0       0       0       0       0       0       0       0       0       
      +0       0       0       0       0
  3302 ;;      Locals:         2       0       0       0       0       0       0       0       0       0       0       0       
      +0       0       0       0       0
  3303 ;;      Temps:          4       0       0       0       0       0       0       0       0       0       0       0       
      +0       0       0       0       0
  3304 ;;      Totals:        10       0       0       0       0       0       0       0       0       0       0       0       
      +0       0       0       0       0
  3305 ;;Total ram usage:       10 bytes
  3306 ;; Hardware stack levels used: 1
  3307 ;; Hardware stack levels required when called: 2
  3308 ;; This function calls:
  3309 ;;		Nothing
  3310 ;; This function is called by:
  3311 ;;		_EUSART_Baud_Rate_Calculation
  3312 ;;		_I2C_MASTER_MODE_CLOCK_CONFIG
  3313 ;; This function uses a non-reentrant model
  3314 ;;
  3315                           
  3316                           	psect	text16
  3317   002282                     __ptext16:
  3318                           	callstack 0
  3319   002282                     ___fltol:
  3320                           	callstack 25
  3321   002282  343B               	rlcf	(___fltol@f1+2)^0,w,c
  3322   002284  343C               	rlcf	(___fltol@f1+3)^0,w,c
  3323   002286  6E42               	movwf	___fltol@exp1^0,c
  3324   002288  5042               	movf	___fltol@exp1^0,w,c
  3325   00228A  A4D8               	btfss	status,2,c
  3326   00228C  EF4A  F011         	goto	u5181
  3327   002290  EF4C  F011         	goto	u5180
  3328   002294                     u5181:
  3329   002294  EF56  F011         	goto	l6226
  3330   002298                     u5180:
  3331   002298                     l6222:
  3332   002298  0E00               	movlw	0
  3333   00229A  6E39               	movwf	?___fltol^0,c
  3334   00229C  0E00               	movlw	0
  3335   00229E  6E3A               	movwf	(?___fltol+1)^0,c
  3336   0022A0  0E00               	movlw	0
  3337   0022A2  6E3B               	movwf	(?___fltol+2)^0,c
  3338   0022A4  0E00               	movlw	0
  3339   0022A6  6E3C               	movwf	(?___fltol+3)^0,c
  3340   0022A8  EFC3  F011         	goto	l2137
  3341   0022AC                     l6226:
  3342   0022AC  C039  F03D         	movff	___fltol@f1,??___fltol
  3343   0022B0  C03A  F03E         	movff	___fltol@f1+1,??___fltol+1
  3344   0022B4  C03B  F03F         	movff	___fltol@f1+2,??___fltol+2
  3345   0022B8  C03C  F040         	movff	___fltol@f1+3,??___fltol+3
  3346   0022BC  0E20               	movlw	32
  3347   0022BE  EF66  F011         	goto	u5190
  3348   0022C2                     u5195:
  3349   0022C2  90D8               	bcf	status,0,c
  3350   0022C4  3240               	rrcf	(??___fltol+3)^0,f,c
  3351   0022C6  323F               	rrcf	(??___fltol+2)^0,f,c
  3352   0022C8  323E               	rrcf	(??___fltol+1)^0,f,c
  3353   0022CA  323D               	rrcf	??___fltol^0,f,c
  3354   0022CC                     u5190:
  3355   0022CC  2EE8               	decfsz	wreg,f,c
  3356   0022CE  EF61  F011         	goto	u5195
  3357   0022D2  503D               	movf	??___fltol^0,w,c
  3358   0022D4  6E41               	movwf	___fltol@sign1^0,c
  3359   0022D6  8E3B               	bsf	(___fltol@f1+2)^0,7,c
  3360   0022D8  0EFF               	movlw	255
  3361   0022DA  1639               	andwf	___fltol@f1^0,f,c
  3362   0022DC  0EFF               	movlw	255
  3363   0022DE  163A               	andwf	(___fltol@f1+1)^0,f,c
  3364   0022E0  0EFF               	movlw	255
  3365   0022E2  163B               	andwf	(___fltol@f1+2)^0,f,c
  3366   0022E4  0E00               	movlw	0
  3367   0022E6  163C               	andwf	(___fltol@f1+3)^0,f,c
  3368   0022E8  0E96               	movlw	150
  3369   0022EA  5E42               	subwf	___fltol@exp1^0,f,c
  3370   0022EC  BE42               	btfsc	___fltol@exp1^0,7,c
  3371   0022EE  EF7D  F011         	goto	u5200
  3372   0022F2  EF7B  F011         	goto	u5201
  3373   0022F6                     u5201:
  3374   0022F6  EF93  F011         	goto	l6246
  3375   0022FA                     u5200:
  3376   0022FA  5042               	movf	___fltol@exp1^0,w,c
  3377   0022FC  0A80               	xorlw	128
  3378   0022FE  0F97               	addlw	151
  3379   002300  B0D8               	btfsc	status,0,c
  3380   002302  EF85  F011         	goto	u5211
  3381   002306  EF87  F011         	goto	u5210
  3382   00230A                     u5211:
  3383   00230A  EF89  F011         	goto	l6242
  3384   00230E                     u5210:
  3385   00230E  EF4C  F011         	goto	l6222
  3386   002312                     l6242:
  3387   002312  90D8               	bcf	status,0,c
  3388   002314  323C               	rrcf	(___fltol@f1+3)^0,f,c
  3389   002316  323B               	rrcf	(___fltol@f1+2)^0,f,c
  3390   002318  323A               	rrcf	(___fltol@f1+1)^0,f,c
  3391   00231A  3239               	rrcf	___fltol@f1^0,f,c
  3392   00231C  3E42               	incfsz	___fltol@exp1^0,f,c
  3393   00231E  EF89  F011         	goto	l6242
  3394   002322  EFAB  F011         	goto	l6256
  3395   002326                     l6246:
  3396   002326  0E1F               	movlw	31
  3397   002328  6442               	cpfsgt	___fltol@exp1^0,c
  3398   00232A  EF99  F011         	goto	u5221
  3399   00232E  EF9B  F011         	goto	u5220
  3400   002332                     u5221:
  3401   002332  EFA3  F011         	goto	l6254
  3402   002336                     u5220:
  3403   002336  EF4C  F011         	goto	l6222
  3404   00233A                     l6252:
  3405   00233A  90D8               	bcf	status,0,c
  3406   00233C  3639               	rlcf	___fltol@f1^0,f,c
  3407   00233E  363A               	rlcf	(___fltol@f1+1)^0,f,c
  3408   002340  363B               	rlcf	(___fltol@f1+2)^0,f,c
  3409   002342  363C               	rlcf	(___fltol@f1+3)^0,f,c
  3410   002344  0642               	decf	___fltol@exp1^0,f,c
  3411   002346                     l6254:
  3412   002346  5042               	movf	___fltol@exp1^0,w,c
  3413   002348  A4D8               	btfss	status,2,c
  3414   00234A  EFA9  F011         	goto	u5231
  3415   00234E  EFAB  F011         	goto	u5230
  3416   002352                     u5231:
  3417   002352  EF9D  F011         	goto	l6252
  3418   002356                     u5230:
  3419   002356                     l6256:
  3420   002356  5041               	movf	___fltol@sign1^0,w,c
  3421   002358  B4D8               	btfsc	status,2,c
  3422   00235A  EFB1  F011         	goto	u5241
  3423   00235E  EFB3  F011         	goto	u5240
  3424   002362                     u5241:
  3425   002362  EFBB  F011         	goto	l6260
  3426   002366                     u5240:
  3427   002366  1E3C               	comf	(___fltol@f1+3)^0,f,c
  3428   002368  1E3B               	comf	(___fltol@f1+2)^0,f,c
  3429   00236A  1E3A               	comf	(___fltol@f1+1)^0,f,c
  3430   00236C  6C39               	negf	___fltol@f1^0,c
  3431   00236E  0E00               	movlw	0
  3432   002370  223A               	addwfc	(___fltol@f1+1)^0,f,c
  3433   002372  223B               	addwfc	(___fltol@f1+2)^0,f,c
  3434   002374  223C               	addwfc	(___fltol@f1+3)^0,f,c
  3435   002376                     l6260:
  3436   002376  C039  F039         	movff	___fltol@f1,?___fltol
  3437   00237A  C03A  F03A         	movff	___fltol@f1+1,?___fltol+1
  3438   00237E  C03B  F03B         	movff	___fltol@f1+2,?___fltol+2
  3439   002382  C03C  F03C         	movff	___fltol@f1+3,?___fltol+3
  3440   002386                     l2137:
  3441   002386  0012               	return		;funcret
  3442   002388                     __end_of___fltol:
  3443                           	callstack 0
  3444                           
  3445 ;; *************** function ___fldiv *****************
  3446 ;; Defined at:
  3447 ;;		line 11 in file "C:\Program Files\Microchip\xc8\v2.46\pic\sources\c99\common\sprcdiv.c"
  3448 ;; Parameters:    Size  Location     Type
  3449 ;;  b               4   15[COMRAM] long 
  3450 ;;  a               4   19[COMRAM] long 
  3451 ;; Auto vars:     Size  Location     Type
  3452 ;;  grs             4   34[COMRAM] unsigned long 
  3453 ;;  rem             4   27[COMRAM] unsigned long 
  3454 ;;  new_exp         2   32[COMRAM] short 
  3455 ;;  aexp            1   39[COMRAM] unsigned char 
  3456 ;;  bexp            1   38[COMRAM] unsigned char 
  3457 ;;  sign            1   31[COMRAM] unsigned char 
  3458 ;; Return value:  Size  Location     Type
  3459 ;;                  4   15[COMRAM] unsigned char 
  3460 ;; Registers used:
  3461 ;;		wreg, status,2, status,0
  3462 ;; Tracked objects:
  3463 ;;		On entry : 0/0
  3464 ;;		On exit  : 0/0
  3465 ;;		Unchanged: 0/0
  3466 ;; Data sizes:     COMRAM   BANK0   BANK1   BANK2   BANK3   BANK4   BANK5   BANK6   BANK7   BANK8   BANK9  BANK10  BANK1
      +1  BANK12  BANK13  BANK14  BANK15
  3467 ;;      Params:         8       0       0       0       0       0       0       0       0       0       0       0       
      +0       0       0       0       0
  3468 ;;      Locals:        13       0       0       0       0       0       0       0       0       0       0       0       
      +0       0       0       0       0
  3469 ;;      Temps:          4       0       0       0       0       0       0       0       0       0       0       0       
      +0       0       0       0       0
  3470 ;;      Totals:        25       0       0       0       0       0       0       0       0       0       0       0       
      +0       0       0       0       0
  3471 ;;Total ram usage:       25 bytes
  3472 ;; Hardware stack levels used: 1
  3473 ;; Hardware stack levels required when called: 2
  3474 ;; This function calls:
  3475 ;;		Nothing
  3476 ;; This function is called by:
  3477 ;;		_EUSART_Baud_Rate_Calculation
  3478 ;;		_I2C_MASTER_MODE_CLOCK_CONFIG
  3479 ;; This function uses a non-reentrant model
  3480 ;;
  3481                           
  3482                           	psect	text17
  3483   0019E8                     __ptext17:
  3484                           	callstack 0
  3485   0019E8                     ___fldiv:
  3486                           	callstack 25
  3487   0019E8  5013               	movf	(___fldiv@b+3)^0,w,c
  3488   0019EA  0B80               	andlw	128
  3489   0019EC  6E20               	movwf	___fldiv@sign^0,c
  3490   0019EE  5013               	movf	(___fldiv@b+3)^0,w,c
  3491   0019F0  2413               	addwf	(___fldiv@b+3)^0,w,c
  3492   0019F2  6E27               	movwf	___fldiv@bexp^0,c
  3493   0019F4  AE12               	btfss	(___fldiv@b+2)^0,7,c
  3494   0019F6  EFFF  F00C         	goto	u4951
  3495   0019FA  EF01  F00D         	goto	u4950
  3496   0019FE                     u4951:
  3497   0019FE  EF02  F00D         	goto	l6088
  3498   001A02                     u4950:
  3499   001A02  8027               	bsf	___fldiv@bexp^0,0,c
  3500   001A04                     l6088:
  3501   001A04  5027               	movf	___fldiv@bexp^0,w,c
  3502   001A06  B4D8               	btfsc	status,2,c
  3503   001A08  EF08  F00D         	goto	u4961
  3504   001A0C  EF0A  F00D         	goto	u4960
  3505   001A10                     u4961:
  3506   001A10  EF1F  F00D         	goto	l6098
  3507   001A14                     u4960:
  3508   001A14  2827               	incf	___fldiv@bexp^0,w,c
  3509   001A16  A4D8               	btfss	status,2,c
  3510   001A18  EF10  F00D         	goto	u4971
  3511   001A1C  EF12  F00D         	goto	u4970
  3512   001A20                     u4971:
  3513   001A20  EF1A  F00D         	goto	l6094
  3514   001A24                     u4970:
  3515   001A24  0E00               	movlw	0
  3516   001A26  6E10               	movwf	___fldiv@b^0,c
  3517   001A28  0E00               	movlw	0
  3518   001A2A  6E11               	movwf	(___fldiv@b+1)^0,c
  3519   001A2C  0E00               	movlw	0
  3520   001A2E  6E12               	movwf	(___fldiv@b+2)^0,c
  3521   001A30  0E00               	movlw	0
  3522   001A32  6E13               	movwf	(___fldiv@b+3)^0,c
  3523   001A34                     l6094:
  3524   001A34  8E12               	bsf	(___fldiv@b+2)^0,7,c
  3525   001A36  0E00               	movlw	0
  3526   001A38  6E13               	movwf	(___fldiv@b+3)^0,c
  3527   001A3A  EF27  F00D         	goto	l6100
  3528   001A3E                     l6098:
  3529   001A3E  0E00               	movlw	0
  3530   001A40  6E10               	movwf	___fldiv@b^0,c
  3531   001A42  0E00               	movlw	0
  3532   001A44  6E11               	movwf	(___fldiv@b+1)^0,c
  3533   001A46  0E00               	movlw	0
  3534   001A48  6E12               	movwf	(___fldiv@b+2)^0,c
  3535   001A4A  0E00               	movlw	0
  3536   001A4C  6E13               	movwf	(___fldiv@b+3)^0,c
  3537   001A4E                     l6100:
  3538   001A4E  5017               	movf	(___fldiv@a+3)^0,w,c
  3539   001A50  0B80               	andlw	128
  3540   001A52  1A20               	xorwf	___fldiv@sign^0,f,c
  3541   001A54  5017               	movf	(___fldiv@a+3)^0,w,c
  3542   001A56  2417               	addwf	(___fldiv@a+3)^0,w,c
  3543   001A58  6E28               	movwf	___fldiv@aexp^0,c
  3544   001A5A  AE16               	btfss	(___fldiv@a+2)^0,7,c
  3545   001A5C  EF32  F00D         	goto	u4981
  3546   001A60  EF34  F00D         	goto	u4980
  3547   001A64                     u4981:
  3548   001A64  EF35  F00D         	goto	l6108
  3549   001A68                     u4980:
  3550   001A68  8028               	bsf	___fldiv@aexp^0,0,c
  3551   001A6A                     l6108:
  3552   001A6A  5028               	movf	___fldiv@aexp^0,w,c
  3553   001A6C  B4D8               	btfsc	status,2,c
  3554   001A6E  EF3B  F00D         	goto	u4991
  3555   001A72  EF3D  F00D         	goto	u4990
  3556   001A76                     u4991:
  3557   001A76  EF52  F00D         	goto	l6118
  3558   001A7A                     u4990:
  3559   001A7A  2828               	incf	___fldiv@aexp^0,w,c
  3560   001A7C  A4D8               	btfss	status,2,c
  3561   001A7E  EF43  F00D         	goto	u5001
  3562   001A82  EF45  F00D         	goto	u5000
  3563   001A86                     u5001:
  3564   001A86  EF4D  F00D         	goto	l6114
  3565   001A8A                     u5000:
  3566   001A8A  0E00               	movlw	0
  3567   001A8C  6E14               	movwf	___fldiv@a^0,c
  3568   001A8E  0E00               	movlw	0
  3569   001A90  6E15               	movwf	(___fldiv@a+1)^0,c
  3570   001A92  0E00               	movlw	0
  3571   001A94  6E16               	movwf	(___fldiv@a+2)^0,c
  3572   001A96  0E00               	movlw	0
  3573   001A98  6E17               	movwf	(___fldiv@a+3)^0,c
  3574   001A9A                     l6114:
  3575   001A9A  8E16               	bsf	(___fldiv@a+2)^0,7,c
  3576   001A9C  0E00               	movlw	0
  3577   001A9E  6E17               	movwf	(___fldiv@a+3)^0,c
  3578   001AA0  EF5A  F00D         	goto	l6120
  3579   001AA4                     l6118:
  3580   001AA4  0E00               	movlw	0
  3581   001AA6  6E14               	movwf	___fldiv@a^0,c
  3582   001AA8  0E00               	movlw	0
  3583   001AAA  6E15               	movwf	(___fldiv@a+1)^0,c
  3584   001AAC  0E00               	movlw	0
  3585   001AAE  6E16               	movwf	(___fldiv@a+2)^0,c
  3586   001AB0  0E00               	movlw	0
  3587   001AB2  6E17               	movwf	(___fldiv@a+3)^0,c
  3588   001AB4                     l6120:
  3589   001AB4  5014               	movf	___fldiv@a^0,w,c
  3590   001AB6  1015               	iorwf	(___fldiv@a+1)^0,w,c
  3591   001AB8  1016               	iorwf	(___fldiv@a+2)^0,w,c
  3592   001ABA  1017               	iorwf	(___fldiv@a+3)^0,w,c
  3593   001ABC  A4D8               	btfss	status,2,c
  3594   001ABE  EF63  F00D         	goto	u5011
  3595   001AC2  EF65  F00D         	goto	u5010
  3596   001AC6                     u5011:
  3597   001AC6  EF7D  F00D         	goto	l6132
  3598   001ACA                     u5010:
  3599   001ACA  0E00               	movlw	0
  3600   001ACC  6E10               	movwf	___fldiv@b^0,c
  3601   001ACE  0E00               	movlw	0
  3602   001AD0  6E11               	movwf	(___fldiv@b+1)^0,c
  3603   001AD2  0E00               	movlw	0
  3604   001AD4  6E12               	movwf	(___fldiv@b+2)^0,c
  3605   001AD6  0E00               	movlw	0
  3606   001AD8  6E13               	movwf	(___fldiv@b+3)^0,c
  3607   001ADA  0E80               	movlw	128
  3608   001ADC  1212               	iorwf	(___fldiv@b+2)^0,f,c
  3609   001ADE  0E7F               	movlw	127
  3610   001AE0  1213               	iorwf	(___fldiv@b+3)^0,f,c
  3611   001AE2                     l6126:
  3612   001AE2  5020               	movf	___fldiv@sign^0,w,c
  3613   001AE4  1213               	iorwf	(___fldiv@b+3)^0,f,c
  3614   001AE6  C010  F010         	movff	___fldiv@b,?___fldiv
  3615   001AEA  C011  F011         	movff	___fldiv@b+1,?___fldiv+1
  3616   001AEE  C012  F012         	movff	___fldiv@b+2,?___fldiv+2
  3617   001AF2  C013  F013         	movff	___fldiv@b+3,?___fldiv+3
  3618   001AF6  EFC0  F00E         	goto	l2422
  3619   001AFA                     l6132:
  3620   001AFA  5027               	movf	___fldiv@bexp^0,w,c
  3621   001AFC  A4D8               	btfss	status,2,c
  3622   001AFE  EF83  F00D         	goto	u5021
  3623   001B02  EF85  F00D         	goto	u5020
  3624   001B06                     u5021:
  3625   001B06  EF8F  F00D         	goto	l6140
  3626   001B0A                     u5020:
  3627   001B0A  0E00               	movlw	0
  3628   001B0C  6E10               	movwf	?___fldiv^0,c
  3629   001B0E  0E00               	movlw	0
  3630   001B10  6E11               	movwf	(?___fldiv+1)^0,c
  3631   001B12  0E00               	movlw	0
  3632   001B14  6E12               	movwf	(?___fldiv+2)^0,c
  3633   001B16  0E00               	movlw	0
  3634   001B18  6E13               	movwf	(?___fldiv+3)^0,c
  3635   001B1A  EFC0  F00E         	goto	l2422
  3636   001B1E                     l6140:
  3637   001B1E  5028               	movf	___fldiv@aexp^0,w,c
  3638   001B20  C027  F018         	movff	___fldiv@bexp,??___fldiv
  3639   001B24  6A19               	clrf	(??___fldiv+1)^0,c
  3640   001B26  5E18               	subwf	??___fldiv^0,f,c
  3641   001B28  0E00               	movlw	0
  3642   001B2A  5A19               	subwfb	(??___fldiv+1)^0,f,c
  3643   001B2C  0E7F               	movlw	127
  3644   001B2E  2418               	addwf	??___fldiv^0,w,c
  3645   001B30  6E21               	movwf	___fldiv@new_exp^0,c
  3646   001B32  0E00               	movlw	0
  3647   001B34  2019               	addwfc	(??___fldiv+1)^0,w,c
  3648   001B36  6E22               	movwf	(___fldiv@new_exp+1)^0,c
  3649   001B38  C010  F01C         	movff	___fldiv@b,___fldiv@rem
  3650   001B3C  C011  F01D         	movff	___fldiv@b+1,___fldiv@rem+1
  3651   001B40  C012  F01E         	movff	___fldiv@b+2,___fldiv@rem+2
  3652   001B44  C013  F01F         	movff	___fldiv@b+3,___fldiv@rem+3
  3653   001B48  0E00               	movlw	0
  3654   001B4A  6E10               	movwf	___fldiv@b^0,c
  3655   001B4C  0E00               	movlw	0
  3656   001B4E  6E11               	movwf	(___fldiv@b+1)^0,c
  3657   001B50  0E00               	movlw	0
  3658   001B52  6E12               	movwf	(___fldiv@b+2)^0,c
  3659   001B54  0E00               	movlw	0
  3660   001B56  6E13               	movwf	(___fldiv@b+3)^0,c
  3661   001B58  0E00               	movlw	0
  3662   001B5A  6E23               	movwf	___fldiv@grs^0,c
  3663   001B5C  0E00               	movlw	0
  3664   001B5E  6E24               	movwf	(___fldiv@grs+1)^0,c
  3665   001B60  0E00               	movlw	0
  3666   001B62  6E25               	movwf	(___fldiv@grs+2)^0,c
  3667   001B64  0E00               	movlw	0
  3668   001B66  6E26               	movwf	(___fldiv@grs+3)^0,c
  3669   001B68  0E00               	movlw	0
  3670   001B6A  6E28               	movwf	___fldiv@aexp^0,c
  3671   001B6C  EFF0  F00D         	goto	l2424
  3672   001B70                     l6150:
  3673   001B70  5028               	movf	___fldiv@aexp^0,w,c
  3674   001B72  B4D8               	btfsc	status,2,c
  3675   001B74  EFBE  F00D         	goto	u5031
  3676   001B78  EFC0  F00D         	goto	u5030
  3677   001B7C                     u5031:
  3678   001B7C  EFD7  F00D         	goto	l6158
  3679   001B80                     u5030:
  3680   001B80  90D8               	bcf	status,0,c
  3681   001B82  361C               	rlcf	___fldiv@rem^0,f,c
  3682   001B84  361D               	rlcf	(___fldiv@rem+1)^0,f,c
  3683   001B86  361E               	rlcf	(___fldiv@rem+2)^0,f,c
  3684   001B88  361F               	rlcf	(___fldiv@rem+3)^0,f,c
  3685   001B8A  90D8               	bcf	status,0,c
  3686   001B8C  3610               	rlcf	___fldiv@b^0,f,c
  3687   001B8E  3611               	rlcf	(___fldiv@b+1)^0,f,c
  3688   001B90  3612               	rlcf	(___fldiv@b+2)^0,f,c
  3689   001B92  3613               	rlcf	(___fldiv@b+3)^0,f,c
  3690   001B94  AE26               	btfss	(___fldiv@grs+3)^0,7,c
  3691   001B96  EFCF  F00D         	goto	u5041
  3692   001B9A  EFD1  F00D         	goto	u5040
  3693   001B9E                     u5041:
  3694   001B9E  EFD2  F00D         	goto	l2427
  3695   001BA2                     u5040:
  3696   001BA2  8010               	bsf	___fldiv@b^0,0,c
  3697   001BA4                     l2427:
  3698   001BA4  90D8               	bcf	status,0,c
  3699   001BA6  3623               	rlcf	___fldiv@grs^0,f,c
  3700   001BA8  3624               	rlcf	(___fldiv@grs+1)^0,f,c
  3701   001BAA  3625               	rlcf	(___fldiv@grs+2)^0,f,c
  3702   001BAC  3626               	rlcf	(___fldiv@grs+3)^0,f,c
  3703   001BAE                     l6158:
  3704   001BAE  5014               	movf	___fldiv@a^0,w,c
  3705   001BB0  5C1C               	subwf	___fldiv@rem^0,w,c
  3706   001BB2  5015               	movf	(___fldiv@a+1)^0,w,c
  3707   001BB4  581D               	subwfb	(___fldiv@rem+1)^0,w,c
  3708   001BB6  5016               	movf	(___fldiv@a+2)^0,w,c
  3709   001BB8  581E               	subwfb	(___fldiv@rem+2)^0,w,c
  3710   001BBA  5017               	movf	(___fldiv@a+3)^0,w,c
  3711   001BBC  581F               	subwfb	(___fldiv@rem+3)^0,w,c
  3712   001BBE  A0D8               	btfss	status,0,c
  3713   001BC0  EFE4  F00D         	goto	u5051
  3714   001BC4  EFE6  F00D         	goto	u5050
  3715   001BC8                     u5051:
  3716   001BC8  EFEF  F00D         	goto	l6164
  3717   001BCC                     u5050:
  3718   001BCC  8C26               	bsf	(___fldiv@grs+3)^0,6,c
  3719   001BCE  5014               	movf	___fldiv@a^0,w,c
  3720   001BD0  5E1C               	subwf	___fldiv@rem^0,f,c
  3721   001BD2  5015               	movf	(___fldiv@a+1)^0,w,c
  3722   001BD4  5A1D               	subwfb	(___fldiv@rem+1)^0,f,c
  3723   001BD6  5016               	movf	(___fldiv@a+2)^0,w,c
  3724   001BD8  5A1E               	subwfb	(___fldiv@rem+2)^0,f,c
  3725   001BDA  5017               	movf	(___fldiv@a+3)^0,w,c
  3726   001BDC  5A1F               	subwfb	(___fldiv@rem+3)^0,f,c
  3727   001BDE                     l6164:
  3728   001BDE  2A28               	incf	___fldiv@aexp^0,f,c
  3729   001BE0                     l2424:
  3730   001BE0  0E19               	movlw	25
  3731   001BE2  6428               	cpfsgt	___fldiv@aexp^0,c
  3732   001BE4  EFF6  F00D         	goto	u5061
  3733   001BE8  EFF8  F00D         	goto	u5060
  3734   001BEC                     u5061:
  3735   001BEC  EFB8  F00D         	goto	l6150
  3736   001BF0                     u5060:
  3737   001BF0  501C               	movf	___fldiv@rem^0,w,c
  3738   001BF2  101D               	iorwf	(___fldiv@rem+1)^0,w,c
  3739   001BF4  101E               	iorwf	(___fldiv@rem+2)^0,w,c
  3740   001BF6  101F               	iorwf	(___fldiv@rem+3)^0,w,c
  3741   001BF8  B4D8               	btfsc	status,2,c
  3742   001BFA  EF01  F00E         	goto	u5071
  3743   001BFE  EF03  F00E         	goto	u5070
  3744   001C02                     u5071:
  3745   001C02  EF1B  F00E         	goto	l6176
  3746   001C06                     u5070:
  3747   001C06  8023               	bsf	___fldiv@grs^0,0,c
  3748   001C08  EF1B  F00E         	goto	l6176
  3749   001C0C                     l6170:
  3750   001C0C  90D8               	bcf	status,0,c
  3751   001C0E  3610               	rlcf	___fldiv@b^0,f,c
  3752   001C10  3611               	rlcf	(___fldiv@b+1)^0,f,c
  3753   001C12  3612               	rlcf	(___fldiv@b+2)^0,f,c
  3754   001C14  3613               	rlcf	(___fldiv@b+3)^0,f,c
  3755   001C16  AE26               	btfss	(___fldiv@grs+3)^0,7,c
  3756   001C18  EF10  F00E         	goto	u5081
  3757   001C1C  EF12  F00E         	goto	u5080
  3758   001C20                     u5081:
  3759   001C20  EF13  F00E         	goto	l2433
  3760   001C24                     u5080:
  3761   001C24  8010               	bsf	___fldiv@b^0,0,c
  3762   001C26                     l2433:
  3763   001C26  90D8               	bcf	status,0,c
  3764   001C28  3623               	rlcf	___fldiv@grs^0,f,c
  3765   001C2A  3624               	rlcf	(___fldiv@grs+1)^0,f,c
  3766   001C2C  3625               	rlcf	(___fldiv@grs+2)^0,f,c
  3767   001C2E  3626               	rlcf	(___fldiv@grs+3)^0,f,c
  3768   001C30  0621               	decf	___fldiv@new_exp^0,f,c
  3769   001C32  A0D8               	btfss	status,0,c
  3770   001C34  0622               	decf	(___fldiv@new_exp+1)^0,f,c
  3771   001C36                     l6176:
  3772   001C36  AE12               	btfss	(___fldiv@b+2)^0,7,c
  3773   001C38  EF20  F00E         	goto	u5091
  3774   001C3C  EF22  F00E         	goto	u5090
  3775   001C40                     u5091:
  3776   001C40  EF06  F00E         	goto	l6170
  3777   001C44                     u5090:
  3778   001C44  0E00               	movlw	0
  3779   001C46  6E28               	movwf	___fldiv@aexp^0,c
  3780   001C48  AE26               	btfss	(___fldiv@grs+3)^0,7,c
  3781   001C4A  EF29  F00E         	goto	u5101
  3782   001C4E  EF2B  F00E         	goto	u5100
  3783   001C52                     u5101:
  3784   001C52  EF4F  F00E         	goto	l2435
  3785   001C56                     u5100:
  3786   001C56  0EFF               	movlw	255
  3787   001C58  1423               	andwf	___fldiv@grs^0,w,c
  3788   001C5A  6E18               	movwf	??___fldiv^0,c
  3789   001C5C  0EFF               	movlw	255
  3790   001C5E  1424               	andwf	(___fldiv@grs+1)^0,w,c
  3791   001C60  6E19               	movwf	(??___fldiv+1)^0,c
  3792   001C62  0EFF               	movlw	255
  3793   001C64  1425               	andwf	(___fldiv@grs+2)^0,w,c
  3794   001C66  6E1A               	movwf	(??___fldiv+2)^0,c
  3795   001C68  0E7F               	movlw	127
  3796   001C6A  1426               	andwf	(___fldiv@grs+3)^0,w,c
  3797   001C6C  6E1B               	movwf	(??___fldiv+3)^0,c
  3798   001C6E  5018               	movf	??___fldiv^0,w,c
  3799   001C70  1019               	iorwf	(??___fldiv+1)^0,w,c
  3800   001C72  101A               	iorwf	(??___fldiv+2)^0,w,c
  3801   001C74  101B               	iorwf	(??___fldiv+3)^0,w,c
  3802   001C76  B4D8               	btfsc	status,2,c
  3803   001C78  EF40  F00E         	goto	u5111
  3804   001C7C  EF42  F00E         	goto	u5110
  3805   001C80                     u5111:
  3806   001C80  EF46  F00E         	goto	l2436
  3807   001C84                     u5110:
  3808   001C84                     l6184:
  3809   001C84  0E01               	movlw	1
  3810   001C86  6E28               	movwf	___fldiv@aexp^0,c
  3811   001C88  EF4F  F00E         	goto	l2435
  3812   001C8C                     l2436:
  3813   001C8C  A010               	btfss	___fldiv@b^0,0,c
  3814   001C8E  EF4B  F00E         	goto	u5121
  3815   001C92  EF4D  F00E         	goto	u5120
  3816   001C96                     u5121:
  3817   001C96  EF4F  F00E         	goto	l2435
  3818   001C9A                     u5120:
  3819   001C9A  EF42  F00E         	goto	l6184
  3820   001C9E                     l2435:
  3821   001C9E  5028               	movf	___fldiv@aexp^0,w,c
  3822   001CA0  B4D8               	btfsc	status,2,c
  3823   001CA2  EF55  F00E         	goto	u5131
  3824   001CA6  EF57  F00E         	goto	u5130
  3825   001CAA                     u5131:
  3826   001CAA  EF7B  F00E         	goto	l6196
  3827   001CAE                     u5130:
  3828   001CAE  0E01               	movlw	1
  3829   001CB0  2610               	addwf	___fldiv@b^0,f,c
  3830   001CB2  0E00               	movlw	0
  3831   001CB4  2211               	addwfc	(___fldiv@b+1)^0,f,c
  3832   001CB6  2212               	addwfc	(___fldiv@b+2)^0,f,c
  3833   001CB8  2213               	addwfc	(___fldiv@b+3)^0,f,c
  3834   001CBA  A013               	btfss	(___fldiv@b+3)^0,0,c
  3835   001CBC  EF62  F00E         	goto	u5141
  3836   001CC0  EF64  F00E         	goto	u5140
  3837   001CC4                     u5141:
  3838   001CC4  EF7B  F00E         	goto	l6196
  3839   001CC8                     u5140:
  3840   001CC8  C010  F018         	movff	___fldiv@b,??___fldiv
  3841   001CCC  C011  F019         	movff	___fldiv@b+1,??___fldiv+1
  3842   001CD0  C012  F01A         	movff	___fldiv@b+2,??___fldiv+2
  3843   001CD4  C013  F01B         	movff	___fldiv@b+3,??___fldiv+3
  3844   001CD8  341B               	rlcf	(??___fldiv+3)^0,w,c
  3845   001CDA  321B               	rrcf	(??___fldiv+3)^0,f,c
  3846   001CDC  321A               	rrcf	(??___fldiv+2)^0,f,c
  3847   001CDE  3219               	rrcf	(??___fldiv+1)^0,f,c
  3848   001CE0  3218               	rrcf	??___fldiv^0,f,c
  3849   001CE2  C018  F010         	movff	??___fldiv,___fldiv@b
  3850   001CE6  C019  F011         	movff	??___fldiv+1,___fldiv@b+1
  3851   001CEA  C01A  F012         	movff	??___fldiv+2,___fldiv@b+2
  3852   001CEE  C01B  F013         	movff	??___fldiv+3,___fldiv@b+3
  3853   001CF2  4A21               	infsnz	___fldiv@new_exp^0,f,c
  3854   001CF4  2A22               	incf	(___fldiv@new_exp+1)^0,f,c
  3855   001CF6                     l6196:
  3856   001CF6  BE22               	btfsc	(___fldiv@new_exp+1)^0,7,c
  3857   001CF8  EF86  F00E         	goto	u5151
  3858   001CFC  5022               	movf	(___fldiv@new_exp+1)^0,w,c
  3859   001CFE  E108               	bnz	u5150
  3860   001D00  2821               	incf	___fldiv@new_exp^0,w,c
  3861   001D02  A0D8               	btfss	status,0,c
  3862   001D04  EF86  F00E         	goto	u5151
  3863   001D08  EF88  F00E         	goto	u5150
  3864   001D0C                     u5151:
  3865   001D0C  EF93  F00E         	goto	l6200
  3866   001D10                     u5150:
  3867   001D10  0E00               	movlw	0
  3868   001D12  6E22               	movwf	(___fldiv@new_exp+1)^0,c
  3869   001D14  6821               	setf	___fldiv@new_exp^0,c
  3870   001D16  0E00               	movlw	0
  3871   001D18  6E10               	movwf	___fldiv@b^0,c
  3872   001D1A  0E00               	movlw	0
  3873   001D1C  6E11               	movwf	(___fldiv@b+1)^0,c
  3874   001D1E  0E00               	movlw	0
  3875   001D20  6E12               	movwf	(___fldiv@b+2)^0,c
  3876   001D22  0E00               	movlw	0
  3877   001D24  6E13               	movwf	(___fldiv@b+3)^0,c
  3878   001D26                     l6200:
  3879   001D26  BE22               	btfsc	(___fldiv@new_exp+1)^0,7,c
  3880   001D28  EFA0  F00E         	goto	u5160
  3881   001D2C  5022               	movf	(___fldiv@new_exp+1)^0,w,c
  3882   001D2E  E106               	bnz	u5161
  3883   001D30  0421               	decf	___fldiv@new_exp^0,w,c
  3884   001D32  B0D8               	btfsc	status,0,c
  3885   001D34  EF9E  F00E         	goto	u5161
  3886   001D38  EFA0  F00E         	goto	u5160
  3887   001D3C                     u5161:
  3888   001D3C  EFAE  F00E         	goto	l6204
  3889   001D40                     u5160:
  3890   001D40  0E00               	movlw	0
  3891   001D42  6E22               	movwf	(___fldiv@new_exp+1)^0,c
  3892   001D44  0E00               	movlw	0
  3893   001D46  6E21               	movwf	___fldiv@new_exp^0,c
  3894   001D48  0E00               	movlw	0
  3895   001D4A  6E10               	movwf	___fldiv@b^0,c
  3896   001D4C  0E00               	movlw	0
  3897   001D4E  6E11               	movwf	(___fldiv@b+1)^0,c
  3898   001D50  0E00               	movlw	0
  3899   001D52  6E12               	movwf	(___fldiv@b+2)^0,c
  3900   001D54  0E00               	movlw	0
  3901   001D56  6E13               	movwf	(___fldiv@b+3)^0,c
  3902   001D58  0E00               	movlw	0
  3903   001D5A  6E20               	movwf	___fldiv@sign^0,c
  3904   001D5C                     l6204:
  3905   001D5C  C021  F027         	movff	___fldiv@new_exp,___fldiv@bexp
  3906   001D60  A027               	btfss	___fldiv@bexp^0,0,c
  3907   001D62  EFB5  F00E         	goto	u5171
  3908   001D66  EFB7  F00E         	goto	u5170
  3909   001D6A                     u5171:
  3910   001D6A  EFBA  F00E         	goto	l6210
  3911   001D6E                     u5170:
  3912   001D6E  8E12               	bsf	(___fldiv@b+2)^0,7,c
  3913   001D70  EFBB  F00E         	goto	l6212
  3914   001D74                     l6210:
  3915   001D74  9E12               	bcf	(___fldiv@b+2)^0,7,c
  3916   001D76                     l6212:
  3917   001D76  90D8               	bcf	status,0,c
  3918   001D78  3027               	rrcf	___fldiv@bexp^0,w,c
  3919   001D7A  6E13               	movwf	(___fldiv@b+3)^0,c
  3920   001D7C  EF71  F00D         	goto	l6126
  3921   001D80                     l2422:
  3922   001D80  0012               	return		;funcret
  3923   001D82                     __end_of___fldiv:
  3924                           	callstack 0
  3925                           
  3926 ;; *************** function ___fladd *****************
  3927 ;; Defined at:
  3928 ;;		line 10 in file "C:\Program Files\Microchip\xc8\v2.46\pic\sources\c99\common\sprcadd.c"
  3929 ;; Parameters:    Size  Location     Type
  3930 ;;  b               4   40[COMRAM] unsigned char 
  3931 ;;  a               4   44[COMRAM] unsigned char 
  3932 ;; Auto vars:     Size  Location     Type
  3933 ;;  grs             1   55[COMRAM] unsigned char 
  3934 ;;  bexp            1   54[COMRAM] unsigned char 
  3935 ;;  aexp            1   53[COMRAM] unsigned char 
  3936 ;;  signs           1   52[COMRAM] unsigned char 
  3937 ;; Return value:  Size  Location     Type
  3938 ;;                  4   40[COMRAM] unsigned char 
  3939 ;; Registers used:
  3940 ;;		wreg, status,2, status,0
  3941 ;; Tracked objects:
  3942 ;;		On entry : 0/0
  3943 ;;		On exit  : 0/0
  3944 ;;		Unchanged: 0/0
  3945 ;; Data sizes:     COMRAM   BANK0   BANK1   BANK2   BANK3   BANK4   BANK5   BANK6   BANK7   BANK8   BANK9  BANK10  BANK1
      +1  BANK12  BANK13  BANK14  BANK15
  3946 ;;      Params:         8       0       0       0       0       0       0       0       0       0       0       0       
      +0       0       0       0       0
  3947 ;;      Locals:         4       0       0       0       0       0       0       0       0       0       0       0       
      +0       0       0       0       0
  3948 ;;      Temps:          4       0       0       0       0       0       0       0       0       0       0       0       
      +0       0       0       0       0
  3949 ;;      Totals:        16       0       0       0       0       0       0       0       0       0       0       0       
      +0       0       0       0       0
  3950 ;;Total ram usage:       16 bytes
  3951 ;; Hardware stack levels used: 1
  3952 ;; Hardware stack levels required when called: 2
  3953 ;; This function calls:
  3954 ;;		Nothing
  3955 ;; This function is called by:
  3956 ;;		_EUSART_Baud_Rate_Calculation
  3957 ;;		_I2C_MASTER_MODE_CLOCK_CONFIG
  3958 ;; This function uses a non-reentrant model
  3959 ;;
  3960                           
  3961                           	psect	text18
  3962   001528                     __ptext18:
  3963                           	callstack 0
  3964   001528                     ___fladd:
  3965                           	callstack 25
  3966   001528  502C               	movf	(___fladd@b+3)^0,w,c
  3967   00152A  0B80               	andlw	128
  3968   00152C  6E35               	movwf	___fladd@signs^0,c
  3969   00152E  502C               	movf	(___fladd@b+3)^0,w,c
  3970   001530  242C               	addwf	(___fladd@b+3)^0,w,c
  3971   001532  6E37               	movwf	___fladd@bexp^0,c
  3972   001534  AE2B               	btfss	(___fladd@b+2)^0,7,c
  3973   001536  EF9F  F00A         	goto	u4561
  3974   00153A  EFA1  F00A         	goto	u4560
  3975   00153E                     u4561:
  3976   00153E  EFA2  F00A         	goto	l5886
  3977   001542                     u4560:
  3978   001542  8037               	bsf	___fladd@bexp^0,0,c
  3979   001544                     l5886:
  3980   001544  5037               	movf	___fladd@bexp^0,w,c
  3981   001546  B4D8               	btfsc	status,2,c
  3982   001548  EFA8  F00A         	goto	u4571
  3983   00154C  EFAA  F00A         	goto	u4570
  3984   001550                     u4571:
  3985   001550  EFBF  F00A         	goto	l5896
  3986   001554                     u4570:
  3987   001554  2837               	incf	___fladd@bexp^0,w,c
  3988   001556  A4D8               	btfss	status,2,c
  3989   001558  EFB0  F00A         	goto	u4581
  3990   00155C  EFB2  F00A         	goto	u4580
  3991   001560                     u4581:
  3992   001560  EFBA  F00A         	goto	l5892
  3993   001564                     u4580:
  3994   001564  0E00               	movlw	0
  3995   001566  6E29               	movwf	___fladd@b^0,c
  3996   001568  0E00               	movlw	0
  3997   00156A  6E2A               	movwf	(___fladd@b+1)^0,c
  3998   00156C  0E00               	movlw	0
  3999   00156E  6E2B               	movwf	(___fladd@b+2)^0,c
  4000   001570  0E00               	movlw	0
  4001   001572  6E2C               	movwf	(___fladd@b+3)^0,c
  4002   001574                     l5892:
  4003   001574  8E2B               	bsf	(___fladd@b+2)^0,7,c
  4004   001576  0E00               	movlw	0
  4005   001578  6E2C               	movwf	(___fladd@b+3)^0,c
  4006   00157A  EFC7  F00A         	goto	l5898
  4007   00157E                     l5896:
  4008   00157E  0E00               	movlw	0
  4009   001580  6E29               	movwf	___fladd@b^0,c
  4010   001582  0E00               	movlw	0
  4011   001584  6E2A               	movwf	(___fladd@b+1)^0,c
  4012   001586  0E00               	movlw	0
  4013   001588  6E2B               	movwf	(___fladd@b+2)^0,c
  4014   00158A  0E00               	movlw	0
  4015   00158C  6E2C               	movwf	(___fladd@b+3)^0,c
  4016   00158E                     l5898:
  4017   00158E  5030               	movf	(___fladd@a+3)^0,w,c
  4018   001590  0B80               	andlw	128
  4019   001592  6E36               	movwf	___fladd@aexp^0,c
  4020   001594  5035               	movf	___fladd@signs^0,w,c
  4021   001596  1836               	xorwf	___fladd@aexp^0,w,c
  4022   001598  B4D8               	btfsc	status,2,c
  4023   00159A  EFD1  F00A         	goto	u4591
  4024   00159E  EFD3  F00A         	goto	u4590
  4025   0015A2                     u4591:
  4026   0015A2  EFD4  F00A         	goto	l5904
  4027   0015A6                     u4590:
  4028   0015A6  8C35               	bsf	___fladd@signs^0,6,c
  4029   0015A8                     l5904:
  4030   0015A8  5030               	movf	(___fladd@a+3)^0,w,c
  4031   0015AA  2430               	addwf	(___fladd@a+3)^0,w,c
  4032   0015AC  6E36               	movwf	___fladd@aexp^0,c
  4033   0015AE  AE2F               	btfss	(___fladd@a+2)^0,7,c
  4034   0015B0  EFDC  F00A         	goto	u4601
  4035   0015B4  EFDE  F00A         	goto	u4600
  4036   0015B8                     u4601:
  4037   0015B8  EFDF  F00A         	goto	l5910
  4038   0015BC                     u4600:
  4039   0015BC  8036               	bsf	___fladd@aexp^0,0,c
  4040   0015BE                     l5910:
  4041   0015BE  5036               	movf	___fladd@aexp^0,w,c
  4042   0015C0  B4D8               	btfsc	status,2,c
  4043   0015C2  EFE5  F00A         	goto	u4611
  4044   0015C6  EFE7  F00A         	goto	u4610
  4045   0015CA                     u4611:
  4046   0015CA  EFFC  F00A         	goto	l5920
  4047   0015CE                     u4610:
  4048   0015CE  2836               	incf	___fladd@aexp^0,w,c
  4049   0015D0  A4D8               	btfss	status,2,c
  4050   0015D2  EFED  F00A         	goto	u4621
  4051   0015D6  EFEF  F00A         	goto	u4620
  4052   0015DA                     u4621:
  4053   0015DA  EFF7  F00A         	goto	l5916
  4054   0015DE                     u4620:
  4055   0015DE  0E00               	movlw	0
  4056   0015E0  6E2D               	movwf	___fladd@a^0,c
  4057   0015E2  0E00               	movlw	0
  4058   0015E4  6E2E               	movwf	(___fladd@a+1)^0,c
  4059   0015E6  0E00               	movlw	0
  4060   0015E8  6E2F               	movwf	(___fladd@a+2)^0,c
  4061   0015EA  0E00               	movlw	0
  4062   0015EC  6E30               	movwf	(___fladd@a+3)^0,c
  4063   0015EE                     l5916:
  4064   0015EE  8E2F               	bsf	(___fladd@a+2)^0,7,c
  4065   0015F0  0E00               	movlw	0
  4066   0015F2  6E30               	movwf	(___fladd@a+3)^0,c
  4067   0015F4  EF04  F00B         	goto	l5922
  4068   0015F8                     l5920:
  4069   0015F8  0E00               	movlw	0
  4070   0015FA  6E2D               	movwf	___fladd@a^0,c
  4071   0015FC  0E00               	movlw	0
  4072   0015FE  6E2E               	movwf	(___fladd@a+1)^0,c
  4073   001600  0E00               	movlw	0
  4074   001602  6E2F               	movwf	(___fladd@a+2)^0,c
  4075   001604  0E00               	movlw	0
  4076   001606  6E30               	movwf	(___fladd@a+3)^0,c
  4077   001608                     l5922:
  4078   001608  5037               	movf	___fladd@bexp^0,w,c
  4079   00160A  5C36               	subwf	___fladd@aexp^0,w,c
  4080   00160C  B0D8               	btfsc	status,0,c
  4081   00160E  EF0B  F00B         	goto	u4631
  4082   001612  EF0D  F00B         	goto	u4630
  4083   001616                     u4631:
  4084   001616  EF34  F00B         	goto	l5958
  4085   00161A                     u4630:
  4086   00161A  AC35               	btfss	___fladd@signs^0,6,c
  4087   00161C  EF12  F00B         	goto	u4641
  4088   001620  EF14  F00B         	goto	u4640
  4089   001624                     u4641:
  4090   001624  EF16  F00B         	goto	l5928
  4091   001628                     u4640:
  4092   001628  0E80               	movlw	128
  4093   00162A  1A35               	xorwf	___fladd@signs^0,f,c
  4094   00162C                     l5928:
  4095   00162C  C037  F038         	movff	___fladd@bexp,___fladd@grs
  4096   001630  C036  F037         	movff	___fladd@aexp,___fladd@bexp
  4097   001634  C038  F036         	movff	___fladd@grs,___fladd@aexp
  4098   001638  C029  F038         	movff	___fladd@b,___fladd@grs
  4099   00163C  C02D  F029         	movff	___fladd@a,___fladd@b
  4100   001640  C038  F02D         	movff	___fladd@grs,___fladd@a
  4101   001644  C02A  F038         	movff	___fladd@b+1,___fladd@grs
  4102   001648  C02E  F02A         	movff	___fladd@a+1,___fladd@b+1
  4103   00164C  C038  F02E         	movff	___fladd@grs,___fladd@a+1
  4104   001650  C02B  F038         	movff	___fladd@b+2,___fladd@grs
  4105   001654  C02F  F02B         	movff	___fladd@a+2,___fladd@b+2
  4106   001658  C038  F02F         	movff	___fladd@grs,___fladd@a+2
  4107   00165C  C02C  F038         	movff	___fladd@b+3,___fladd@grs
  4108   001660  C030  F02C         	movff	___fladd@a+3,___fladd@b+3
  4109   001664  C038  F030         	movff	___fladd@grs,___fladd@a+3
  4110   001668                     l5958:
  4111   001668  0E00               	movlw	0
  4112   00166A  6E38               	movwf	___fladd@grs^0,c
  4113   00166C  5037               	movf	___fladd@bexp^0,w,c
  4114   00166E  C036  F031         	movff	___fladd@aexp,??___fladd
  4115   001672  6A32               	clrf	(??___fladd+1)^0,c
  4116   001674  5E31               	subwf	??___fladd^0,f,c
  4117   001676  0E00               	movlw	0
  4118   001678  5A32               	subwfb	(??___fladd+1)^0,f,c
  4119   00167A  BE32               	btfsc	(??___fladd+1)^0,7,c
  4120   00167C  EF49  F00B         	goto	u4651
  4121   001680  5032               	movf	(??___fladd+1)^0,w,c
  4122   001682  E109               	bnz	u4650
  4123   001684  0E1A               	movlw	26
  4124   001686  5C31               	subwf	??___fladd^0,w,c
  4125   001688  A0D8               	btfss	status,0,c
  4126   00168A  EF49  F00B         	goto	u4651
  4127   00168E  EF4B  F00B         	goto	u4650
  4128   001692                     u4651:
  4129   001692  EF82  F00B         	goto	l2369
  4130   001696                     u4650:
  4131   001696  5029               	movf	___fladd@b^0,w,c
  4132   001698  102A               	iorwf	(___fladd@b+1)^0,w,c
  4133   00169A  102B               	iorwf	(___fladd@b+2)^0,w,c
  4134   00169C  102C               	iorwf	(___fladd@b+3)^0,w,c
  4135   00169E  A4D8               	btfss	status,2,c
  4136   0016A0  EF54  F00B         	goto	u4661
  4137   0016A4  EF57  F00B         	goto	u4660
  4138   0016A8                     u4661:
  4139   0016A8  0E01               	movlw	1
  4140   0016AA  EF58  F00B         	goto	u4670
  4141   0016AE                     u4660:
  4142   0016AE  0E00               	movlw	0
  4143   0016B0                     u4670:
  4144   0016B0  6E38               	movwf	___fladd@grs^0,c
  4145   0016B2  0E00               	movlw	0
  4146   0016B4  6E29               	movwf	___fladd@b^0,c
  4147   0016B6  0E00               	movlw	0
  4148   0016B8  6E2A               	movwf	(___fladd@b+1)^0,c
  4149   0016BA  0E00               	movlw	0
  4150   0016BC  6E2B               	movwf	(___fladd@b+2)^0,c
  4151   0016BE  0E00               	movlw	0
  4152   0016C0  6E2C               	movwf	(___fladd@b+3)^0,c
  4153   0016C2  C036  F037         	movff	___fladd@aexp,___fladd@bexp
  4154   0016C6  EF8B  F00B         	goto	l2368
  4155   0016CA                     l2370:
  4156   0016CA  A038               	btfss	___fladd@grs^0,0,c
  4157   0016CC  EF6A  F00B         	goto	u4681
  4158   0016D0  EF6C  F00B         	goto	u4680
  4159   0016D4                     u4681:
  4160   0016D4  EF72  F00B         	goto	l5970
  4161   0016D8                     u4680:
  4162   0016D8  90D8               	bcf	status,0,c
  4163   0016DA  3038               	rrcf	___fladd@grs^0,w,c
  4164   0016DC  0901               	iorlw	1
  4165   0016DE  6E38               	movwf	___fladd@grs^0,c
  4166   0016E0  EF74  F00B         	goto	l5972
  4167   0016E4                     l5970:
  4168   0016E4  90D8               	bcf	status,0,c
  4169   0016E6  3238               	rrcf	___fladd@grs^0,f,c
  4170   0016E8                     l5972:
  4171   0016E8  A029               	btfss	___fladd@b^0,0,c
  4172   0016EA  EF79  F00B         	goto	u4691
  4173   0016EE  EF7B  F00B         	goto	u4690
  4174   0016F2                     u4691:
  4175   0016F2  EF7C  F00B         	goto	l5976
  4176   0016F6                     u4690:
  4177   0016F6  8E38               	bsf	___fladd@grs^0,7,c
  4178   0016F8                     l5976:
  4179   0016F8  342C               	rlcf	(___fladd@b+3)^0,w,c
  4180   0016FA  322C               	rrcf	(___fladd@b+3)^0,f,c
  4181   0016FC  322B               	rrcf	(___fladd@b+2)^0,f,c
  4182   0016FE  322A               	rrcf	(___fladd@b+1)^0,f,c
  4183   001700  3229               	rrcf	___fladd@b^0,f,c
  4184   001702  2A37               	incf	___fladd@bexp^0,f,c
  4185   001704                     l2369:
  4186   001704  5036               	movf	___fladd@aexp^0,w,c
  4187   001706  5C37               	subwf	___fladd@bexp^0,w,c
  4188   001708  A0D8               	btfss	status,0,c
  4189   00170A  EF89  F00B         	goto	u4701
  4190   00170E  EF8B  F00B         	goto	u4700
  4191   001712                     u4701:
  4192   001712  EF65  F00B         	goto	l2370
  4193   001716                     u4700:
  4194   001716                     l2368:
  4195   001716  BC35               	btfsc	___fladd@signs^0,6,c
  4196   001718  EF90  F00B         	goto	u4711
  4197   00171C  EF92  F00B         	goto	u4710
  4198   001720                     u4711:
  4199   001720  EFD2  F00B         	goto	l6004
  4200   001724                     u4710:
  4201   001724  5037               	movf	___fladd@bexp^0,w,c
  4202   001726  A4D8               	btfss	status,2,c
  4203   001728  EF98  F00B         	goto	u4721
  4204   00172C  EF9A  F00B         	goto	u4720
  4205   001730                     u4721:
  4206   001730  EFA4  F00B         	goto	l5986
  4207   001734                     u4720:
  4208   001734  0E00               	movlw	0
  4209   001736  6E29               	movwf	?___fladd^0,c
  4210   001738  0E00               	movlw	0
  4211   00173A  6E2A               	movwf	(?___fladd+1)^0,c
  4212   00173C  0E00               	movlw	0
  4213   00173E  6E2B               	movwf	(?___fladd+2)^0,c
  4214   001740  0E00               	movlw	0
  4215   001742  6E2C               	movwf	(?___fladd+3)^0,c
  4216   001744  EFF3  F00C         	goto	l2377
  4217   001748                     l5986:
  4218   001748  502D               	movf	___fladd@a^0,w,c
  4219   00174A  2629               	addwf	___fladd@b^0,f,c
  4220   00174C  502E               	movf	(___fladd@a+1)^0,w,c
  4221   00174E  222A               	addwfc	(___fladd@b+1)^0,f,c
  4222   001750  502F               	movf	(___fladd@a+2)^0,w,c
  4223   001752  222B               	addwfc	(___fladd@b+2)^0,f,c
  4224   001754  5030               	movf	(___fladd@a+3)^0,w,c
  4225   001756  222C               	addwfc	(___fladd@b+3)^0,f,c
  4226   001758  A02C               	btfss	(___fladd@b+3)^0,0,c
  4227   00175A  EFB1  F00B         	goto	u4731
  4228   00175E  EFB3  F00B         	goto	u4730
  4229   001762                     u4731:
  4230   001762  EF5F  F00C         	goto	l6040
  4231   001766                     u4730:
  4232   001766  A038               	btfss	___fladd@grs^0,0,c
  4233   001768  EFB8  F00B         	goto	u4741
  4234   00176C  EFBA  F00B         	goto	u4740
  4235   001770                     u4741:
  4236   001770  EFC0  F00B         	goto	l5994
  4237   001774                     u4740:
  4238   001774  90D8               	bcf	status,0,c
  4239   001776  3038               	rrcf	___fladd@grs^0,w,c
  4240   001778  0901               	iorlw	1
  4241   00177A  6E38               	movwf	___fladd@grs^0,c
  4242   00177C  EFC2  F00B         	goto	l5996
  4243   001780                     l5994:
  4244   001780  90D8               	bcf	status,0,c
  4245   001782  3238               	rrcf	___fladd@grs^0,f,c
  4246   001784                     l5996:
  4247   001784  A029               	btfss	___fladd@b^0,0,c
  4248   001786  EFC7  F00B         	goto	u4751
  4249   00178A  EFC9  F00B         	goto	u4750
  4250   00178E                     u4751:
  4251   00178E  EFCA  F00B         	goto	l6000
  4252   001792                     u4750:
  4253   001792  8E38               	bsf	___fladd@grs^0,7,c
  4254   001794                     l6000:
  4255   001794  342C               	rlcf	(___fladd@b+3)^0,w,c
  4256   001796  322C               	rrcf	(___fladd@b+3)^0,f,c
  4257   001798  322B               	rrcf	(___fladd@b+2)^0,f,c
  4258   00179A  322A               	rrcf	(___fladd@b+1)^0,f,c
  4259   00179C  3229               	rrcf	___fladd@b^0,f,c
  4260   00179E  2A37               	incf	___fladd@bexp^0,f,c
  4261   0017A0  EF5F  F00C         	goto	l6040
  4262   0017A4                     l6004:
  4263   0017A4  502D               	movf	___fladd@a^0,w,c
  4264   0017A6  5C29               	subwf	___fladd@b^0,w,c
  4265   0017A8  502E               	movf	(___fladd@a+1)^0,w,c
  4266   0017AA  582A               	subwfb	(___fladd@b+1)^0,w,c
  4267   0017AC  502F               	movf	(___fladd@a+2)^0,w,c
  4268   0017AE  582B               	subwfb	(___fladd@b+2)^0,w,c
  4269   0017B0  502C               	movf	(___fladd@b+3)^0,w,c
  4270   0017B2  0A80               	xorlw	128
  4271   0017B4  6E31               	movwf	??___fladd^0,c
  4272   0017B6  5030               	movf	(___fladd@a+3)^0,w,c
  4273   0017B8  0A80               	xorlw	128
  4274   0017BA  5831               	subwfb	??___fladd^0,w,c
  4275   0017BC  B0D8               	btfsc	status,0,c
  4276   0017BE  EFE3  F00B         	goto	u4761
  4277   0017C2  EFE5  F00B         	goto	u4760
  4278   0017C6                     u4761:
  4279   0017C6  EF10  F00C         	goto	l6014
  4280   0017CA                     u4760:
  4281   0017CA  5029               	movf	___fladd@b^0,w,c
  4282   0017CC  5C2D               	subwf	___fladd@a^0,w,c
  4283   0017CE  6E31               	movwf	??___fladd^0,c
  4284   0017D0  502A               	movf	(___fladd@b+1)^0,w,c
  4285   0017D2  582E               	subwfb	(___fladd@a+1)^0,w,c
  4286   0017D4  6E32               	movwf	(??___fladd+1)^0,c
  4287   0017D6  502B               	movf	(___fladd@b+2)^0,w,c
  4288   0017D8  582F               	subwfb	(___fladd@a+2)^0,w,c
  4289   0017DA  6E33               	movwf	(??___fladd+2)^0,c
  4290   0017DC  502C               	movf	(___fladd@b+3)^0,w,c
  4291   0017DE  5830               	subwfb	(___fladd@a+3)^0,w,c
  4292   0017E0  6E34               	movwf	(??___fladd+3)^0,c
  4293   0017E2  0EFF               	movlw	255
  4294   0017E4  2431               	addwf	??___fladd^0,w,c
  4295   0017E6  6E29               	movwf	___fladd@b^0,c
  4296   0017E8  0EFF               	movlw	255
  4297   0017EA  2032               	addwfc	(??___fladd+1)^0,w,c
  4298   0017EC  6E2A               	movwf	(___fladd@b+1)^0,c
  4299   0017EE  0EFF               	movlw	255
  4300   0017F0  2033               	addwfc	(??___fladd+2)^0,w,c
  4301   0017F2  6E2B               	movwf	(___fladd@b+2)^0,c
  4302   0017F4  0EFF               	movlw	255
  4303   0017F6  2034               	addwfc	(??___fladd+3)^0,w,c
  4304   0017F8  6E2C               	movwf	(___fladd@b+3)^0,c
  4305   0017FA  0E80               	movlw	128
  4306   0017FC  1A35               	xorwf	___fladd@signs^0,f,c
  4307   0017FE  6C38               	negf	___fladd@grs^0,c
  4308   001800  5038               	movf	___fladd@grs^0,w,c
  4309   001802  A4D8               	btfss	status,2,c
  4310   001804  EF06  F00C         	goto	u4771
  4311   001808  EF08  F00C         	goto	u4770
  4312   00180C                     u4771:
  4313   00180C  EF18  F00C         	goto	l2385
  4314   001810                     u4770:
  4315   001810  0E01               	movlw	1
  4316   001812  2629               	addwf	___fladd@b^0,f,c
  4317   001814  0E00               	movlw	0
  4318   001816  222A               	addwfc	(___fladd@b+1)^0,f,c
  4319   001818  222B               	addwfc	(___fladd@b+2)^0,f,c
  4320   00181A  222C               	addwfc	(___fladd@b+3)^0,f,c
  4321   00181C  EF18  F00C         	goto	l2385
  4322   001820                     l6014:
  4323   001820  502D               	movf	___fladd@a^0,w,c
  4324   001822  5E29               	subwf	___fladd@b^0,f,c
  4325   001824  502E               	movf	(___fladd@a+1)^0,w,c
  4326   001826  5A2A               	subwfb	(___fladd@b+1)^0,f,c
  4327   001828  502F               	movf	(___fladd@a+2)^0,w,c
  4328   00182A  5A2B               	subwfb	(___fladd@b+2)^0,f,c
  4329   00182C  5030               	movf	(___fladd@a+3)^0,w,c
  4330   00182E  5A2C               	subwfb	(___fladd@b+3)^0,f,c
  4331   001830                     l2385:
  4332   001830  5029               	movf	___fladd@b^0,w,c
  4333   001832  102A               	iorwf	(___fladd@b+1)^0,w,c
  4334   001834  102B               	iorwf	(___fladd@b+2)^0,w,c
  4335   001836  102C               	iorwf	(___fladd@b+3)^0,w,c
  4336   001838  A4D8               	btfss	status,2,c
  4337   00183A  EF21  F00C         	goto	u4781
  4338   00183E  EF23  F00C         	goto	u4780
  4339   001842                     u4781:
  4340   001842  EF58  F00C         	goto	l6038
  4341   001846                     u4780:
  4342   001846  5038               	movf	___fladd@grs^0,w,c
  4343   001848  A4D8               	btfss	status,2,c
  4344   00184A  EF29  F00C         	goto	u4791
  4345   00184E  EF2B  F00C         	goto	u4790
  4346   001852                     u4791:
  4347   001852  EF58  F00C         	goto	l6038
  4348   001856                     u4790:
  4349   001856  0E00               	movlw	0
  4350   001858  6E29               	movwf	?___fladd^0,c
  4351   00185A  0E00               	movlw	0
  4352   00185C  6E2A               	movwf	(?___fladd+1)^0,c
  4353   00185E  0E00               	movlw	0
  4354   001860  6E2B               	movwf	(?___fladd+2)^0,c
  4355   001862  0E00               	movlw	0
  4356   001864  6E2C               	movwf	(?___fladd+3)^0,c
  4357   001866  EFF3  F00C         	goto	l2377
  4358   00186A                     l6022:
  4359   00186A  90D8               	bcf	status,0,c
  4360   00186C  3629               	rlcf	___fladd@b^0,f,c
  4361   00186E  362A               	rlcf	(___fladd@b+1)^0,f,c
  4362   001870  362B               	rlcf	(___fladd@b+2)^0,f,c
  4363   001872  362C               	rlcf	(___fladd@b+3)^0,f,c
  4364   001874  AE38               	btfss	___fladd@grs^0,7,c
  4365   001876  EF3F  F00C         	goto	u4801
  4366   00187A  EF41  F00C         	goto	u4800
  4367   00187E                     u4801:
  4368   00187E  EF42  F00C         	goto	l6028
  4369   001882                     u4800:
  4370   001882  8029               	bsf	___fladd@b^0,0,c
  4371   001884                     l6028:
  4372   001884  A038               	btfss	___fladd@grs^0,0,c
  4373   001886  EF47  F00C         	goto	u4811
  4374   00188A  EF49  F00C         	goto	u4810
  4375   00188E                     u4811:
  4376   00188E  EF4D  F00C         	goto	l6032
  4377   001892                     u4810:
  4378   001892  80D8               	bsf	status,0,c
  4379   001894  3638               	rlcf	___fladd@grs^0,f,c
  4380   001896  EF4F  F00C         	goto	l6034
  4381   00189A                     l6032:
  4382   00189A  90D8               	bcf	status,0,c
  4383   00189C  3638               	rlcf	___fladd@grs^0,f,c
  4384   00189E                     l6034:
  4385   00189E  5037               	movf	___fladd@bexp^0,w,c
  4386   0018A0  B4D8               	btfsc	status,2,c
  4387   0018A2  EF55  F00C         	goto	u4821
  4388   0018A6  EF57  F00C         	goto	u4820
  4389   0018AA                     u4821:
  4390   0018AA  EF58  F00C         	goto	l6038
  4391   0018AE                     u4820:
  4392   0018AE  0637               	decf	___fladd@bexp^0,f,c
  4393   0018B0                     l6038:
  4394   0018B0  AE2B               	btfss	(___fladd@b+2)^0,7,c
  4395   0018B2  EF5D  F00C         	goto	u4831
  4396   0018B6  EF5F  F00C         	goto	u4830
  4397   0018BA                     u4831:
  4398   0018BA  EF35  F00C         	goto	l6022
  4399   0018BE                     u4830:
  4400   0018BE                     l6040:
  4401   0018BE  0E00               	movlw	0
  4402   0018C0  6E36               	movwf	___fladd@aexp^0,c
  4403   0018C2  AE38               	btfss	___fladd@grs^0,7,c
  4404   0018C4  EF66  F00C         	goto	u4841
  4405   0018C8  EF68  F00C         	goto	u4840
  4406   0018CC                     u4841:
  4407   0018CC  EF80  F00C         	goto	l2394
  4408   0018D0                     u4840:
  4409   0018D0  C038  F031         	movff	___fladd@grs,??___fladd
  4410   0018D4  0E7F               	movlw	127
  4411   0018D6  1631               	andwf	??___fladd^0,f,c
  4412   0018D8  B4D8               	btfsc	status,2,c
  4413   0018DA  EF71  F00C         	goto	u4851
  4414   0018DE  EF73  F00C         	goto	u4850
  4415   0018E2                     u4851:
  4416   0018E2  EF77  F00C         	goto	l2395
  4417   0018E6                     u4850:
  4418   0018E6                     l6046:
  4419   0018E6  0E01               	movlw	1
  4420   0018E8  6E36               	movwf	___fladd@aexp^0,c
  4421   0018EA  EF80  F00C         	goto	l2394
  4422   0018EE                     l2395:
  4423   0018EE  A029               	btfss	___fladd@b^0,0,c
  4424   0018F0  EF7C  F00C         	goto	u4861
  4425   0018F4  EF7E  F00C         	goto	u4860
  4426   0018F8                     u4861:
  4427   0018F8  EF80  F00C         	goto	l2394
  4428   0018FC                     u4860:
  4429   0018FC  EF73  F00C         	goto	l6046
  4430   001900                     l2394:
  4431   001900  5036               	movf	___fladd@aexp^0,w,c
  4432   001902  B4D8               	btfsc	status,2,c
  4433   001904  EF86  F00C         	goto	u4871
  4434   001908  EF88  F00C         	goto	u4870
  4435   00190C                     u4871:
  4436   00190C  EFB3  F00C         	goto	l6058
  4437   001910                     u4870:
  4438   001910  0E01               	movlw	1
  4439   001912  2629               	addwf	___fladd@b^0,f,c
  4440   001914  0E00               	movlw	0
  4441   001916  222A               	addwfc	(___fladd@b+1)^0,f,c
  4442   001918  222B               	addwfc	(___fladd@b+2)^0,f,c
  4443   00191A  222C               	addwfc	(___fladd@b+3)^0,f,c
  4444   00191C  A02C               	btfss	(___fladd@b+3)^0,0,c
  4445   00191E  EF93  F00C         	goto	u4881
  4446   001922  EF95  F00C         	goto	u4880
  4447   001926                     u4881:
  4448   001926  EFB3  F00C         	goto	l6058
  4449   00192A                     u4880:
  4450   00192A  C029  F031         	movff	___fladd@b,??___fladd
  4451   00192E  C02A  F032         	movff	___fladd@b+1,??___fladd+1
  4452   001932  C02B  F033         	movff	___fladd@b+2,??___fladd+2
  4453   001936  C02C  F034         	movff	___fladd@b+3,??___fladd+3
  4454   00193A  3434               	rlcf	(??___fladd+3)^0,w,c
  4455   00193C  3234               	rrcf	(??___fladd+3)^0,f,c
  4456   00193E  3233               	rrcf	(??___fladd+2)^0,f,c
  4457   001940  3232               	rrcf	(??___fladd+1)^0,f,c
  4458   001942  3231               	rrcf	??___fladd^0,f,c
  4459   001944  C031  F029         	movff	??___fladd,___fladd@b
  4460   001948  C032  F02A         	movff	??___fladd+1,___fladd@b+1
  4461   00194C  C033  F02B         	movff	??___fladd+2,___fladd@b+2
  4462   001950  C034  F02C         	movff	??___fladd+3,___fladd@b+3
  4463   001954  2837               	incf	___fladd@bexp^0,w,c
  4464   001956  B4D8               	btfsc	status,2,c
  4465   001958  EFB0  F00C         	goto	u4891
  4466   00195C  EFB2  F00C         	goto	u4890
  4467   001960                     u4891:
  4468   001960  EFB3  F00C         	goto	l6058
  4469   001964                     u4890:
  4470   001964  2A37               	incf	___fladd@bexp^0,f,c
  4471   001966                     l6058:
  4472   001966  2837               	incf	___fladd@bexp^0,w,c
  4473   001968  B4D8               	btfsc	status,2,c
  4474   00196A  EFB9  F00C         	goto	u4901
  4475   00196E  EFBB  F00C         	goto	u4900
  4476   001972                     u4901:
  4477   001972  EFC3  F00C         	goto	l6062
  4478   001976                     u4900:
  4479   001976  5037               	movf	___fladd@bexp^0,w,c
  4480   001978  A4D8               	btfss	status,2,c
  4481   00197A  EFC1  F00C         	goto	u4911
  4482   00197E  EFC3  F00C         	goto	u4910
  4483   001982                     u4911:
  4484   001982  EFD5  F00C         	goto	l6066
  4485   001986                     u4910:
  4486   001986                     l6062:
  4487   001986  0E00               	movlw	0
  4488   001988  6E29               	movwf	___fladd@b^0,c
  4489   00198A  0E00               	movlw	0
  4490   00198C  6E2A               	movwf	(___fladd@b+1)^0,c
  4491   00198E  0E00               	movlw	0
  4492   001990  6E2B               	movwf	(___fladd@b+2)^0,c
  4493   001992  0E00               	movlw	0
  4494   001994  6E2C               	movwf	(___fladd@b+3)^0,c
  4495   001996  5037               	movf	___fladd@bexp^0,w,c
  4496   001998  A4D8               	btfss	status,2,c
  4497   00199A  EFD1  F00C         	goto	u4921
  4498   00199E  EFD3  F00C         	goto	u4920
  4499   0019A2                     u4921:
  4500   0019A2  EFD5  F00C         	goto	l6066
  4501   0019A6                     u4920:
  4502   0019A6  0E00               	movlw	0
  4503   0019A8  6E35               	movwf	___fladd@signs^0,c
  4504   0019AA                     l6066:
  4505   0019AA  A037               	btfss	___fladd@bexp^0,0,c
  4506   0019AC  EFDA  F00C         	goto	u4931
  4507   0019B0  EFDC  F00C         	goto	u4930
  4508   0019B4                     u4931:
  4509   0019B4  EFDF  F00C         	goto	l6070
  4510   0019B8                     u4930:
  4511   0019B8  8E2B               	bsf	(___fladd@b+2)^0,7,c
  4512   0019BA  EFE0  F00C         	goto	l6072
  4513   0019BE                     l6070:
  4514   0019BE  9E2B               	bcf	(___fladd@b+2)^0,7,c
  4515   0019C0                     l6072:
  4516   0019C0  90D8               	bcf	status,0,c
  4517   0019C2  3037               	rrcf	___fladd@bexp^0,w,c
  4518   0019C4  6E2C               	movwf	(___fladd@b+3)^0,c
  4519   0019C6  AE35               	btfss	___fladd@signs^0,7,c
  4520   0019C8  EFE8  F00C         	goto	u4941
  4521   0019CC  EFEA  F00C         	goto	u4940
  4522   0019D0                     u4941:
  4523   0019D0  EFEB  F00C         	goto	l6078
  4524   0019D4                     u4940:
  4525   0019D4  8E2C               	bsf	(___fladd@b+3)^0,7,c
  4526   0019D6                     l6078:
  4527   0019D6  C029  F029         	movff	___fladd@b,?___fladd
  4528   0019DA  C02A  F02A         	movff	___fladd@b+1,?___fladd+1
  4529   0019DE  C02B  F02B         	movff	___fladd@b+2,?___fladd+2
  4530   0019E2  C02C  F02C         	movff	___fladd@b+3,?___fladd+3
  4531   0019E6                     l2377:
  4532   0019E6  0012               	return		;funcret
  4533   0019E8                     __end_of___fladd:
  4534                           	callstack 0
  4535                           
  4536 ;; *************** function _EUSART_ASYNC_TX_INIT *****************
  4537 ;; Defined at:
  4538 ;;		line 311 in file "MCAL_Layer/eusart/hal_eusart.c"
  4539 ;; Parameters:    Size  Location     Type
  4540 ;;  usart           2    1[COMRAM] PTR const struct .
  4541 ;;		 -> usart1(20), 
  4542 ;; Auto vars:     Size  Location     Type
  4543 ;;  ret             1    0        unsigned char 
  4544 ;; Return value:  Size  Location     Type
  4545 ;;                  1    wreg      unsigned char 
  4546 ;; Registers used:
  4547 ;;		wreg, fsr2l, fsr2h, status,2, status,0
  4548 ;; Tracked objects:
  4549 ;;		On entry : 0/0
  4550 ;;		On exit  : 0/0
  4551 ;;		Unchanged: 0/0
  4552 ;; Data sizes:     COMRAM   BANK0   BANK1   BANK2   BANK3   BANK4   BANK5   BANK6   BANK7   BANK8   BANK9  BANK10  BANK1
      +1  BANK12  BANK13  BANK14  BANK15
  4553 ;;      Params:         2       0       0       0       0       0       0       0       0       0       0       0       
      +0       0       0       0       0
  4554 ;;      Locals:         0       0       0       0       0       0       0       0       0       0       0       0       
      +0       0       0       0       0
  4555 ;;      Temps:          0       0       0       0       0       0       0       0       0       0       0       0       
      +0       0       0       0       0
  4556 ;;      Totals:         2       0       0       0       0       0       0       0       0       0       0       0       
      +0       0       0       0       0
  4557 ;;Total ram usage:        2 bytes
  4558 ;; Hardware stack levels used: 1
  4559 ;; Hardware stack levels required when called: 2
  4560 ;; This function calls:
  4561 ;;		Nothing
  4562 ;; This function is called by:
  4563 ;;		_EUSART_ASYNC_INIT
  4564 ;; This function uses a non-reentrant model
  4565 ;;
  4566                           
  4567                           	psect	text19
  4568   002474                     __ptext19:
  4569                           	callstack 0
  4570   002474                     _EUSART_ASYNC_TX_INIT:
  4571                           	callstack 26
  4572   002474                     
  4573                           ;MCAL_Layer/eusart/hal_eusart.c: 313:     if (((void*)0) == usart) {
  4574   002474  5002               	movf	EUSART_ASYNC_TX_INIT@usart^0,w,c
  4575   002476  1003               	iorwf	(EUSART_ASYNC_TX_INIT@usart+1)^0,w,c
  4576   002478  A4D8               	btfss	status,2,c
  4577   00247A  EF41  F012         	goto	u5441
  4578   00247E  EF43  F012         	goto	u5440
  4579   002482                     u5441:
  4580   002482  EF45  F012         	goto	l6428
  4581   002486                     u5440:
  4582   002486                     
  4583                           ;MCAL_Layer/eusart/hal_eusart.c: 315:     } else {
  4584   002486  EF9B  F012         	goto	l877
  4585   00248A                     l6428:
  4586                           
  4587                           ;MCAL_Layer/eusart/hal_eusart.c: 316:         if (usart->usart_tx_cfg.usart_tx_enable ==
      +                           1) {
  4588   00248A  EE20 F005          	lfsr	2,5
  4589   00248E  5002               	movf	EUSART_ASYNC_TX_INIT@usart^0,w,c
  4590   002490  26D9               	addwf	fsr2l,f,c
  4591   002492  5003               	movf	(EUSART_ASYNC_TX_INIT@usart+1)^0,w,c
  4592   002494  22DA               	addwfc	fsr2h,f,c
  4593   002496  A0DF               	btfss	indf2,0,c
  4594   002498  EF50  F012         	goto	u5451
  4595   00249C  EF52  F012         	goto	u5450
  4596   0024A0                     u5451:
  4597   0024A0  EF6F  F012         	goto	l6438
  4598   0024A4                     u5450:
  4599   0024A4                     
  4600                           ;MCAL_Layer/eusart/hal_eusart.c: 317:             TXSTAbits.TXEN = 1;
  4601   0024A4  8AAC               	bsf	172,5,c	;volatile
  4602   0024A6                     
  4603                           ;MCAL_Layer/eusart/hal_eusart.c: 319:             if (usart->usart_tx_cfg.usart_tx_inter
      +                          upt_enable == 1) {
  4604   0024A6  EE20 F005          	lfsr	2,5
  4605   0024AA  5002               	movf	EUSART_ASYNC_TX_INIT@usart^0,w,c
  4606   0024AC  26D9               	addwf	fsr2l,f,c
  4607   0024AE  5003               	movf	(EUSART_ASYNC_TX_INIT@usart+1)^0,w,c
  4608   0024B0  22DA               	addwfc	fsr2h,f,c
  4609   0024B2  A2DF               	btfss	indf2,1,c
  4610   0024B4  EF5E  F012         	goto	u5461
  4611   0024B8  EF60  F012         	goto	u5460
  4612   0024BC                     u5461:
  4613   0024BC  EF7D  F012         	goto	l6442
  4614   0024C0                     u5460:
  4615   0024C0                     
  4616                           ;MCAL_Layer/eusart/hal_eusart.c: 321:                 (PIE1bits.TXIE = 1);
  4617   0024C0  889D               	bsf	157,4,c	;volatile
  4618                           
  4619                           ;MCAL_Layer/eusart/hal_eusart.c: 333:                 (INTCONbits.GIE = 1);
  4620   0024C2  8EF2               	bsf	242,7,c	;volatile
  4621                           
  4622                           ;MCAL_Layer/eusart/hal_eusart.c: 334:                 (INTCONbits.PEIE = 1);
  4623   0024C4  8CF2               	bsf	242,6,c	;volatile
  4624   0024C6                     
  4625                           ;MCAL_Layer/eusart/hal_eusart.c: 336:                 EUSART_TX_Interrupt_Handler = usar
      +                          t->EUSART_TX_INTERRUPT_HANDLER;
  4626   0024C6  EE20 F00C          	lfsr	2,12
  4627   0024CA  5002               	movf	EUSART_ASYNC_TX_INIT@usart^0,w,c
  4628   0024CC  26D9               	addwf	fsr2l,f,c
  4629   0024CE  5003               	movf	(EUSART_ASYNC_TX_INIT@usart+1)^0,w,c
  4630   0024D0  22DA               	addwfc	fsr2h,f,c
  4631   0024D2  CFDE F0A6          	movff	postinc2,_EUSART_TX_Interrupt_Handler
  4632   0024D6  CFDD F0A7          	movff	postdec2,_EUSART_TX_Interrupt_Handler+1
  4633   0024DA  EF7D  F012         	goto	l6442
  4634   0024DE                     l6438:
  4635   0024DE  EE20 F005          	lfsr	2,5
  4636   0024E2  5002               	movf	EUSART_ASYNC_TX_INIT@usart^0,w,c
  4637   0024E4  26D9               	addwf	fsr2l,f,c
  4638   0024E6  5003               	movf	(EUSART_ASYNC_TX_INIT@usart+1)^0,w,c
  4639   0024E8  22DA               	addwfc	fsr2h,f,c
  4640   0024EA  B2DF               	btfsc	indf2,1,c
  4641   0024EC  EF7A  F012         	goto	u5471
  4642   0024F0  EF7C  F012         	goto	u5470
  4643   0024F4                     u5471:
  4644   0024F4  EF7D  F012         	goto	l6442
  4645   0024F8                     u5470:
  4646   0024F8                     
  4647                           ;MCAL_Layer/eusart/hal_eusart.c: 340:             (PIE1bits.TXIE= 0);
  4648   0024F8  989D               	bcf	157,4,c	;volatile
  4649   0024FA                     l6442:
  4650                           
  4651                           ;MCAL_Layer/eusart/hal_eusart.c: 344:         if (usart->usart_tx_cfg.usart_tx_9bit_enab
      +                          le == 1) {
  4652   0024FA  EE20 F005          	lfsr	2,5
  4653   0024FE  5002               	movf	EUSART_ASYNC_TX_INIT@usart^0,w,c
  4654   002500  26D9               	addwf	fsr2l,f,c
  4655   002502  5003               	movf	(EUSART_ASYNC_TX_INIT@usart+1)^0,w,c
  4656   002504  22DA               	addwfc	fsr2h,f,c
  4657   002506  A4DF               	btfss	indf2,2,c
  4658   002508  EF88  F012         	goto	u5481
  4659   00250C  EF8A  F012         	goto	u5480
  4660   002510                     u5481:
  4661   002510  EF8D  F012         	goto	l6446
  4662   002514                     u5480:
  4663   002514                     
  4664                           ;MCAL_Layer/eusart/hal_eusart.c: 345:             TXSTAbits.TX9D = 1;
  4665   002514  80AC               	bsf	172,0,c	;volatile
  4666                           
  4667                           ;MCAL_Layer/eusart/hal_eusart.c: 346:         } else if (usart->usart_tx_cfg.usart_tx_9b
      +                          it_enable == 0) {
  4668   002516  EF9B  F012         	goto	l6450
  4669   00251A                     l6446:
  4670   00251A  EE20 F005          	lfsr	2,5
  4671   00251E  5002               	movf	EUSART_ASYNC_TX_INIT@usart^0,w,c
  4672   002520  26D9               	addwf	fsr2l,f,c
  4673   002522  5003               	movf	(EUSART_ASYNC_TX_INIT@usart+1)^0,w,c
  4674   002524  22DA               	addwfc	fsr2h,f,c
  4675   002526  B4DF               	btfsc	indf2,2,c
  4676   002528  EF98  F012         	goto	u5491
  4677   00252C  EF9A  F012         	goto	u5490
  4678   002530                     u5491:
  4679   002530  EF9B  F012         	goto	l6450
  4680   002534                     u5490:
  4681   002534                     
  4682                           ;MCAL_Layer/eusart/hal_eusart.c: 347:             TXSTAbits.TX9D = 0;
  4683   002534  90AC               	bcf	172,0,c	;volatile
  4684   002536                     l6450:
  4685   002536                     l877:
  4686   002536  0012               	return		;funcret
  4687   002538                     __end_of_EUSART_ASYNC_TX_INIT:
  4688                           	callstack 0
  4689                           
  4690 ;; *************** function _EUSART_ASYNC_RX_INIT *****************
  4691 ;; Defined at:
  4692 ;;		line 372 in file "MCAL_Layer/eusart/hal_eusart.c"
  4693 ;; Parameters:    Size  Location     Type
  4694 ;;  usart           2    1[COMRAM] PTR const struct .
  4695 ;;		 -> usart1(20), 
  4696 ;; Auto vars:     Size  Location     Type
  4697 ;;  ret             1    0        unsigned char 
  4698 ;; Return value:  Size  Location     Type
  4699 ;;                  1    wreg      unsigned char 
  4700 ;; Registers used:
  4701 ;;		wreg, fsr2l, fsr2h, status,2, status,0
  4702 ;; Tracked objects:
  4703 ;;		On entry : 0/0
  4704 ;;		On exit  : 0/0
  4705 ;;		Unchanged: 0/0
  4706 ;; Data sizes:     COMRAM   BANK0   BANK1   BANK2   BANK3   BANK4   BANK5   BANK6   BANK7   BANK8   BANK9  BANK10  BANK1
      +1  BANK12  BANK13  BANK14  BANK15
  4707 ;;      Params:         2       0       0       0       0       0       0       0       0       0       0       0       
      +0       0       0       0       0
  4708 ;;      Locals:         0       0       0       0       0       0       0       0       0       0       0       0       
      +0       0       0       0       0
  4709 ;;      Temps:          0       0       0       0       0       0       0       0       0       0       0       0       
      +0       0       0       0       0
  4710 ;;      Totals:         2       0       0       0       0       0       0       0       0       0       0       0       
      +0       0       0       0       0
  4711 ;;Total ram usage:        2 bytes
  4712 ;; Hardware stack levels used: 1
  4713 ;; Hardware stack levels required when called: 2
  4714 ;; This function calls:
  4715 ;;		Nothing
  4716 ;; This function is called by:
  4717 ;;		_EUSART_ASYNC_INIT
  4718 ;; This function uses a non-reentrant model
  4719 ;;
  4720                           
  4721                           	psect	text20
  4722   002388                     __ptext20:
  4723                           	callstack 0
  4724   002388                     _EUSART_ASYNC_RX_INIT:
  4725                           	callstack 26
  4726   002388                     
  4727                           ;MCAL_Layer/eusart/hal_eusart.c: 374:     if (((void*)0) == usart) {
  4728   002388  5002               	movf	EUSART_ASYNC_RX_INIT@usart^0,w,c
  4729   00238A  1003               	iorwf	(EUSART_ASYNC_RX_INIT@usart+1)^0,w,c
  4730   00238C  A4D8               	btfss	status,2,c
  4731   00238E  EFCB  F011         	goto	u5501
  4732   002392  EFCD  F011         	goto	u5500
  4733   002396                     u5501:
  4734   002396  EFCF  F011         	goto	l6460
  4735   00239A                     u5500:
  4736   00239A                     
  4737                           ;MCAL_Layer/eusart/hal_eusart.c: 376:     } else {
  4738   00239A  EF39  F012         	goto	l891
  4739   00239E                     l6460:
  4740                           
  4741                           ;MCAL_Layer/eusart/hal_eusart.c: 377:         if (usart->usart_rx_cfg.usart_rx_enable ==
      +                           1) {
  4742   00239E  EE20 F008          	lfsr	2,8
  4743   0023A2  5002               	movf	EUSART_ASYNC_RX_INIT@usart^0,w,c
  4744   0023A4  26D9               	addwf	fsr2l,f,c
  4745   0023A6  5003               	movf	(EUSART_ASYNC_RX_INIT@usart+1)^0,w,c
  4746   0023A8  22DA               	addwfc	fsr2h,f,c
  4747   0023AA  A0DF               	btfss	indf2,0,c
  4748   0023AC  EFDA  F011         	goto	u5511
  4749   0023B0  EFDC  F011         	goto	u5510
  4750   0023B4                     u5511:
  4751   0023B4  EF0D  F012         	goto	l6470
  4752   0023B8                     u5510:
  4753   0023B8                     
  4754                           ;MCAL_Layer/eusart/hal_eusart.c: 378:             RCSTAbits.CREN = 1;
  4755   0023B8  88AB               	bsf	171,4,c	;volatile
  4756   0023BA                     
  4757                           ;MCAL_Layer/eusart/hal_eusart.c: 380:             if (usart->usart_rx_cfg.usart_rx_inter
      +                          upt_enable == 1) {
  4758   0023BA  EE20 F008          	lfsr	2,8
  4759   0023BE  5002               	movf	EUSART_ASYNC_RX_INIT@usart^0,w,c
  4760   0023C0  26D9               	addwf	fsr2l,f,c
  4761   0023C2  5003               	movf	(EUSART_ASYNC_RX_INIT@usart+1)^0,w,c
  4762   0023C4  22DA               	addwfc	fsr2h,f,c
  4763   0023C6  A2DF               	btfss	indf2,1,c
  4764   0023C8  EFE8  F011         	goto	u5521
  4765   0023CC  EFEA  F011         	goto	u5520
  4766   0023D0                     u5521:
  4767   0023D0  EF1B  F012         	goto	l6474
  4768   0023D4                     u5520:
  4769   0023D4                     
  4770                           ;MCAL_Layer/eusart/hal_eusart.c: 382:                 (PIE1bits.RCIE = 1);
  4771   0023D4  8A9D               	bsf	157,5,c	;volatile
  4772                           
  4773                           ;MCAL_Layer/eusart/hal_eusart.c: 394:                 (INTCONbits.GIE = 1);
  4774   0023D6  8EF2               	bsf	242,7,c	;volatile
  4775                           
  4776                           ;MCAL_Layer/eusart/hal_eusart.c: 395:                 (INTCONbits.PEIE = 1);
  4777   0023D8  8CF2               	bsf	242,6,c	;volatile
  4778   0023DA                     
  4779                           ;MCAL_Layer/eusart/hal_eusart.c: 397:                 EUSART_RX_Interrupt_Handler = usar
      +                          t->EUSART_RX_INTERRUPT_HANDLER;
  4780   0023DA  EE20 F00E          	lfsr	2,14
  4781   0023DE  5002               	movf	EUSART_ASYNC_RX_INIT@usart^0,w,c
  4782   0023E0  26D9               	addwf	fsr2l,f,c
  4783   0023E2  5003               	movf	(EUSART_ASYNC_RX_INIT@usart+1)^0,w,c
  4784   0023E4  22DA               	addwfc	fsr2h,f,c
  4785   0023E6  CFDE F0A4          	movff	postinc2,_EUSART_RX_Interrupt_Handler
  4786   0023EA  CFDD F0A5          	movff	postdec2,_EUSART_RX_Interrupt_Handler+1
  4787                           
  4788                           ;MCAL_Layer/eusart/hal_eusart.c: 398:                 EUSART_FramingError_Handler = usar
      +                          t->EUSART_FRAMING_INTERRUPT_HANDLER;
  4789   0023EE  EE20 F010          	lfsr	2,16
  4790   0023F2  5002               	movf	EUSART_ASYNC_RX_INIT@usart^0,w,c
  4791   0023F4  26D9               	addwf	fsr2l,f,c
  4792   0023F6  5003               	movf	(EUSART_ASYNC_RX_INIT@usart+1)^0,w,c
  4793   0023F8  22DA               	addwfc	fsr2h,f,c
  4794   0023FA  CFDE F0A2          	movff	postinc2,_EUSART_FramingError_Handler
  4795   0023FE  CFDD F0A3          	movff	postdec2,_EUSART_FramingError_Handler+1
  4796                           
  4797                           ;MCAL_Layer/eusart/hal_eusart.c: 399:                 EUSART_OverrunError_Handler = usar
      +                          t->EUSART_OVERRUN_INTERRUPT_HANDLER;
  4798   002402  EE20 F012          	lfsr	2,18
  4799   002406  5002               	movf	EUSART_ASYNC_RX_INIT@usart^0,w,c
  4800   002408  26D9               	addwf	fsr2l,f,c
  4801   00240A  5003               	movf	(EUSART_ASYNC_RX_INIT@usart+1)^0,w,c
  4802   00240C  22DA               	addwfc	fsr2h,f,c
  4803   00240E  CFDE F0A0          	movff	postinc2,_EUSART_OverrunError_Handler
  4804   002412  CFDD F0A1          	movff	postdec2,_EUSART_OverrunError_Handler+1
  4805   002416  EF1B  F012         	goto	l6474
  4806   00241A                     l6470:
  4807   00241A  EE20 F008          	lfsr	2,8
  4808   00241E  5002               	movf	EUSART_ASYNC_RX_INIT@usart^0,w,c
  4809   002420  26D9               	addwf	fsr2l,f,c
  4810   002422  5003               	movf	(EUSART_ASYNC_RX_INIT@usart+1)^0,w,c
  4811   002424  22DA               	addwfc	fsr2h,f,c
  4812   002426  B2DF               	btfsc	indf2,1,c
  4813   002428  EF18  F012         	goto	u5531
  4814   00242C  EF1A  F012         	goto	u5530
  4815   002430                     u5531:
  4816   002430  EF1B  F012         	goto	l6474
  4817   002434                     u5530:
  4818   002434                     
  4819                           ;MCAL_Layer/eusart/hal_eusart.c: 403:             (PIE1bits.RCIE= 0);
  4820   002434  9A9D               	bcf	157,5,c	;volatile
  4821   002436                     l6474:
  4822                           
  4823                           ;MCAL_Layer/eusart/hal_eusart.c: 407:         if (usart->usart_rx_cfg.usart_rx_9bit_enab
      +                          le == 1) {
  4824   002436  EE20 F008          	lfsr	2,8
  4825   00243A  5002               	movf	EUSART_ASYNC_RX_INIT@usart^0,w,c
  4826   00243C  26D9               	addwf	fsr2l,f,c
  4827   00243E  5003               	movf	(EUSART_ASYNC_RX_INIT@usart+1)^0,w,c
  4828   002440  22DA               	addwfc	fsr2h,f,c
  4829   002442  A4DF               	btfss	indf2,2,c
  4830   002444  EF26  F012         	goto	u5541
  4831   002448  EF28  F012         	goto	u5540
  4832   00244C                     u5541:
  4833   00244C  EF2B  F012         	goto	l6478
  4834   002450                     u5540:
  4835   002450                     
  4836                           ;MCAL_Layer/eusart/hal_eusart.c: 408:             RCSTAbits.RC9 = 1;
  4837   002450  8CAB               	bsf	171,6,c	;volatile
  4838                           
  4839                           ;MCAL_Layer/eusart/hal_eusart.c: 409:         } else if (usart->usart_rx_cfg.usart_rx_9b
      +                          it_enable == 0) {
  4840   002452  EF39  F012         	goto	l6482
  4841   002456                     l6478:
  4842   002456  EE20 F008          	lfsr	2,8
  4843   00245A  5002               	movf	EUSART_ASYNC_RX_INIT@usart^0,w,c
  4844   00245C  26D9               	addwf	fsr2l,f,c
  4845   00245E  5003               	movf	(EUSART_ASYNC_RX_INIT@usart+1)^0,w,c
  4846   002460  22DA               	addwfc	fsr2h,f,c
  4847   002462  B4DF               	btfsc	indf2,2,c
  4848   002464  EF36  F012         	goto	u5551
  4849   002468  EF38  F012         	goto	u5550
  4850   00246C                     u5551:
  4851   00246C  EF39  F012         	goto	l6482
  4852   002470                     u5550:
  4853   002470                     
  4854                           ;MCAL_Layer/eusart/hal_eusart.c: 410:             RCSTAbits.RC9 = 0;
  4855   002470  9CAB               	bcf	171,6,c	;volatile
  4856   002472                     l6482:
  4857   002472                     l891:
  4858   002472  0012               	return		;funcret
  4859   002474                     __end_of_EUSART_ASYNC_RX_INIT:
  4860                           	callstack 0
  4861                           
  4862 ;; *************** function _TempSensor_TC74_Read_Temp *****************
  4863 ;; Defined at:
  4864 ;;		line 13 in file "ECU_Layer/TempSensor_TC74/TempSensor_TC74.c"
  4865 ;; Parameters:    Size  Location     Type
  4866 ;;  TC74_Address    1    wreg     unsigned char 
  4867 ;; Auto vars:     Size  Location     Type
  4868 ;;  TC74_Address    1    5[COMRAM] unsigned char 
  4869 ;;  TC74_TempVal    1    6[COMRAM] unsigned char 
  4870 ;;  TC74_Read_Ad    1    4[COMRAM] unsigned char 
  4871 ;; Return value:  Size  Location     Type
  4872 ;;                  1    wreg      unsigned char 
  4873 ;; Registers used:
  4874 ;;		wreg, fsr2l, fsr2h, status,2, status,0, cstack
  4875 ;; Tracked objects:
  4876 ;;		On entry : 0/0
  4877 ;;		On exit  : 0/0
  4878 ;;		Unchanged: 0/0
  4879 ;; Data sizes:     COMRAM   BANK0   BANK1   BANK2   BANK3   BANK4   BANK5   BANK6   BANK7   BANK8   BANK9  BANK10  BANK1
      +1  BANK12  BANK13  BANK14  BANK15
  4880 ;;      Params:         0       0       0       0       0       0       0       0       0       0       0       0       
      +0       0       0       0       0
  4881 ;;      Locals:         3       0       0       0       0       0       0       0       0       0       0       0       
      +0       0       0       0       0
  4882 ;;      Temps:          0       0       0       0       0       0       0       0       0       0       0       0       
      +0       0       0       0       0
  4883 ;;      Totals:         3       0       0       0       0       0       0       0       0       0       0       0       
      +0       0       0       0       0
  4884 ;;Total ram usage:        3 bytes
  4885 ;; Hardware stack levels used: 1
  4886 ;; Hardware stack levels required when called: 3
  4887 ;; This function calls:
  4888 ;;		_MSSP_I2C_Master_Read_Blocking
  4889 ;;		_MSSP_I2C_Master_Send_Repeated_Start
  4890 ;;		_MSSP_I2C_Master_Send_Start
  4891 ;;		_MSSP_I2C_Master_Send_Stop
  4892 ;;		_MSSP_I2C_Master_Write_Blocking
  4893 ;; This function is called by:
  4894 ;;		_main
  4895 ;; This function uses a non-reentrant model
  4896 ;;
  4897                           
  4898                           	psect	text21
  4899   0029A2                     __ptext21:
  4900                           	callstack 0
  4901   0029A2                     _TempSensor_TC74_Read_Temp:
  4902                           	callstack 27
  4903                           
  4904                           ;incstack = 0
  4905                           ;TempSensor_TC74_Read_Temp@TC74_Address stored from wreg
  4906   0029A2  6E06               	movwf	TempSensor_TC74_Read_Temp@TC74_Address^0,c
  4907   0029A4                     
  4908                           ;ECU_Layer/TempSensor_TC74/TempSensor_TC74.c: 14:     uint8 TC74_TempVal = 0;
  4909   0029A4  0E00               	movlw	0
  4910   0029A6  6E07               	movwf	TempSensor_TC74_Read_Temp@TC74_TempVal^0,c
  4911   0029A8                     
  4912                           ;ECU_Layer/TempSensor_TC74/TempSensor_TC74.c: 16:     uint8 TC74_Read_Address = TC74_Add
      +                          ress | 0x01;
  4913   0029A8  5006               	movf	TempSensor_TC74_Read_Temp@TC74_Address^0,w,c
  4914   0029AA  0901               	iorlw	1
  4915   0029AC  6E05               	movwf	TempSensor_TC74_Read_Temp@TC74_Read_Address^0,c
  4916   0029AE                     
  4917                           ;ECU_Layer/TempSensor_TC74/TempSensor_TC74.c: 17:     MSSP_I2C_Master_Send_Start(&mssp_i
      +                          2c1);
  4918   0029AE  0EE4               	movlw	low _mssp_i2c1
  4919   0029B0  6E02               	movwf	MSSP_I2C_Master_Send_Start@i2c_obj^0,c
  4920   0029B2  EC4C  F016         	call	_MSSP_I2C_Master_Send_Start	;wreg free
  4921   0029B6                     
  4922                           ;ECU_Layer/TempSensor_TC74/TempSensor_TC74.c: 19:     MSSP_I2C_Master_Write_Blocking(&ms
      +                          sp_i2c1, TC74_Address, &ack);
  4923   0029B6  0EE4               	movlw	low _mssp_i2c1
  4924   0029B8  6E02               	movwf	MSSP_I2C_Master_Write_Blocking@i2c_obj^0,c
  4925   0029BA  C006  F003         	movff	TempSensor_TC74_Read_Temp@TC74_Address,MSSP_I2C_Master_Write_Blocking@i2c_data
  4926   0029BE  0E5A               	movlw	low _ack
  4927   0029C0  6E04               	movwf	MSSP_I2C_Master_Write_Blocking@ack^0,c
  4928   0029C2  EC9C  F014         	call	_MSSP_I2C_Master_Write_Blocking	;wreg free
  4929   0029C6                     
  4930                           ;ECU_Layer/TempSensor_TC74/TempSensor_TC74.c: 21:     MSSP_I2C_Master_Write_Blocking(&ms
      +                          sp_i2c1, 0x00, &ack);
  4931   0029C6  0EE4               	movlw	low _mssp_i2c1
  4932   0029C8  6E02               	movwf	MSSP_I2C_Master_Write_Blocking@i2c_obj^0,c
  4933   0029CA  0E00               	movlw	0
  4934   0029CC  6E03               	movwf	MSSP_I2C_Master_Write_Blocking@i2c_data^0,c
  4935   0029CE  0E5A               	movlw	low _ack
  4936   0029D0  6E04               	movwf	MSSP_I2C_Master_Write_Blocking@ack^0,c
  4937   0029D2  EC9C  F014         	call	_MSSP_I2C_Master_Write_Blocking	;wreg free
  4938   0029D6                     
  4939                           ;ECU_Layer/TempSensor_TC74/TempSensor_TC74.c: 23:     MSSP_I2C_Master_Send_Repeated_Star
      +                          t(&mssp_i2c1);
  4940   0029D6  0EE4               	movlw	low _mssp_i2c1
  4941   0029D8  6E02               	movwf	MSSP_I2C_Master_Send_Repeated_Start@i2c_obj^0,c
  4942   0029DA  EC7C  F016         	call	_MSSP_I2C_Master_Send_Repeated_Start	;wreg free
  4943   0029DE                     
  4944                           ;ECU_Layer/TempSensor_TC74/TempSensor_TC74.c: 25:     MSSP_I2C_Master_Write_Blocking(&ms
      +                          sp_i2c1, TC74_Read_Address, &ack);
  4945   0029DE  0EE4               	movlw	low _mssp_i2c1
  4946   0029E0  6E02               	movwf	MSSP_I2C_Master_Write_Blocking@i2c_obj^0,c
  4947   0029E2  C005  F003         	movff	TempSensor_TC74_Read_Temp@TC74_Read_Address,MSSP_I2C_Master_Write_Blocking@i2c_da
      +                          ta
  4948   0029E6  0E5A               	movlw	low _ack
  4949   0029E8  6E04               	movwf	MSSP_I2C_Master_Write_Blocking@ack^0,c
  4950   0029EA  EC9C  F014         	call	_MSSP_I2C_Master_Write_Blocking	;wreg free
  4951   0029EE                     
  4952                           ;ECU_Layer/TempSensor_TC74/TempSensor_TC74.c: 27:     MSSP_I2C_Master_Read_Blocking(&mss
      +                          p_i2c1, 1, &TC74_TempVal);
  4953   0029EE  0EE4               	movlw	low _mssp_i2c1
  4954   0029F0  6E02               	movwf	MSSP_I2C_Master_Read_Blocking@i2c_obj^0,c
  4955   0029F2  0E01               	movlw	1
  4956   0029F4  6E03               	movwf	MSSP_I2C_Master_Read_Blocking@ack^0,c
  4957   0029F6  0E07               	movlw	low TempSensor_TC74_Read_Temp@TC74_TempVal
  4958   0029F8  6E04               	movwf	MSSP_I2C_Master_Read_Blocking@i2c_data^0,c
  4959   0029FA  ECD6  F013         	call	_MSSP_I2C_Master_Read_Blocking	;wreg free
  4960   0029FE                     
  4961                           ;ECU_Layer/TempSensor_TC74/TempSensor_TC74.c: 29:     MSSP_I2C_Master_Send_Stop(&mssp_i2
      +                          c1);
  4962   0029FE  0EE4               	movlw	low _mssp_i2c1
  4963   002A00  6E02               	movwf	MSSP_I2C_Master_Send_Stop@i2c_obj^0,c
  4964   002A02  EC32  F016         	call	_MSSP_I2C_Master_Send_Stop	;wreg free
  4965   002A06                     
  4966                           ;ECU_Layer/TempSensor_TC74/TempSensor_TC74.c: 30:     return TC74_TempVal;
  4967   002A06  5007               	movf	TempSensor_TC74_Read_Temp@TC74_TempVal^0,w,c
  4968   002A08  0012               	return		;funcret
  4969   002A0A                     __end_of_TempSensor_TC74_Read_Temp:
  4970                           	callstack 0
  4971                           
  4972 ;; *************** function _RealTimeClockDS1307_Get_Date_Time *****************
  4973 ;; Defined at:
  4974 ;;		line 15 in file "ECU_Layer/RealTimeDS1307/RealTimeDS1307.c"
  4975 ;; Parameters:    Size  Location     Type
  4976 ;;		None
  4977 ;; Auto vars:     Size  Location     Type
  4978 ;;  i               1   17[COMRAM] unsigned char 
  4979 ;;  buffer          7   10[COMRAM] unsigned char [7]
  4980 ;; Return value:  Size  Location     Type
  4981 ;;                  6    4[COMRAM] struct .
  4982 ;; Registers used:
  4983 ;;		wreg, fsr0l, fsr0h, fsr2l, fsr2h, status,2, status,0, cstack
  4984 ;; Tracked objects:
  4985 ;;		On entry : 0/0
  4986 ;;		On exit  : 0/0
  4987 ;;		Unchanged: 0/0
  4988 ;; Data sizes:     COMRAM   BANK0   BANK1   BANK2   BANK3   BANK4   BANK5   BANK6   BANK7   BANK8   BANK9  BANK10  BANK1
      +1  BANK12  BANK13  BANK14  BANK15
  4989 ;;      Params:         6       0       0       0       0       0       0       0       0       0       0       0       
      +0       0       0       0       0
  4990 ;;      Locals:         8       0       0       0       0       0       0       0       0       0       0       0       
      +0       0       0       0       0
  4991 ;;      Temps:          0       0       0       0       0       0       0       0       0       0       0       0       
      +0       0       0       0       0
  4992 ;;      Totals:        14       0       0       0       0       0       0       0       0       0       0       0       
      +0       0       0       0       0
  4993 ;;Total ram usage:       14 bytes
  4994 ;; Hardware stack levels used: 1
  4995 ;; Hardware stack levels required when called: 3
  4996 ;; This function calls:
  4997 ;;		_MSSP_I2C_Master_Read_Blocking
  4998 ;;		_MSSP_I2C_Master_Send_Repeated_Start
  4999 ;;		_MSSP_I2C_Master_Send_Start
  5000 ;;		_MSSP_I2C_Master_Send_Stop
  5001 ;;		_MSSP_I2C_Master_Write_Blocking
  5002 ;; This function is called by:
  5003 ;;		_main
  5004 ;; This function uses a non-reentrant model
  5005 ;;
  5006                           
  5007                           	psect	text22
  5008   002538                     __ptext22:
  5009                           	callstack 0
  5010   002538                     _RealTimeClockDS1307_Get_Date_Time:
  5011                           	callstack 27
  5012   002538                     
  5013                           ;ECU_Layer/RealTimeDS1307/RealTimeDS1307.c: 16:     uint8 buffer[7];;ECU_Layer/RealTimeD
      +                          S1307/RealTimeDS1307.c: 18:     MSSP_I2C_Master_Send_Start(&mssp_i2c1);
  5014   002538  0EE4               	movlw	low _mssp_i2c1
  5015   00253A  6E02               	movwf	MSSP_I2C_Master_Send_Start@i2c_obj^0,c
  5016   00253C  EC4C  F016         	call	_MSSP_I2C_Master_Send_Start	;wreg free
  5017   002540                     
  5018                           ;ECU_Layer/RealTimeDS1307/RealTimeDS1307.c: 20:     MSSP_I2C_Master_Write_Blocking(&mssp
      +                          _i2c1, 0xD0, &ack);
  5019   002540  0EE4               	movlw	low _mssp_i2c1
  5020   002542  6E02               	movwf	MSSP_I2C_Master_Write_Blocking@i2c_obj^0,c
  5021   002544  0ED0               	movlw	208
  5022   002546  6E03               	movwf	MSSP_I2C_Master_Write_Blocking@i2c_data^0,c
  5023   002548  0E5A               	movlw	low _ack
  5024   00254A  6E04               	movwf	MSSP_I2C_Master_Write_Blocking@ack^0,c
  5025   00254C  EC9C  F014         	call	_MSSP_I2C_Master_Write_Blocking	;wreg free
  5026   002550                     
  5027                           ;ECU_Layer/RealTimeDS1307/RealTimeDS1307.c: 22:     MSSP_I2C_Master_Write_Blocking(&mssp
      +                          _i2c1, 0x00, &ack);
  5028   002550  0EE4               	movlw	low _mssp_i2c1
  5029   002552  6E02               	movwf	MSSP_I2C_Master_Write_Blocking@i2c_obj^0,c
  5030   002554  0E00               	movlw	0
  5031   002556  6E03               	movwf	MSSP_I2C_Master_Write_Blocking@i2c_data^0,c
  5032   002558  0E5A               	movlw	low _ack
  5033   00255A  6E04               	movwf	MSSP_I2C_Master_Write_Blocking@ack^0,c
  5034   00255C  EC9C  F014         	call	_MSSP_I2C_Master_Write_Blocking	;wreg free
  5035                           
  5036                           ;ECU_Layer/RealTimeDS1307/RealTimeDS1307.c: 24:     MSSP_I2C_Master_Send_Repeated_Start(
      +                          &mssp_i2c1);
  5037   002560  0EE4               	movlw	low _mssp_i2c1
  5038   002562  6E02               	movwf	MSSP_I2C_Master_Send_Repeated_Start@i2c_obj^0,c
  5039   002564  EC7C  F016         	call	_MSSP_I2C_Master_Send_Repeated_Start	;wreg free
  5040   002568                     
  5041                           ;ECU_Layer/RealTimeDS1307/RealTimeDS1307.c: 26:     MSSP_I2C_Master_Write_Blocking(&mssp
      +                          _i2c1, 0xD1, &ack);
  5042   002568  0EE4               	movlw	low _mssp_i2c1
  5043   00256A  6E02               	movwf	MSSP_I2C_Master_Write_Blocking@i2c_obj^0,c
  5044   00256C  0ED1               	movlw	209
  5045   00256E  6E03               	movwf	MSSP_I2C_Master_Write_Blocking@i2c_data^0,c
  5046   002570  0E5A               	movlw	low _ack
  5047   002572  6E04               	movwf	MSSP_I2C_Master_Write_Blocking@ack^0,c
  5048   002574  EC9C  F014         	call	_MSSP_I2C_Master_Write_Blocking	;wreg free
  5049   002578                     
  5050                           ;ECU_Layer/RealTimeDS1307/RealTimeDS1307.c: 27:     for (uint8 i = 0; i < 7; i++) {
  5051   002578  0E00               	movlw	0
  5052   00257A  6E12               	movwf	RealTimeClockDS1307_Get_Date_Time@i^0,c
  5053   00257C                     l8658:
  5054                           
  5055                           ;ECU_Layer/RealTimeDS1307/RealTimeDS1307.c: 28:         MSSP_I2C_Master_Read_Blocking(&m
      +                          ssp_i2c1, (i < 6) ? 0 : 1, &buffer[i]);
  5056   00257C  0EE4               	movlw	low _mssp_i2c1
  5057   00257E  6E02               	movwf	MSSP_I2C_Master_Read_Blocking@i2c_obj^0,c
  5058   002580  0E06               	movlw	6
  5059   002582  6012               	cpfslt	RealTimeClockDS1307_Get_Date_Time@i^0,c
  5060   002584  EFC6  F012         	goto	u8441
  5061   002588  EFC9  F012         	goto	u8440
  5062   00258C                     u8441:
  5063   00258C  0E01               	movlw	1
  5064   00258E  EFCA  F012         	goto	u8450
  5065   002592                     u8440:
  5066   002592  0E00               	movlw	0
  5067   002594                     u8450:
  5068   002594  6E03               	movwf	MSSP_I2C_Master_Read_Blocking@ack^0,c
  5069   002596  5012               	movf	RealTimeClockDS1307_Get_Date_Time@i^0,w,c
  5070   002598  0F0B               	addlw	low RealTimeClockDS1307_Get_Date_Time@buffer
  5071   00259A  6E04               	movwf	MSSP_I2C_Master_Read_Blocking@i2c_data^0,c
  5072   00259C  ECD6  F013         	call	_MSSP_I2C_Master_Read_Blocking	;wreg free
  5073   0025A0                     
  5074                           ;ECU_Layer/RealTimeDS1307/RealTimeDS1307.c: 29:     }
  5075   0025A0  2A12               	incf	RealTimeClockDS1307_Get_Date_Time@i^0,f,c
  5076   0025A2  0E06               	movlw	6
  5077   0025A4  6412               	cpfsgt	RealTimeClockDS1307_Get_Date_Time@i^0,c
  5078   0025A6  EFD7  F012         	goto	u8461
  5079   0025AA  EFD9  F012         	goto	u8460
  5080   0025AE                     u8461:
  5081   0025AE  EFBE  F012         	goto	l8658
  5082   0025B2                     u8460:
  5083   0025B2                     
  5084                           ;ECU_Layer/RealTimeDS1307/RealTimeDS1307.c: 31:     MSSP_I2C_Master_Send_Stop(&mssp_i2c1
      +                          );
  5085   0025B2  0EE4               	movlw	low _mssp_i2c1
  5086   0025B4  6E02               	movwf	MSSP_I2C_Master_Send_Stop@i2c_obj^0,c
  5087   0025B6  EC32  F016         	call	_MSSP_I2C_Master_Send_Stop	;wreg free
  5088   0025BA                     
  5089                           ;ECU_Layer/RealTimeDS1307/RealTimeDS1307.c: 33:     RealTimeDS1307.seconds = buffer[0];
  5090   0025BA  C00B  F066         	movff	RealTimeClockDS1307_Get_Date_Time@buffer,_RealTimeDS1307@RealTimeDS1307$F678
  5091   0025BE                     
  5092                           ;ECU_Layer/RealTimeDS1307/RealTimeDS1307.c: 34:     RealTimeDS1307.minutes = buffer[1];
  5093   0025BE  C00C  F067         	movff	RealTimeClockDS1307_Get_Date_Time@buffer+1,_RealTimeDS1307@RealTimeDS1307$F678+1
  5094   0025C2                     
  5095                           ;ECU_Layer/RealTimeDS1307/RealTimeDS1307.c: 35:     RealTimeDS1307.hours = buffer[2];
  5096   0025C2  C00D  F068         	movff	RealTimeClockDS1307_Get_Date_Time@buffer+2,_RealTimeDS1307@RealTimeDS1307$F678+2
  5097   0025C6                     
  5098                           ;ECU_Layer/RealTimeDS1307/RealTimeDS1307.c: 36:     RealTimeDS1307.day = buffer[4];
  5099   0025C6  C00F  F069         	movff	RealTimeClockDS1307_Get_Date_Time@buffer+4,_RealTimeDS1307@RealTimeDS1307$F678+3
  5100   0025CA                     
  5101                           ;ECU_Layer/RealTimeDS1307/RealTimeDS1307.c: 37:     RealTimeDS1307.month = buffer[5];
  5102   0025CA  C010  F06A         	movff	RealTimeClockDS1307_Get_Date_Time@buffer+5,_RealTimeDS1307@RealTimeDS1307$F678+4
  5103   0025CE                     
  5104                           ;ECU_Layer/RealTimeDS1307/RealTimeDS1307.c: 38:     RealTimeDS1307.year = buffer[6];
  5105   0025CE  C011  F06B         	movff	RealTimeClockDS1307_Get_Date_Time@buffer+6,_RealTimeDS1307@RealTimeDS1307$F678+5
  5106   0025D2                     
  5107                           ;ECU_Layer/RealTimeDS1307/RealTimeDS1307.c: 39:     return RealTimeDS1307;
  5108   0025D2  EE20  F066         	lfsr	2,_RealTimeDS1307@RealTimeDS1307$F678
  5109   0025D6  EE00  F005         	lfsr	0,?_RealTimeClockDS1307_Get_Date_Time
  5110   0025DA  0E05               	movlw	5
  5111   0025DC                     u8471:
  5112   0025DC  CFDB FFEB          	movff	plusw2,plusw0
  5113   0025E0  06E8               	decf	wreg,f,c
  5114   0025E2  E2FC               	bc	u8471
  5115   0025E4  0012               	return		;funcret
  5116   0025E6                     __end_of_RealTimeClockDS1307_Get_Date_Time:
  5117                           	callstack 0
  5118                           
  5119 ;; *************** function _MSSP_I2C_Master_Send_Repeated_Start *****************
  5120 ;; Defined at:
  5121 ;;		line 133 in file "MCAL_Layer/I2C/hal_i2c.c"
  5122 ;; Parameters:    Size  Location     Type
  5123 ;;  i2c_obj         1    1[COMRAM] PTR const struct .
  5124 ;;		 -> mssp_i2c1(16), 
  5125 ;; Auto vars:     Size  Location     Type
  5126 ;;  ret             1    0        unsigned char 
  5127 ;; Return value:  Size  Location     Type
  5128 ;;                  1    wreg      unsigned char 
  5129 ;; Registers used:
  5130 ;;		wreg, status,2
  5131 ;; Tracked objects:
  5132 ;;		On entry : 0/0
  5133 ;;		On exit  : 0/0
  5134 ;;		Unchanged: 0/0
  5135 ;; Data sizes:     COMRAM   BANK0   BANK1   BANK2   BANK3   BANK4   BANK5   BANK6   BANK7   BANK8   BANK9  BANK10  BANK1
      +1  BANK12  BANK13  BANK14  BANK15
  5136 ;;      Params:         1       0       0       0       0       0       0       0       0       0       0       0       
      +0       0       0       0       0
  5137 ;;      Locals:         0       0       0       0       0       0       0       0       0       0       0       0       
      +0       0       0       0       0
  5138 ;;      Temps:          0       0       0       0       0       0       0       0       0       0       0       0       
      +0       0       0       0       0
  5139 ;;      Totals:         1       0       0       0       0       0       0       0       0       0       0       0       
      +0       0       0       0       0
  5140 ;;Total ram usage:        1 bytes
  5141 ;; Hardware stack levels used: 1
  5142 ;; Hardware stack levels required when called: 2
  5143 ;; This function calls:
  5144 ;;		Nothing
  5145 ;; This function is called by:
  5146 ;;		_RealTimeClockDS1307_Get_Date_Time
  5147 ;;		_TempSensor_TC74_Read_Temp
  5148 ;;		_EEPROM_24C02C_Read_Byte
  5149 ;; This function uses a non-reentrant model
  5150 ;;
  5151                           
  5152                           	psect	text23
  5153   002CF8                     __ptext23:
  5154                           	callstack 0
  5155   002CF8                     _MSSP_I2C_Master_Send_Repeated_Start:
  5156                           	callstack 27
  5157   002CF8                     
  5158                           ;MCAL_Layer/I2C/hal_i2c.c: 135:     if (i2c_obj == ((void*)0)) {
  5159   002CF8  5002               	movf	MSSP_I2C_Master_Send_Repeated_Start@i2c_obj^0,w,c
  5160   002CFA  A4D8               	btfss	status,2,c
  5161   002CFC  EF82  F016         	goto	u8261
  5162   002D00  EF84  F016         	goto	u8260
  5163   002D04                     u8261:
  5164   002D04  EF86  F016         	goto	l1092
  5165   002D08                     u8260:
  5166   002D08                     
  5167                           ;MCAL_Layer/I2C/hal_i2c.c: 137:     } else {
  5168   002D08  EF8F  F016         	goto	l1097
  5169   002D0C                     l1092:
  5170                           
  5171                           ;MCAL_Layer/I2C/hal_i2c.c: 139:         SSPCON2bits.RSEN = 1;
  5172   002D0C  82C5               	bsf	197,1,c	;volatile
  5173   002D0E                     l1094:
  5174   002D0E  B2C5               	btfsc	197,1,c	;volatile
  5175   002D10  EF8C  F016         	goto	u8271
  5176   002D14  EF8E  F016         	goto	u8270
  5177   002D18                     u8271:
  5178   002D18  EF87  F016         	goto	l1094
  5179   002D1C                     u8270:
  5180   002D1C                     
  5181                           ;MCAL_Layer/I2C/hal_i2c.c: 143:         PIR1bits.SSPIF = 0;
  5182   002D1C  969E               	bcf	158,3,c	;volatile
  5183   002D1E                     l1097:
  5184   002D1E  0012               	return		;funcret
  5185   002D20                     __end_of_MSSP_I2C_Master_Send_Repeated_Start:
  5186                           	callstack 0
  5187                           
  5188 ;; *************** function _MSSP_I2C_Master_Read_Blocking *****************
  5189 ;; Defined at:
  5190 ;;		line 207 in file "MCAL_Layer/I2C/hal_i2c.c"
  5191 ;; Parameters:    Size  Location     Type
  5192 ;;  i2c_obj         1    1[COMRAM] PTR const struct .
  5193 ;;		 -> mssp_i2c1(16), 
  5194 ;;  ack             1    2[COMRAM] unsigned char 
  5195 ;;  i2c_data        1    3[COMRAM] PTR unsigned char 
  5196 ;;		 -> TempSensor_TC74_Read_Temp@TC74_TempVal(1), RealTimeClockDS1307_Get_Date_Time@buffer(7), EEPROM_24C02C_Read_Byte@
      +RecVal(1), 
  5197 ;; Auto vars:     Size  Location     Type
  5198 ;;  ret             1    0        unsigned char 
  5199 ;; Return value:  Size  Location     Type
  5200 ;;                  1    wreg      unsigned char 
  5201 ;; Registers used:
  5202 ;;		wreg, fsr2l, fsr2h, status,2, status,0
  5203 ;; Tracked objects:
  5204 ;;		On entry : 0/0
  5205 ;;		On exit  : 0/0
  5206 ;;		Unchanged: 0/0
  5207 ;; Data sizes:     COMRAM   BANK0   BANK1   BANK2   BANK3   BANK4   BANK5   BANK6   BANK7   BANK8   BANK9  BANK10  BANK1
      +1  BANK12  BANK13  BANK14  BANK15
  5208 ;;      Params:         3       0       0       0       0       0       0       0       0       0       0       0       
      +0       0       0       0       0
  5209 ;;      Locals:         0       0       0       0       0       0       0       0       0       0       0       0       
      +0       0       0       0       0
  5210 ;;      Temps:          0       0       0       0       0       0       0       0       0       0       0       0       
      +0       0       0       0       0
  5211 ;;      Totals:         3       0       0       0       0       0       0       0       0       0       0       0       
      +0       0       0       0       0
  5212 ;;Total ram usage:        3 bytes
  5213 ;; Hardware stack levels used: 1
  5214 ;; Hardware stack levels required when called: 2
  5215 ;; This function calls:
  5216 ;;		Nothing
  5217 ;; This function is called by:
  5218 ;;		_RealTimeClockDS1307_Get_Date_Time
  5219 ;;		_TempSensor_TC74_Read_Temp
  5220 ;;		_EEPROM_24C02C_Read_Byte
  5221 ;; This function uses a non-reentrant model
  5222 ;;
  5223                           
  5224                           	psect	text24
  5225   0027AC                     __ptext24:
  5226                           	callstack 0
  5227   0027AC                     _MSSP_I2C_Master_Read_Blocking:
  5228                           	callstack 27
  5229   0027AC                     
  5230                           ;MCAL_Layer/I2C/hal_i2c.c: 209:     if ((i2c_obj == ((void*)0)) || (i2c_data == ((void*)
      +                          0))) {
  5231   0027AC  5002               	movf	MSSP_I2C_Master_Read_Blocking@i2c_obj^0,w,c
  5232   0027AE  B4D8               	btfsc	status,2,c
  5233   0027B0  EFDC  F013         	goto	u8281
  5234   0027B4  EFDE  F013         	goto	u8280
  5235   0027B8                     u8281:
  5236   0027B8  EFE6  F013         	goto	l8570
  5237   0027BC                     u8280:
  5238   0027BC  5004               	movf	MSSP_I2C_Master_Read_Blocking@i2c_data^0,w,c
  5239   0027BE  A4D8               	btfss	status,2,c
  5240   0027C0  EFE4  F013         	goto	u8291
  5241   0027C4  EFE6  F013         	goto	u8290
  5242   0027C8                     u8291:
  5243   0027C8  EFE8  F013         	goto	l1122
  5244   0027CC                     u8290:
  5245   0027CC                     l8570:
  5246                           
  5247                           ;MCAL_Layer/I2C/hal_i2c.c: 211:     } else {
  5248   0027CC  EF19  F014         	goto	l1139
  5249   0027D0                     l1122:
  5250                           
  5251                           ;MCAL_Layer/I2C/hal_i2c.c: 213:         (SSPCON2bits.RCEN = 1);
  5252   0027D0  86C5               	bsf	197,3,c	;volatile
  5253   0027D2                     l1126:
  5254   0027D2  A0C7               	btfss	199,0,c	;volatile
  5255   0027D4  EFEE  F013         	goto	u8301
  5256   0027D8  EFF0  F013         	goto	u8300
  5257   0027DC                     u8301:
  5258   0027DC  EFE9  F013         	goto	l1126
  5259   0027E0                     u8300:
  5260   0027E0                     
  5261                           ;MCAL_Layer/I2C/hal_i2c.c: 217:         *i2c_data = SSPBUF;
  5262   0027E0  5004               	movf	MSSP_I2C_Master_Read_Blocking@i2c_data^0,w,c
  5263   0027E2  6ED9               	movwf	fsr2l,c
  5264   0027E4  6ADA               	clrf	fsr2h,c
  5265   0027E6  CFC9 FFDF          	movff	4041,indf2	;volatile
  5266   0027EA                     
  5267                           ;MCAL_Layer/I2C/hal_i2c.c: 219:         if (ack == 0) {
  5268   0027EA  5003               	movf	MSSP_I2C_Master_Read_Blocking@ack^0,w,c
  5269   0027EC  A4D8               	btfss	status,2,c
  5270   0027EE  EFFB  F013         	goto	u8311
  5271   0027F2  EFFD  F013         	goto	u8310
  5272   0027F6                     u8311:
  5273   0027F6  EF08  F014         	goto	l8578
  5274   0027FA                     u8310:
  5275   0027FA                     
  5276                           ;MCAL_Layer/I2C/hal_i2c.c: 220:             SSPCON2bits.ACKDT = 0;
  5277   0027FA  9AC5               	bcf	197,5,c	;volatile
  5278                           
  5279                           ;MCAL_Layer/I2C/hal_i2c.c: 221:             SSPCON2bits.ACKEN = 1;
  5280   0027FC  88C5               	bsf	197,4,c	;volatile
  5281   0027FE                     l1130:
  5282   0027FE  B8C5               	btfsc	197,4,c	;volatile
  5283   002800  EF04  F014         	goto	u8321
  5284   002804  EF06  F014         	goto	u8320
  5285   002808                     u8321:
  5286   002808  EFFF  F013         	goto	l1130
  5287   00280C                     u8320:
  5288   00280C  EF19  F014         	goto	l8582
  5289   002810                     l8578:
  5290   002810  0403               	decf	MSSP_I2C_Master_Read_Blocking@ack^0,w,c
  5291   002812  A4D8               	btfss	status,2,c
  5292   002814  EF0E  F014         	goto	u8331
  5293   002818  EF10  F014         	goto	u8330
  5294   00281C                     u8331:
  5295   00281C  EF19  F014         	goto	l8582
  5296   002820                     u8330:
  5297   002820                     
  5298                           ;MCAL_Layer/I2C/hal_i2c.c: 224:             SSPCON2bits.ACKDT = 1;
  5299   002820  8AC5               	bsf	197,5,c	;volatile
  5300                           
  5301                           ;MCAL_Layer/I2C/hal_i2c.c: 225:             SSPCON2bits.ACKEN = 1;
  5302   002822  88C5               	bsf	197,4,c	;volatile
  5303   002824                     l1135:
  5304   002824  B8C5               	btfsc	197,4,c	;volatile
  5305   002826  EF17  F014         	goto	u8341
  5306   00282A  EF19  F014         	goto	u8340
  5307   00282E                     u8341:
  5308   00282E  EF12  F014         	goto	l1135
  5309   002832                     u8340:
  5310   002832                     l8582:
  5311   002832                     l1139:
  5312   002832  0012               	return		;funcret
  5313   002834                     __end_of_MSSP_I2C_Master_Read_Blocking:
  5314                           	callstack 0
  5315                           
  5316 ;; *************** function _Print_Date *****************
  5317 ;; Defined at:
  5318 ;;		line 42 in file "ECU_Layer/RealTimeDS1307/RealTimeDS1307.c"
  5319 ;; Parameters:    Size  Location     Type
  5320 ;;		None
  5321 ;; Auto vars:     Size  Location     Type
  5322 ;;		None
  5323 ;; Return value:  Size  Location     Type
  5324 ;;                  1    wreg      void 
  5325 ;; Registers used:
  5326 ;;		wreg, fsr0l, fsr0h, status,2, status,0, tblptrl, tblptrh, tblptru, cstack
  5327 ;; Tracked objects:
  5328 ;;		On entry : 0/0
  5329 ;;		On exit  : 0/0
  5330 ;;		Unchanged: 0/0
  5331 ;; Data sizes:     COMRAM   BANK0   BANK1   BANK2   BANK3   BANK4   BANK5   BANK6   BANK7   BANK8   BANK9  BANK10  BANK1
      +1  BANK12  BANK13  BANK14  BANK15
  5332 ;;      Params:         0       0       0       0       0       0       0       0       0       0       0       0       
      +0       0       0       0       0
  5333 ;;      Locals:         0       0       0       0       0       0       0       0       0       0       0       0       
      +0       0       0       0       0
  5334 ;;      Temps:          0       0       0       0       0       0       0       0       0       0       0       0       
      +0       0       0       0       0
  5335 ;;      Totals:         0       0       0       0       0       0       0       0       0       0       0       0       
      +0       0       0       0       0
  5336 ;;Total ram usage:        0 bytes
  5337 ;; Hardware stack levels used: 1
  5338 ;; Hardware stack levels required when called: 5
  5339 ;; This function calls:
  5340 ;;		_UART_LoggingDebugData_Send_String
  5341 ;; This function is called by:
  5342 ;;		_main
  5343 ;; This function uses a non-reentrant model
  5344 ;;
  5345                           
  5346                           	psect	text25
  5347   0025E6                     __ptext25:
  5348                           	callstack 0
  5349   0025E6                     _Print_Date:
  5350                           	callstack 25
  5351   0025E6                     
  5352                           ;ECU_Layer/RealTimeDS1307/RealTimeDS1307.c: 43:     Print_Pack_Date[0] = ((RealTimeDS130
      +                          7.day >> 4) + 0x30);
  5353   0025E6  0100               	movlb	0	; () banked
  5354   0025E8  3969               	swapf	(_RealTimeDS1307@RealTimeDS1307$F678+3)& (0+255),w,b
  5355   0025EA  0B0F               	andlw	15
  5356   0025EC  0F30               	addlw	48
  5357   0025EE  6FB3               	movwf	_Print_Pack_Date& (0+255),b
  5358                           
  5359                           ;ECU_Layer/RealTimeDS1307/RealTimeDS1307.c: 44:     Print_Pack_Date[1] = ((RealTimeDS130
      +                          7.day & 0x0F) + 0x30);
  5360   0025F0  5169               	movf	(_RealTimeDS1307@RealTimeDS1307$F678+3)& (0+255),w,b
  5361   0025F2  0B0F               	andlw	15
  5362   0025F4  0F30               	addlw	48
  5363   0025F6  6FB4               	movwf	(_Print_Pack_Date+1)& (0+255),b
  5364   0025F8                     
  5365                           ; BSR set to: 0
  5366                           ;ECU_Layer/RealTimeDS1307/RealTimeDS1307.c: 45:     Print_Pack_Date[2] = '-';
  5367   0025F8  0E2D               	movlw	45
  5368   0025FA  6FB5               	movwf	(_Print_Pack_Date+2)& (0+255),b
  5369   0025FC                     
  5370                           ; BSR set to: 0
  5371                           ;ECU_Layer/RealTimeDS1307/RealTimeDS1307.c: 47:     Print_Pack_Date[3] = ((RealTimeDS130
      +                          7.month >> 4) + 0x30);
  5372   0025FC  396A               	swapf	(_RealTimeDS1307@RealTimeDS1307$F678+4)& (0+255),w,b
  5373   0025FE  0B0F               	andlw	15
  5374   002600  0F30               	addlw	48
  5375   002602  6FB6               	movwf	(_Print_Pack_Date+3)& (0+255),b
  5376   002604                     
  5377                           ; BSR set to: 0
  5378                           ;ECU_Layer/RealTimeDS1307/RealTimeDS1307.c: 48:     Print_Pack_Date[4] = ((RealTimeDS130
      +                          7.month & 0x0F) + 0x30);
  5379   002604  516A               	movf	(_RealTimeDS1307@RealTimeDS1307$F678+4)& (0+255),w,b
  5380   002606  0B0F               	andlw	15
  5381   002608  0F30               	addlw	48
  5382   00260A  6FB7               	movwf	(_Print_Pack_Date+4)& (0+255),b
  5383   00260C                     
  5384                           ; BSR set to: 0
  5385                           ;ECU_Layer/RealTimeDS1307/RealTimeDS1307.c: 49:     Print_Pack_Date[5] = '-';
  5386   00260C  0E2D               	movlw	45
  5387   00260E  6FB8               	movwf	(_Print_Pack_Date+5)& (0+255),b
  5388                           
  5389                           ;ECU_Layer/RealTimeDS1307/RealTimeDS1307.c: 51:     Print_Pack_Date[6] = ((RealTimeDS130
      +                          7.year >> 4) + 0x30);
  5390   002610  396B               	swapf	(_RealTimeDS1307@RealTimeDS1307$F678+5)& (0+255),w,b
  5391   002612  0B0F               	andlw	15
  5392   002614  0F30               	addlw	48
  5393   002616  6FB9               	movwf	(_Print_Pack_Date+6)& (0+255),b
  5394                           
  5395                           ;ECU_Layer/RealTimeDS1307/RealTimeDS1307.c: 52:     Print_Pack_Date[7] = ((RealTimeDS130
      +                          7.year & 0x0F) + 0x30);
  5396   002618  516B               	movf	(_RealTimeDS1307@RealTimeDS1307$F678+5)& (0+255),w,b
  5397   00261A  0B0F               	andlw	15
  5398   00261C  0F30               	addlw	48
  5399   00261E  6FBA               	movwf	(_Print_Pack_Date+7)& (0+255),b
  5400   002620                     
  5401                           ; BSR set to: 0
  5402                           ;ECU_Layer/RealTimeDS1307/RealTimeDS1307.c: 53:     Print_Pack_Date[8] = ' ';
  5403   002620  0E20               	movlw	32
  5404   002622  6FBB               	movwf	(_Print_Pack_Date+8)& (0+255),b
  5405   002624                     
  5406                           ; BSR set to: 0
  5407                           ;ECU_Layer/RealTimeDS1307/RealTimeDS1307.c: 55:     Print_Pack_Date[9] = ((RealTimeDS130
      +                          7.hours >> 4) + 0x30);
  5408   002624  3968               	swapf	(_RealTimeDS1307@RealTimeDS1307$F678+2)& (0+255),w,b
  5409   002626  0B0F               	andlw	15
  5410   002628  0F30               	addlw	48
  5411   00262A  6FBC               	movwf	(_Print_Pack_Date+9)& (0+255),b
  5412   00262C                     
  5413                           ; BSR set to: 0
  5414                           ;ECU_Layer/RealTimeDS1307/RealTimeDS1307.c: 56:     Print_Pack_Date[10] = ((RealTimeDS13
      +                          07.hours & 0x0F) + 0x30);
  5415   00262C  5168               	movf	(_RealTimeDS1307@RealTimeDS1307$F678+2)& (0+255),w,b
  5416   00262E  0B0F               	andlw	15
  5417   002630  0F30               	addlw	48
  5418   002632  6FBD               	movwf	(_Print_Pack_Date+10)& (0+255),b
  5419   002634                     
  5420                           ; BSR set to: 0
  5421                           ;ECU_Layer/RealTimeDS1307/RealTimeDS1307.c: 57:     Print_Pack_Date[11] = '-';
  5422   002634  0E2D               	movlw	45
  5423   002636  6FBE               	movwf	(_Print_Pack_Date+11)& (0+255),b
  5424                           
  5425                           ;ECU_Layer/RealTimeDS1307/RealTimeDS1307.c: 59:     Print_Pack_Date[12] = ((RealTimeDS13
      +                          07.minutes >> 4) + 0x30);
  5426   002638  3967               	swapf	(_RealTimeDS1307@RealTimeDS1307$F678+1)& (0+255),w,b
  5427   00263A  0B0F               	andlw	15
  5428   00263C  0F30               	addlw	48
  5429   00263E  6FBF               	movwf	(_Print_Pack_Date+12)& (0+255),b
  5430                           
  5431                           ;ECU_Layer/RealTimeDS1307/RealTimeDS1307.c: 60:     Print_Pack_Date[13] = ((RealTimeDS13
      +                          07.minutes & 0x0F) + 0x30);
  5432   002640  5167               	movf	(_RealTimeDS1307@RealTimeDS1307$F678+1)& (0+255),w,b
  5433   002642  0B0F               	andlw	15
  5434   002644  0F30               	addlw	48
  5435   002646  6FC0               	movwf	(_Print_Pack_Date+13)& (0+255),b
  5436   002648                     
  5437                           ; BSR set to: 0
  5438                           ;ECU_Layer/RealTimeDS1307/RealTimeDS1307.c: 61:     Print_Pack_Date[14] = '-';
  5439   002648  0E2D               	movlw	45
  5440   00264A  6FC1               	movwf	(_Print_Pack_Date+14)& (0+255),b
  5441   00264C                     
  5442                           ; BSR set to: 0
  5443                           ;ECU_Layer/RealTimeDS1307/RealTimeDS1307.c: 63:     Print_Pack_Date[15] = ((RealTimeDS13
      +                          07.seconds >> 4) + 0x30);
  5444   00264C  3966               	swapf	_RealTimeDS1307@RealTimeDS1307$F678& (0+255),w,b
  5445   00264E  0B0F               	andlw	15
  5446   002650  0F30               	addlw	48
  5447   002652  6FC2               	movwf	(_Print_Pack_Date+15)& (0+255),b
  5448   002654                     
  5449                           ; BSR set to: 0
  5450                           ;ECU_Layer/RealTimeDS1307/RealTimeDS1307.c: 64:     Print_Pack_Date[16] = ((RealTimeDS13
      +                          07.seconds & 0x0F) + 0x30);
  5451   002654  5166               	movf	_RealTimeDS1307@RealTimeDS1307$F678& (0+255),w,b
  5452   002656  0B0F               	andlw	15
  5453   002658  0F30               	addlw	48
  5454   00265A  6FC3               	movwf	(_Print_Pack_Date+16)& (0+255),b
  5455   00265C                     
  5456                           ; BSR set to: 0
  5457                           ;ECU_Layer/RealTimeDS1307/RealTimeDS1307.c: 65:     Print_Pack_Date[17] = '\r';
  5458   00265C  0E0D               	movlw	13
  5459   00265E  6FC4               	movwf	(_Print_Pack_Date+17)& (0+255),b
  5460   002660                     
  5461                           ; BSR set to: 0
  5462                           ;ECU_Layer/RealTimeDS1307/RealTimeDS1307.c: 67:     UART_LoggingDebugData_Send_String("D
      +                          ate & time : ", 15);
  5463   002660  0E1D               	movlw	low STR_4
  5464   002662  6E0E               	movwf	UART_LoggingDebugData_Send_String@Str^0,c
  5465   002664  500E               	movf	UART_LoggingDebugData_Send_String@Str^0,w,c
  5466   002666  A4D8               	btfss	status,2,c
  5467   002668  0E10               	movlw	high __smallconst
  5468   00266A  6E0F               	movwf	(UART_LoggingDebugData_Send_String@Str+1)^0,c
  5469   00266C  0E00               	movlw	0
  5470   00266E  6E11               	movwf	(UART_LoggingDebugData_Send_String@str_len+1)^0,c
  5471   002670  0E0F               	movlw	15
  5472   002672  6E10               	movwf	UART_LoggingDebugData_Send_String@str_len^0,c
  5473   002674  EC90  F016         	call	_UART_LoggingDebugData_Send_String	;wreg free
  5474   002678                     
  5475                           ;ECU_Layer/RealTimeDS1307/RealTimeDS1307.c: 68:     UART_LoggingDebugData_Send_String(Pr
      +                          int_Pack_Date, 18);
  5476   002678  0EB3               	movlw	low _Print_Pack_Date
  5477   00267A  6E0E               	movwf	UART_LoggingDebugData_Send_String@Str^0,c
  5478   00267C  6A0F               	clrf	(UART_LoggingDebugData_Send_String@Str+1)^0,c
  5479   00267E  0E00               	movlw	0
  5480   002680  6E11               	movwf	(UART_LoggingDebugData_Send_String@str_len+1)^0,c
  5481   002682  0E12               	movlw	18
  5482   002684  6E10               	movwf	UART_LoggingDebugData_Send_String@str_len^0,c
  5483   002686  EC90  F016         	call	_UART_LoggingDebugData_Send_String	;wreg free
  5484   00268A  0012               	return		;funcret
  5485   00268C                     __end_of_Print_Date:
  5486                           	callstack 0
  5487                           
  5488 ;; *************** function _UART_LoggingDebugData_Send_String *****************
  5489 ;; Defined at:
  5490 ;;		line 12 in file "ECU_Layer/UARTLoggingDebugData/UART_LoggingDebugData.c"
  5491 ;; Parameters:    Size  Location     Type
  5492 ;;  Str             2   13[COMRAM] PTR const unsigned char 
  5493 ;;		 -> STR_5(16), STR_4(15), Print_Pack_Date(18), 
  5494 ;;  str_len         2   15[COMRAM] unsigned short 
  5495 ;; Auto vars:     Size  Location     Type
  5496 ;;		None
  5497 ;; Return value:  Size  Location     Type
  5498 ;;                  1    wreg      void 
  5499 ;; Registers used:
  5500 ;;		wreg, fsr0l, fsr0h, status,2, status,0, tblptrl, tblptrh, tblptru, cstack
  5501 ;; Tracked objects:
  5502 ;;		On entry : 0/0
  5503 ;;		On exit  : 0/0
  5504 ;;		Unchanged: 0/0
  5505 ;; Data sizes:     COMRAM   BANK0   BANK1   BANK2   BANK3   BANK4   BANK5   BANK6   BANK7   BANK8   BANK9  BANK10  BANK1
      +1  BANK12  BANK13  BANK14  BANK15
  5506 ;;      Params:         4       0       0       0       0       0       0       0       0       0       0       0       
      +0       0       0       0       0
  5507 ;;      Locals:         0       0       0       0       0       0       0       0       0       0       0       0       
      +0       0       0       0       0
  5508 ;;      Temps:          0       0       0       0       0       0       0       0       0       0       0       0       
      +0       0       0       0       0
  5509 ;;      Totals:         4       0       0       0       0       0       0       0       0       0       0       0       
      +0       0       0       0       0
  5510 ;;Total ram usage:        4 bytes
  5511 ;; Hardware stack levels used: 1
  5512 ;; Hardware stack levels required when called: 4
  5513 ;; This function calls:
  5514 ;;		_EUSART_ASYNC_WRITE_STRING_BLOCKING
  5515 ;; This function is called by:
  5516 ;;		_Print_Date
  5517 ;;		_main
  5518 ;; This function uses a non-reentrant model
  5519 ;;
  5520                           
  5521                           	psect	text26
  5522   002D20                     __ptext26:
  5523                           	callstack 0
  5524   002D20                     _UART_LoggingDebugData_Send_String:
  5525                           	callstack 26
  5526   002D20                     
  5527                           ;ECU_Layer/UARTLoggingDebugData/UART_LoggingDebugData.c: 13:     EUSART_ASYNC_WRITE_STRI
      +                          NG_BLOCKING(&usart1, Str, str_len);
  5528   002D20  0E00               	movlw	low _usart1
  5529   002D22  6E05               	movwf	EUSART_ASYNC_WRITE_STRING_BLOCKING@usart^0,c
  5530   002D24  0E01               	movlw	high _usart1
  5531   002D26  6E06               	movwf	(EUSART_ASYNC_WRITE_STRING_BLOCKING@usart+1)^0,c
  5532   002D28  C00E  F007         	movff	UART_LoggingDebugData_Send_String@Str,EUSART_ASYNC_WRITE_STRING_BLOCKING@data
  5533   002D2C  C00F  F008         	movff	UART_LoggingDebugData_Send_String@Str+1,EUSART_ASYNC_WRITE_STRING_BLOCKING@data+1
  5534   002D30  C010  F009         	movff	UART_LoggingDebugData_Send_String@str_len,EUSART_ASYNC_WRITE_STRING_BLOCKING@str_
      +                          len
  5535   002D34  C011  F00A         	movff	UART_LoggingDebugData_Send_String@str_len+1,EUSART_ASYNC_WRITE_STRING_BLOCKING@st
      +                          r_len+1
  5536   002D38  EC5D  F014         	call	_EUSART_ASYNC_WRITE_STRING_BLOCKING	;wreg free
  5537   002D3C  0012               	return		;funcret
  5538   002D3E                     __end_of_UART_LoggingDebugData_Send_String:
  5539                           	callstack 0
  5540                           
  5541 ;; *************** function _EUSART_ASYNC_WRITE_STRING_BLOCKING *****************
  5542 ;; Defined at:
  5543 ;;		line 157 in file "MCAL_Layer/eusart/hal_eusart.c"
  5544 ;; Parameters:    Size  Location     Type
  5545 ;;  usart           2    4[COMRAM] PTR const struct .
  5546 ;;		 -> usart1(20), 
  5547 ;;  data            2    6[COMRAM] PTR const unsigned char 
  5548 ;;		 -> STR_5(16), STR_4(15), Print_Pack_Date(18), 
  5549 ;;  str_len         2    8[COMRAM] unsigned short 
  5550 ;; Auto vars:     Size  Location     Type
  5551 ;;  str_ctr         1   12[COMRAM] unsigned char 
  5552 ;;  ret             1    0        unsigned char 
  5553 ;; Return value:  Size  Location     Type
  5554 ;;                  1    wreg      unsigned char 
  5555 ;; Registers used:
  5556 ;;		wreg, fsr0l, fsr0h, status,2, status,0, tblptrl, tblptrh, tblptru, cstack
  5557 ;; Tracked objects:
  5558 ;;		On entry : 0/0
  5559 ;;		On exit  : 0/0
  5560 ;;		Unchanged: 0/0
  5561 ;; Data sizes:     COMRAM   BANK0   BANK1   BANK2   BANK3   BANK4   BANK5   BANK6   BANK7   BANK8   BANK9  BANK10  BANK1
      +1  BANK12  BANK13  BANK14  BANK15
  5562 ;;      Params:         6       0       0       0       0       0       0       0       0       0       0       0       
      +0       0       0       0       0
  5563 ;;      Locals:         1       0       0       0       0       0       0       0       0       0       0       0       
      +0       0       0       0       0
  5564 ;;      Temps:          2       0       0       0       0       0       0       0       0       0       0       0       
      +0       0       0       0       0
  5565 ;;      Totals:         9       0       0       0       0       0       0       0       0       0       0       0       
      +0       0       0       0       0
  5566 ;;Total ram usage:        9 bytes
  5567 ;; Hardware stack levels used: 1
  5568 ;; Hardware stack levels required when called: 3
  5569 ;; This function calls:
  5570 ;;		_EUSART_ASYNC_WRITE_BYTE_BLOCKING
  5571 ;; This function is called by:
  5572 ;;		_UART_LoggingDebugData_Send_String
  5573 ;; This function uses a non-reentrant model
  5574 ;;
  5575                           
  5576                           	psect	text27
  5577   0028BA                     __ptext27:
  5578                           	callstack 0
  5579   0028BA                     _EUSART_ASYNC_WRITE_STRING_BLOCKING:
  5580                           	callstack 26
  5581   0028BA                     
  5582                           ;MCAL_Layer/eusart/hal_eusart.c: 159:     uint8 str_ctr = 0;
  5583   0028BA  0E00               	movlw	0
  5584   0028BC  6E0D               	movwf	EUSART_ASYNC_WRITE_STRING_BLOCKING@str_ctr^0,c
  5585   0028BE                     
  5586                           ;MCAL_Layer/eusart/hal_eusart.c: 160:     if (((void*)0) == usart) {
  5587   0028BE  5005               	movf	EUSART_ASYNC_WRITE_STRING_BLOCKING@usart^0,w,c
  5588   0028C0  1006               	iorwf	(EUSART_ASYNC_WRITE_STRING_BLOCKING@usart+1)^0,w,c
  5589   0028C2  A4D8               	btfss	status,2,c
  5590   0028C4  EF66  F014         	goto	u5401
  5591   0028C8  EF68  F014         	goto	u5400
  5592   0028CC                     u5401:
  5593   0028CC  EF6A  F014         	goto	l6358
  5594   0028D0                     u5400:
  5595   0028D0                     
  5596                           ;MCAL_Layer/eusart/hal_eusart.c: 162:     } else {
  5597   0028D0  EF9B  F014         	goto	l834
  5598   0028D4                     l6358:
  5599                           
  5600                           ;MCAL_Layer/eusart/hal_eusart.c: 163:         for (str_ctr = 0; str_ctr < str_len; str_c
      +                          tr++) {
  5601   0028D4  0E00               	movlw	0
  5602   0028D6  6E0D               	movwf	EUSART_ASYNC_WRITE_STRING_BLOCKING@str_ctr^0,c
  5603   0028D8  EF8D  F014         	goto	l6364
  5604   0028DC                     l6360:
  5605                           
  5606                           ;MCAL_Layer/eusart/hal_eusart.c: 164:             EUSART_ASYNC_WRITE_BYTE_BLOCKING(usart
      +                          , data[str_ctr]);
  5607   0028DC  C005  F002         	movff	EUSART_ASYNC_WRITE_STRING_BLOCKING@usart,EUSART_ASYNC_WRITE_BYTE_BLOCKING@usart
  5608   0028E0  C006  F003         	movff	EUSART_ASYNC_WRITE_STRING_BLOCKING@usart+1,EUSART_ASYNC_WRITE_BYTE_BLOCKING@usart
      +                          +1
  5609   0028E4  500D               	movf	EUSART_ASYNC_WRITE_STRING_BLOCKING@str_ctr^0,w,c
  5610   0028E6  2407               	addwf	EUSART_ASYNC_WRITE_STRING_BLOCKING@data^0,w,c
  5611   0028E8  6E0B               	movwf	??_EUSART_ASYNC_WRITE_STRING_BLOCKING^0,c
  5612   0028EA  0E00               	movlw	0
  5613   0028EC  2008               	addwfc	(EUSART_ASYNC_WRITE_STRING_BLOCKING@data+1)^0,w,c
  5614   0028EE  6E0C               	movwf	(??_EUSART_ASYNC_WRITE_STRING_BLOCKING+1)^0,c
  5615   0028F0  C00B  FFF6         	movff	??_EUSART_ASYNC_WRITE_STRING_BLOCKING,tblptrl
  5616   0028F4  C00C  FFF7         	movff	??_EUSART_ASYNC_WRITE_STRING_BLOCKING+1,tblptrh
  5617   0028F8  0E00               	movlw	low (__smallconst shr (0+16))
  5618   0028FA  6EF8               	movwf	tblptru,c
  5619   0028FC  0E0F               	movlw	(high __ramtop+-1)
  5620   0028FE  64F7               	cpfsgt	tblptrh,c
  5621   002900  D003               	bra	u5417
  5622   002902  0008               	tblrd		*
  5623   002904  50F5               	movf	tablat,w,c
  5624   002906  D005               	bra	u5410
  5625   002908                     u5417:
  5626   002908  CFF6 FFE9          	movff	tblptrl,fsr0l
  5627   00290C  CFF7 FFEA          	movff	tblptrh,fsr0h
  5628   002910  50EF               	movf	indf0,w,c
  5629   002912                     u5410:
  5630   002912  6E04               	movwf	EUSART_ASYNC_WRITE_BYTE_BLOCKING@data^0,c
  5631   002914  EC66  F016         	call	_EUSART_ASYNC_WRITE_BYTE_BLOCKING	;wreg free
  5632   002918                     
  5633                           ;MCAL_Layer/eusart/hal_eusart.c: 165:         }
  5634   002918  2A0D               	incf	EUSART_ASYNC_WRITE_STRING_BLOCKING@str_ctr^0,f,c
  5635   00291A                     l6364:
  5636   00291A  500D               	movf	EUSART_ASYNC_WRITE_STRING_BLOCKING@str_ctr^0,w,c
  5637   00291C  6E0B               	movwf	??_EUSART_ASYNC_WRITE_STRING_BLOCKING^0,c
  5638   00291E  6A0C               	clrf	(??_EUSART_ASYNC_WRITE_STRING_BLOCKING+1)^0,c
  5639   002920  5009               	movf	EUSART_ASYNC_WRITE_STRING_BLOCKING@str_len^0,w,c
  5640   002922  5C0B               	subwf	??_EUSART_ASYNC_WRITE_STRING_BLOCKING^0,w,c
  5641   002924  500A               	movf	(EUSART_ASYNC_WRITE_STRING_BLOCKING@str_len+1)^0,w,c
  5642   002926  580C               	subwfb	(??_EUSART_ASYNC_WRITE_STRING_BLOCKING+1)^0,w,c
  5643   002928  A0D8               	btfss	status,0,c
  5644   00292A  EF99  F014         	goto	u5421
  5645   00292E  EF9B  F014         	goto	u5420
  5646   002932                     u5421:
  5647   002932  EF6E  F014         	goto	l6360
  5648   002936                     u5420:
  5649   002936                     l834:
  5650   002936  0012               	return		;funcret
  5651   002938                     __end_of_EUSART_ASYNC_WRITE_STRING_BLOCKING:
  5652                           	callstack 0
  5653                           
  5654 ;; *************** function _EUSART_ASYNC_WRITE_BYTE_BLOCKING *****************
  5655 ;; Defined at:
  5656 ;;		line 128 in file "MCAL_Layer/eusart/hal_eusart.c"
  5657 ;; Parameters:    Size  Location     Type
  5658 ;;  usart           2    1[COMRAM] PTR const struct .
  5659 ;;		 -> usart1(20), 
  5660 ;;  data            1    3[COMRAM] unsigned char 
  5661 ;; Auto vars:     Size  Location     Type
  5662 ;;  ret             1    0        unsigned char 
  5663 ;; Return value:  Size  Location     Type
  5664 ;;                  1    wreg      unsigned char 
  5665 ;; Registers used:
  5666 ;;		wreg, status,2, status,0
  5667 ;; Tracked objects:
  5668 ;;		On entry : 0/0
  5669 ;;		On exit  : 0/0
  5670 ;;		Unchanged: 0/0
  5671 ;; Data sizes:     COMRAM   BANK0   BANK1   BANK2   BANK3   BANK4   BANK5   BANK6   BANK7   BANK8   BANK9  BANK10  BANK1
      +1  BANK12  BANK13  BANK14  BANK15
  5672 ;;      Params:         3       0       0       0       0       0       0       0       0       0       0       0       
      +0       0       0       0       0
  5673 ;;      Locals:         0       0       0       0       0       0       0       0       0       0       0       0       
      +0       0       0       0       0
  5674 ;;      Temps:          0       0       0       0       0       0       0       0       0       0       0       0       
      +0       0       0       0       0
  5675 ;;      Totals:         3       0       0       0       0       0       0       0       0       0       0       0       
      +0       0       0       0       0
  5676 ;;Total ram usage:        3 bytes
  5677 ;; Hardware stack levels used: 1
  5678 ;; Hardware stack levels required when called: 2
  5679 ;; This function calls:
  5680 ;;		Nothing
  5681 ;; This function is called by:
  5682 ;;		_EUSART_ASYNC_WRITE_STRING_BLOCKING
  5683 ;; This function uses a non-reentrant model
  5684 ;;
  5685                           
  5686                           	psect	text28
  5687   002CCC                     __ptext28:
  5688                           	callstack 0
  5689   002CCC                     _EUSART_ASYNC_WRITE_BYTE_BLOCKING:
  5690                           	callstack 26
  5691   002CCC                     
  5692                           ;MCAL_Layer/eusart/hal_eusart.c: 130:     if (((void*)0) == usart) {
  5693   002CCC  5002               	movf	EUSART_ASYNC_WRITE_BYTE_BLOCKING@usart^0,w,c
  5694   002CCE  1003               	iorwf	(EUSART_ASYNC_WRITE_BYTE_BLOCKING@usart+1)^0,w,c
  5695   002CD0  A4D8               	btfss	status,2,c
  5696   002CD2  EF6D  F016         	goto	u4541
  5697   002CD6  EF6F  F016         	goto	u4540
  5698   002CDA                     u4541:
  5699   002CDA  EF71  F016         	goto	l823
  5700   002CDE                     u4540:
  5701   002CDE                     
  5702                           ;MCAL_Layer/eusart/hal_eusart.c: 132:     } else {
  5703   002CDE  EF7B  F016         	goto	l826
  5704   002CE2                     l823:
  5705                           
  5706                           ;MCAL_Layer/eusart/hal_eusart.c: 133:         while (!TXSTAbits.TRMT)
  5707   002CE2  A2AC               	btfss	172,1,c	;volatile
  5708   002CE4  EF76  F016         	goto	u4551
  5709   002CE8  EF78  F016         	goto	u4550
  5710   002CEC                     u4551:
  5711   002CEC  EF71  F016         	goto	l823
  5712   002CF0                     u4550:
  5713   002CF0                     
  5714                           ;MCAL_Layer/eusart/hal_eusart.c: 135:         TXREG = data;
  5715   002CF0  C004  FFAD         	movff	EUSART_ASYNC_WRITE_BYTE_BLOCKING@data,4013	;volatile
  5716                           
  5717                           ;MCAL_Layer/eusart/hal_eusart.c: 137:         (PIE1bits.TXIE = 1);
  5718   002CF4  889D               	bsf	157,4,c	;volatile
  5719   002CF6                     l826:
  5720   002CF6  0012               	return		;funcret
  5721   002CF8                     __end_of_EUSART_ASYNC_WRITE_BYTE_BLOCKING:
  5722                           	callstack 0
  5723                           
  5724 ;; *************** function _I2C_Master_Call_Slave *****************
  5725 ;; Defined at:
  5726 ;;		line 45 in file "application.c"
  5727 ;; Parameters:    Size  Location     Type
  5728 ;;  Slave_Addres    1    wreg     unsigned char 
  5729 ;;  temp            1    4[COMRAM] unsigned char 
  5730 ;; Auto vars:     Size  Location     Type
  5731 ;;  Slave_Addres    1    5[COMRAM] unsigned char 
  5732 ;; Return value:  Size  Location     Type
  5733 ;;                  1    wreg      void 
  5734 ;; Registers used:
  5735 ;;		wreg, fsr2l, fsr2h, status,2, status,0, cstack
  5736 ;; Tracked objects:
  5737 ;;		On entry : 0/0
  5738 ;;		On exit  : 0/0
  5739 ;;		Unchanged: 0/0
  5740 ;; Data sizes:     COMRAM   BANK0   BANK1   BANK2   BANK3   BANK4   BANK5   BANK6   BANK7   BANK8   BANK9  BANK10  BANK1
      +1  BANK12  BANK13  BANK14  BANK15
  5741 ;;      Params:         1       0       0       0       0       0       0       0       0       0       0       0       
      +0       0       0       0       0
  5742 ;;      Locals:         1       0       0       0       0       0       0       0       0       0       0       0       
      +0       0       0       0       0
  5743 ;;      Temps:          0       0       0       0       0       0       0       0       0       0       0       0       
      +0       0       0       0       0
  5744 ;;      Totals:         2       0       0       0       0       0       0       0       0       0       0       0       
      +0       0       0       0       0
  5745 ;;Total ram usage:        2 bytes
  5746 ;; Hardware stack levels used: 1
  5747 ;; Hardware stack levels required when called: 3
  5748 ;; This function calls:
  5749 ;;		_MSSP_I2C_Master_Send_Start
  5750 ;;		_MSSP_I2C_Master_Send_Stop
  5751 ;;		_MSSP_I2C_Master_Write_Blocking
  5752 ;; This function is called by:
  5753 ;;		_main
  5754 ;; This function uses a non-reentrant model
  5755 ;;
  5756                           
  5757                           	psect	text29
  5758   002C30                     __ptext29:
  5759                           	callstack 0
  5760   002C30                     _I2C_Master_Call_Slave:
  5761                           	callstack 27
  5762                           
  5763                           ;incstack = 0
  5764                           ;I2C_Master_Call_Slave@Slave_Address stored from wreg
  5765   002C30  6E06               	movwf	I2C_Master_Call_Slave@Slave_Address^0,c
  5766   002C32                     
  5767                           ;application.c: 47:     MSSP_I2C_Master_Send_Start(&mssp_i2c1);
  5768   002C32  0EE4               	movlw	low _mssp_i2c1
  5769   002C34  6E02               	movwf	MSSP_I2C_Master_Send_Start@i2c_obj^0,c
  5770   002C36  EC4C  F016         	call	_MSSP_I2C_Master_Send_Start	;wreg free
  5771   002C3A                     
  5772                           ;application.c: 49:     MSSP_I2C_Master_Write_Blocking(&mssp_i2c1, Slave_Address, &ack);
  5773   002C3A  0EE4               	movlw	low _mssp_i2c1
  5774   002C3C  6E02               	movwf	MSSP_I2C_Master_Write_Blocking@i2c_obj^0,c
  5775   002C3E  C006  F003         	movff	I2C_Master_Call_Slave@Slave_Address,MSSP_I2C_Master_Write_Blocking@i2c_data
  5776   002C42  0E5A               	movlw	low _ack
  5777   002C44  6E04               	movwf	MSSP_I2C_Master_Write_Blocking@ack^0,c
  5778   002C46  EC9C  F014         	call	_MSSP_I2C_Master_Write_Blocking	;wreg free
  5779   002C4A                     
  5780                           ;application.c: 51:     MSSP_I2C_Master_Write_Blocking(&mssp_i2c1, temp, &ack);
  5781   002C4A  0EE4               	movlw	low _mssp_i2c1
  5782   002C4C  6E02               	movwf	MSSP_I2C_Master_Write_Blocking@i2c_obj^0,c
  5783   002C4E  C005  F003         	movff	I2C_Master_Call_Slave@temp,MSSP_I2C_Master_Write_Blocking@i2c_data
  5784   002C52  0E5A               	movlw	low _ack
  5785   002C54  6E04               	movwf	MSSP_I2C_Master_Write_Blocking@ack^0,c
  5786   002C56  EC9C  F014         	call	_MSSP_I2C_Master_Write_Blocking	;wreg free
  5787                           
  5788                           ;application.c: 53:     MSSP_I2C_Master_Send_Stop(&mssp_i2c1);
  5789   002C5A  0EE4               	movlw	low _mssp_i2c1
  5790   002C5C  6E02               	movwf	MSSP_I2C_Master_Send_Stop@i2c_obj^0,c
  5791   002C5E  EC32  F016         	call	_MSSP_I2C_Master_Send_Stop	;wreg free
  5792   002C62  0012               	return		;funcret
  5793   002C64                     __end_of_I2C_Master_Call_Slave:
  5794                           	callstack 0
  5795                           
  5796 ;; *************** function _EEPROM_24C02C_Write_Byte *****************
  5797 ;; Defined at:
  5798 ;;		line 13 in file "ECU_Layer/EEPROM_24C02C/EEPROM_24C02C.c"
  5799 ;; Parameters:    Size  Location     Type
  5800 ;;  EEPROM_Addre    1    wreg     unsigned char 
  5801 ;;  Byte_Address    1    4[COMRAM] unsigned char 
  5802 ;;  data            1    5[COMRAM] unsigned char 
  5803 ;; Auto vars:     Size  Location     Type
  5804 ;;  EEPROM_Addre    1    6[COMRAM] unsigned char 
  5805 ;; Return value:  Size  Location     Type
  5806 ;;                  1    wreg      void 
  5807 ;; Registers used:
  5808 ;;		wreg, fsr2l, fsr2h, status,2, status,0, cstack
  5809 ;; Tracked objects:
  5810 ;;		On entry : 0/0
  5811 ;;		On exit  : 0/0
  5812 ;;		Unchanged: 0/0
  5813 ;; Data sizes:     COMRAM   BANK0   BANK1   BANK2   BANK3   BANK4   BANK5   BANK6   BANK7   BANK8   BANK9  BANK10  BANK1
      +1  BANK12  BANK13  BANK14  BANK15
  5814 ;;      Params:         2       0       0       0       0       0       0       0       0       0       0       0       
      +0       0       0       0       0
  5815 ;;      Locals:         1       0       0       0       0       0       0       0       0       0       0       0       
      +0       0       0       0       0
  5816 ;;      Temps:          0       0       0       0       0       0       0       0       0       0       0       0       
      +0       0       0       0       0
  5817 ;;      Totals:         3       0       0       0       0       0       0       0       0       0       0       0       
      +0       0       0       0       0
  5818 ;;Total ram usage:        3 bytes
  5819 ;; Hardware stack levels used: 1
  5820 ;; Hardware stack levels required when called: 3
  5821 ;; This function calls:
  5822 ;;		_MSSP_I2C_Master_Send_Start
  5823 ;;		_MSSP_I2C_Master_Send_Stop
  5824 ;;		_MSSP_I2C_Master_Write_Blocking
  5825 ;; This function is called by:
  5826 ;;		_main
  5827 ;; This function uses a non-reentrant model
  5828 ;;
  5829                           
  5830                           	psect	text30
  5831   002BB6                     __ptext30:
  5832                           	callstack 0
  5833   002BB6                     _EEPROM_24C02C_Write_Byte:
  5834                           	callstack 27
  5835                           
  5836                           ;incstack = 0
  5837                           ;EEPROM_24C02C_Write_Byte@EEPROM_Address stored from wreg
  5838   002BB6  6E07               	movwf	EEPROM_24C02C_Write_Byte@EEPROM_Address^0,c
  5839   002BB8                     
  5840                           ;ECU_Layer/EEPROM_24C02C/EEPROM_24C02C.c: 14:     MSSP_I2C_Master_Send_Start(&mssp_i2c1)
      +                          ;
  5841   002BB8  0EE4               	movlw	low _mssp_i2c1
  5842   002BBA  6E02               	movwf	MSSP_I2C_Master_Send_Start@i2c_obj^0,c
  5843   002BBC  EC4C  F016         	call	_MSSP_I2C_Master_Send_Start	;wreg free
  5844   002BC0                     
  5845                           ;ECU_Layer/EEPROM_24C02C/EEPROM_24C02C.c: 16:     MSSP_I2C_Master_Write_Blocking(&mssp_i
      +                          2c1, EEPROM_Address, &ack);
  5846   002BC0  0EE4               	movlw	low _mssp_i2c1
  5847   002BC2  6E02               	movwf	MSSP_I2C_Master_Write_Blocking@i2c_obj^0,c
  5848   002BC4  C007  F003         	movff	EEPROM_24C02C_Write_Byte@EEPROM_Address,MSSP_I2C_Master_Write_Blocking@i2c_data
  5849   002BC8  0E5A               	movlw	low _ack
  5850   002BCA  6E04               	movwf	MSSP_I2C_Master_Write_Blocking@ack^0,c
  5851   002BCC  EC9C  F014         	call	_MSSP_I2C_Master_Write_Blocking	;wreg free
  5852   002BD0                     
  5853                           ;ECU_Layer/EEPROM_24C02C/EEPROM_24C02C.c: 18:     MSSP_I2C_Master_Write_Blocking(&mssp_i
      +                          2c1, Byte_Address, &ack);
  5854   002BD0  0EE4               	movlw	low _mssp_i2c1
  5855   002BD2  6E02               	movwf	MSSP_I2C_Master_Write_Blocking@i2c_obj^0,c
  5856   002BD4  C005  F003         	movff	EEPROM_24C02C_Write_Byte@Byte_Address,MSSP_I2C_Master_Write_Blocking@i2c_data
  5857   002BD8  0E5A               	movlw	low _ack
  5858   002BDA  6E04               	movwf	MSSP_I2C_Master_Write_Blocking@ack^0,c
  5859   002BDC  EC9C  F014         	call	_MSSP_I2C_Master_Write_Blocking	;wreg free
  5860   002BE0                     
  5861                           ;ECU_Layer/EEPROM_24C02C/EEPROM_24C02C.c: 20:     MSSP_I2C_Master_Write_Blocking(&mssp_i
      +                          2c1, data, &ack);
  5862   002BE0  0EE4               	movlw	low _mssp_i2c1
  5863   002BE2  6E02               	movwf	MSSP_I2C_Master_Write_Blocking@i2c_obj^0,c
  5864   002BE4  C006  F003         	movff	EEPROM_24C02C_Write_Byte@data,MSSP_I2C_Master_Write_Blocking@i2c_data
  5865   002BE8  0E5A               	movlw	low _ack
  5866   002BEA  6E04               	movwf	MSSP_I2C_Master_Write_Blocking@ack^0,c
  5867   002BEC  EC9C  F014         	call	_MSSP_I2C_Master_Write_Blocking	;wreg free
  5868   002BF0                     
  5869                           ;ECU_Layer/EEPROM_24C02C/EEPROM_24C02C.c: 22:     MSSP_I2C_Master_Send_Stop(&mssp_i2c1);
  5870   002BF0  0EE4               	movlw	low _mssp_i2c1
  5871   002BF2  6E02               	movwf	MSSP_I2C_Master_Send_Stop@i2c_obj^0,c
  5872   002BF4  EC32  F016         	call	_MSSP_I2C_Master_Send_Stop	;wreg free
  5873   002BF8  0012               	return		;funcret
  5874   002BFA                     __end_of_EEPROM_24C02C_Write_Byte:
  5875                           	callstack 0
  5876                           
  5877 ;; *************** function _MSSP_I2C_Master_Write_Blocking *****************
  5878 ;; Defined at:
  5879 ;;		line 180 in file "MCAL_Layer/I2C/hal_i2c.c"
  5880 ;; Parameters:    Size  Location     Type
  5881 ;;  i2c_obj         1    1[COMRAM] PTR const struct .
  5882 ;;		 -> mssp_i2c1(16), 
  5883 ;;  i2c_data        1    2[COMRAM] unsigned char 
  5884 ;;  ack             1    3[COMRAM] PTR unsigned char 
  5885 ;;		 -> ack(1), 
  5886 ;; Auto vars:     Size  Location     Type
  5887 ;;  ret             1    0        unsigned char 
  5888 ;; Return value:  Size  Location     Type
  5889 ;;                  1    wreg      unsigned char 
  5890 ;; Registers used:
  5891 ;;		wreg, fsr2l, fsr2h, status,2
  5892 ;; Tracked objects:
  5893 ;;		On entry : 0/0
  5894 ;;		On exit  : 0/0
  5895 ;;		Unchanged: 0/0
  5896 ;; Data sizes:     COMRAM   BANK0   BANK1   BANK2   BANK3   BANK4   BANK5   BANK6   BANK7   BANK8   BANK9  BANK10  BANK1
      +1  BANK12  BANK13  BANK14  BANK15
  5897 ;;      Params:         3       0       0       0       0       0       0       0       0       0       0       0       
      +0       0       0       0       0
  5898 ;;      Locals:         0       0       0       0       0       0       0       0       0       0       0       0       
      +0       0       0       0       0
  5899 ;;      Temps:          0       0       0       0       0       0       0       0       0       0       0       0       
      +0       0       0       0       0
  5900 ;;      Totals:         3       0       0       0       0       0       0       0       0       0       0       0       
      +0       0       0       0       0
  5901 ;;Total ram usage:        3 bytes
  5902 ;; Hardware stack levels used: 1
  5903 ;; Hardware stack levels required when called: 2
  5904 ;; This function calls:
  5905 ;;		Nothing
  5906 ;; This function is called by:
  5907 ;;		_EEPROM_24C02C_Write_Byte
  5908 ;;		_RealTimeClockDS1307_Get_Date_Time
  5909 ;;		_TempSensor_TC74_Read_Temp
  5910 ;;		_I2C_Master_Call_Slave
  5911 ;;		_EEPROM_24C02C_Read_Byte
  5912 ;; This function uses a non-reentrant model
  5913 ;;
  5914                           
  5915                           	psect	text31
  5916   002938                     __ptext31:
  5917                           	callstack 0
  5918   002938                     _MSSP_I2C_Master_Write_Blocking:
  5919                           	callstack 27
  5920   002938                     
  5921                           ;MCAL_Layer/I2C/hal_i2c.c: 182:     if ((i2c_obj == ((void*)0)) || (ack == ((void*)0))) 
      +                          {
  5922   002938  5002               	movf	MSSP_I2C_Master_Write_Blocking@i2c_obj^0,w,c
  5923   00293A  B4D8               	btfsc	status,2,c
  5924   00293C  EFA2  F014         	goto	u8181
  5925   002940  EFA4  F014         	goto	u8180
  5926   002944                     u8181:
  5927   002944  EFAC  F014         	goto	l8536
  5928   002948                     u8180:
  5929   002948  5004               	movf	MSSP_I2C_Master_Write_Blocking@ack^0,w,c
  5930   00294A  A4D8               	btfss	status,2,c
  5931   00294C  EFAA  F014         	goto	u8191
  5932   002950  EFAC  F014         	goto	u8190
  5933   002954                     u8191:
  5934   002954  EFAE  F014         	goto	l1110
  5935   002958                     u8190:
  5936   002958                     l8536:
  5937                           
  5938                           ;MCAL_Layer/I2C/hal_i2c.c: 184:     } else {
  5939   002958  EFD0  F014         	goto	l1119
  5940   00295C                     l1110:
  5941                           
  5942                           ;MCAL_Layer/I2C/hal_i2c.c: 186:         SSPBUF = i2c_data;
  5943   00295C  C003  FFC9         	movff	MSSP_I2C_Master_Write_Blocking@i2c_data,4041	;volatile
  5944   002960                     l1114:
  5945   002960  B0C7               	btfsc	199,0,c	;volatile
  5946   002962  EFB5  F014         	goto	u8201
  5947   002966  EFB7  F014         	goto	u8200
  5948   00296A                     u8201:
  5949   00296A  EFB0  F014         	goto	l1114
  5950   00296E                     u8200:
  5951   00296E  B4C7               	btfsc	199,2,c	;volatile
  5952   002970  EFBC  F014         	goto	u8211
  5953   002974  EFBE  F014         	goto	u8210
  5954   002978                     u8211:
  5955   002978  EFB0  F014         	goto	l1114
  5956   00297C                     u8210:
  5957   00297C                     
  5958                           ;MCAL_Layer/I2C/hal_i2c.c: 190:         if (0 == SSPCON2bits.ACKSTAT) {
  5959   00297C  BCC5               	btfsc	197,6,c	;volatile
  5960   00297E  EFC3  F014         	goto	u8221
  5961   002982  EFC5  F014         	goto	u8220
  5962   002986                     u8221:
  5963   002986  EFCB  F014         	goto	l8542
  5964   00298A                     u8220:
  5965   00298A                     
  5966                           ;MCAL_Layer/I2C/hal_i2c.c: 191:             *ack = 0;
  5967   00298A  5004               	movf	MSSP_I2C_Master_Write_Blocking@ack^0,w,c
  5968   00298C  6ED9               	movwf	fsr2l,c
  5969   00298E  6ADA               	clrf	fsr2h,c
  5970   002990  6ADF               	clrf	indf2,c
  5971                           
  5972                           ;MCAL_Layer/I2C/hal_i2c.c: 192:         } else {
  5973   002992  EFD0  F014         	goto	l8544
  5974   002996                     l8542:
  5975                           
  5976                           ;MCAL_Layer/I2C/hal_i2c.c: 193:             *ack = 1;
  5977   002996  5004               	movf	MSSP_I2C_Master_Write_Blocking@ack^0,w,c
  5978   002998  6ED9               	movwf	fsr2l,c
  5979   00299A  6ADA               	clrf	fsr2h,c
  5980   00299C  0E01               	movlw	1
  5981   00299E  6EDF               	movwf	indf2,c
  5982   0029A0                     l8544:
  5983   0029A0                     l1119:
  5984   0029A0  0012               	return		;funcret
  5985   0029A2                     __end_of_MSSP_I2C_Master_Write_Blocking:
  5986                           	callstack 0
  5987                           
  5988 ;; *************** function _MSSP_I2C_Master_Send_Stop *****************
  5989 ;; Defined at:
  5990 ;;		line 154 in file "MCAL_Layer/I2C/hal_i2c.c"
  5991 ;; Parameters:    Size  Location     Type
  5992 ;;  i2c_obj         1    1[COMRAM] PTR const struct .
  5993 ;;		 -> mssp_i2c1(16), 
  5994 ;; Auto vars:     Size  Location     Type
  5995 ;;  ret             1    0        unsigned char 
  5996 ;; Return value:  Size  Location     Type
  5997 ;;                  1    wreg      unsigned char 
  5998 ;; Registers used:
  5999 ;;		wreg, status,2
  6000 ;; Tracked objects:
  6001 ;;		On entry : 0/0
  6002 ;;		On exit  : 0/0
  6003 ;;		Unchanged: 0/0
  6004 ;; Data sizes:     COMRAM   BANK0   BANK1   BANK2   BANK3   BANK4   BANK5   BANK6   BANK7   BANK8   BANK9  BANK10  BANK1
      +1  BANK12  BANK13  BANK14  BANK15
  6005 ;;      Params:         1       0       0       0       0       0       0       0       0       0       0       0       
      +0       0       0       0       0
  6006 ;;      Locals:         0       0       0       0       0       0       0       0       0       0       0       0       
      +0       0       0       0       0
  6007 ;;      Temps:          0       0       0       0       0       0       0       0       0       0       0       0       
      +0       0       0       0       0
  6008 ;;      Totals:         1       0       0       0       0       0       0       0       0       0       0       0       
      +0       0       0       0       0
  6009 ;;Total ram usage:        1 bytes
  6010 ;; Hardware stack levels used: 1
  6011 ;; Hardware stack levels required when called: 2
  6012 ;; This function calls:
  6013 ;;		Nothing
  6014 ;; This function is called by:
  6015 ;;		_EEPROM_24C02C_Write_Byte
  6016 ;;		_RealTimeClockDS1307_Get_Date_Time
  6017 ;;		_TempSensor_TC74_Read_Temp
  6018 ;;		_I2C_Master_Call_Slave
  6019 ;;		_EEPROM_24C02C_Read_Byte
  6020 ;; This function uses a non-reentrant model
  6021 ;;
  6022                           
  6023                           	psect	text32
  6024   002C64                     __ptext32:
  6025                           	callstack 0
  6026   002C64                     _MSSP_I2C_Master_Send_Stop:
  6027                           	callstack 27
  6028   002C64                     
  6029                           ;MCAL_Layer/I2C/hal_i2c.c: 156:     if (i2c_obj == ((void*)0)) {
  6030   002C64  5002               	movf	MSSP_I2C_Master_Send_Stop@i2c_obj^0,w,c
  6031   002C66  A4D8               	btfss	status,2,c
  6032   002C68  EF38  F016         	goto	u8231
  6033   002C6C  EF3A  F016         	goto	u8230
  6034   002C70                     u8231:
  6035   002C70  EF3C  F016         	goto	l1100
  6036   002C74                     u8230:
  6037   002C74                     l8550:
  6038                           
  6039                           ;MCAL_Layer/I2C/hal_i2c.c: 158:     } else {
  6040   002C74  EF4B  F016         	goto	l1107
  6041   002C78                     l1100:
  6042                           
  6043                           ;MCAL_Layer/I2C/hal_i2c.c: 160:         SSPCON2bits.PEN = 1;
  6044   002C78  84C5               	bsf	197,2,c	;volatile
  6045   002C7A                     l1102:
  6046   002C7A  B4C5               	btfsc	197,2,c	;volatile
  6047   002C7C  EF42  F016         	goto	u8241
  6048   002C80  EF44  F016         	goto	u8240
  6049   002C84                     u8241:
  6050   002C84  EF3D  F016         	goto	l1102
  6051   002C88                     u8240:
  6052   002C88                     
  6053                           ;MCAL_Layer/I2C/hal_i2c.c: 164:         if (SSPSTATbits.P == 1) {
  6054   002C88  A8C7               	btfss	199,4,c	;volatile
  6055   002C8A  EF49  F016         	goto	u8251
  6056   002C8E  EF4B  F016         	goto	u8250
  6057   002C92                     u8251:
  6058   002C92  EF3A  F016         	goto	l8550
  6059   002C96                     u8250:
  6060   002C96                     l1107:
  6061   002C96  0012               	return		;funcret
  6062   002C98                     __end_of_MSSP_I2C_Master_Send_Stop:
  6063                           	callstack 0
  6064                           
  6065 ;; *************** function _MSSP_I2C_Master_Send_Start *****************
  6066 ;; Defined at:
  6067 ;;		line 109 in file "MCAL_Layer/I2C/hal_i2c.c"
  6068 ;; Parameters:    Size  Location     Type
  6069 ;;  i2c_obj         1    1[COMRAM] PTR const struct .
  6070 ;;		 -> mssp_i2c1(16), 
  6071 ;; Auto vars:     Size  Location     Type
  6072 ;;  ret             1    0        unsigned char 
  6073 ;; Return value:  Size  Location     Type
  6074 ;;                  1    wreg      unsigned char 
  6075 ;; Registers used:
  6076 ;;		wreg, status,2
  6077 ;; Tracked objects:
  6078 ;;		On entry : 0/0
  6079 ;;		On exit  : 0/0
  6080 ;;		Unchanged: 0/0
  6081 ;; Data sizes:     COMRAM   BANK0   BANK1   BANK2   BANK3   BANK4   BANK5   BANK6   BANK7   BANK8   BANK9  BANK10  BANK1
      +1  BANK12  BANK13  BANK14  BANK15
  6082 ;;      Params:         1       0       0       0       0       0       0       0       0       0       0       0       
      +0       0       0       0       0
  6083 ;;      Locals:         0       0       0       0       0       0       0       0       0       0       0       0       
      +0       0       0       0       0
  6084 ;;      Temps:          0       0       0       0       0       0       0       0       0       0       0       0       
      +0       0       0       0       0
  6085 ;;      Totals:         1       0       0       0       0       0       0       0       0       0       0       0       
      +0       0       0       0       0
  6086 ;;Total ram usage:        1 bytes
  6087 ;; Hardware stack levels used: 1
  6088 ;; Hardware stack levels required when called: 2
  6089 ;; This function calls:
  6090 ;;		Nothing
  6091 ;; This function is called by:
  6092 ;;		_EEPROM_24C02C_Write_Byte
  6093 ;;		_RealTimeClockDS1307_Get_Date_Time
  6094 ;;		_TempSensor_TC74_Read_Temp
  6095 ;;		_I2C_Master_Call_Slave
  6096 ;;		_EEPROM_24C02C_Read_Byte
  6097 ;; This function uses a non-reentrant model
  6098 ;;
  6099                           
  6100                           	psect	text33
  6101   002C98                     __ptext33:
  6102                           	callstack 0
  6103   002C98                     _MSSP_I2C_Master_Send_Start:
  6104                           	callstack 27
  6105   002C98                     
  6106                           ;MCAL_Layer/I2C/hal_i2c.c: 111:     if (i2c_obj == ((void*)0)) {
  6107   002C98  5002               	movf	MSSP_I2C_Master_Send_Start@i2c_obj^0,w,c
  6108   002C9A  A4D8               	btfss	status,2,c
  6109   002C9C  EF52  F016         	goto	u8151
  6110   002CA0  EF54  F016         	goto	u8150
  6111   002CA4                     u8151:
  6112   002CA4  EF56  F016         	goto	l1082
  6113   002CA8                     u8150:
  6114   002CA8                     l8524:
  6115                           
  6116                           ;MCAL_Layer/I2C/hal_i2c.c: 113:     } else {
  6117   002CA8  EF65  F016         	goto	l1089
  6118   002CAC                     l1082:
  6119                           
  6120                           ;MCAL_Layer/I2C/hal_i2c.c: 115:         SSPCON2bits.SEN = 1;
  6121   002CAC  80C5               	bsf	197,0,c	;volatile
  6122   002CAE                     l1084:
  6123   002CAE  B0C5               	btfsc	197,0,c	;volatile
  6124   002CB0  EF5C  F016         	goto	u8161
  6125   002CB4  EF5E  F016         	goto	u8160
  6126   002CB8                     u8161:
  6127   002CB8  EF57  F016         	goto	l1084
  6128   002CBC                     u8160:
  6129   002CBC                     
  6130                           ;MCAL_Layer/I2C/hal_i2c.c: 119:         if (SSPSTATbits.S == 1) {
  6131   002CBC  A6C7               	btfss	199,3,c	;volatile
  6132   002CBE  EF63  F016         	goto	u8171
  6133   002CC2  EF65  F016         	goto	u8170
  6134   002CC6                     u8171:
  6135   002CC6  EF54  F016         	goto	l8524
  6136   002CCA                     u8170:
  6137   002CCA                     l1089:
  6138   002CCA  0012               	return		;funcret
  6139   002CCC                     __end_of_MSSP_I2C_Master_Send_Start:
  6140                           	callstack 0
  6141                           
  6142 ;; *************** function _InterruptManager *****************
  6143 ;; Defined at:
  6144 ;;		line 26 in file "MCAL_Layer/interrupt/interrupt_manager.c"
  6145 ;; Parameters:    Size  Location     Type
  6146 ;;		None
  6147 ;; Auto vars:     Size  Location     Type
  6148 ;;		None
  6149 ;; Return value:  Size  Location     Type
  6150 ;;                  1    wreg      void 
  6151 ;; Registers used:
  6152 ;;		wreg, status,2, status,0, cstack
  6153 ;; Tracked objects:
  6154 ;;		On entry : 0/0
  6155 ;;		On exit  : 0/0
  6156 ;;		Unchanged: 0/0
  6157 ;; Data sizes:     COMRAM   BANK0   BANK1   BANK2   BANK3   BANK4   BANK5   BANK6   BANK7   BANK8   BANK9  BANK10  BANK1
      +1  BANK12  BANK13  BANK14  BANK15
  6158 ;;      Params:         0       0       0       0       0       0       0       0       0       0       0       0       
      +0       0       0       0       0
  6159 ;;      Locals:         0       0       0       0       0       0       0       0       0       0       0       0       
      +0       0       0       0       0
  6160 ;;      Temps:          0       0       0       0       0       0       0       0       0       0       0       0       
      +0       0       0       0       0
  6161 ;;      Totals:         0       0       0       0       0       0       0       0       0       0       0       0       
      +0       0       0       0       0
  6162 ;;Total ram usage:        0 bytes
  6163 ;; Hardware stack levels used: 1
  6164 ;; Hardware stack levels required when called: 1
  6165 ;; This function calls:
  6166 ;;		_ADC_ISR
  6167 ;;		_CCP1_ISR
  6168 ;;		_CCP2_ISR
  6169 ;;		_EUSART_RX_ISR
  6170 ;;		_EUSART_TX_ISR
  6171 ;;		_INT0_ISR
  6172 ;;		_INT1_ISR
  6173 ;;		_INT2_ISR
  6174 ;;		_MSSP_I2C_BC_ISR
  6175 ;;		_MSSP_I2C_ISR
  6176 ;;		_RB4_ISR
  6177 ;;		_RB5_ISR
  6178 ;;		_RB6_ISR
  6179 ;;		_RB7_ISR
  6180 ;;		_TMR0_ISR
  6181 ;;		_TMR1_ISR
  6182 ;;		_TMR2_ISR
  6183 ;;		_TMR3_ISR
  6184 ;; This function is called by:
  6185 ;;		Interrupt level 2
  6186 ;; This function uses a non-reentrant model
  6187 ;;
  6188                           
  6189                           	psect	intcode
  6190   000008                     __pintcode:
  6191                           	callstack 0
  6192   000008                     _InterruptManager:
  6193                           	callstack 24
  6194                           
  6195                           ;incstack = 0
  6196   000008  825D               	bsf	int$flags,1,c	;set compiler interrupt flag (level 2)
  6197   00000A                     
  6198                           ;MCAL_Layer/interrupt/interrupt_manager.c: 27:     if ((INTCONbits.INT0IE == 1) && (INTC
      +                          ONbits.INT0IF == 1)) {
  6199   00000A  A8F2               	btfss	242,4,c	;volatile
  6200   00000C  EF0A  F000         	goto	i2u722_41
  6201   000010  EF0C  F000         	goto	i2u722_40
  6202   000014                     i2u722_41:
  6203   000014  EF15  F000         	goto	i2l1476
  6204   000018                     i2u722_40:
  6205   000018  A2F2               	btfss	242,1,c	;volatile
  6206   00001A  EF11  F000         	goto	i2u723_41
  6207   00001E  EF13  F000         	goto	i2u723_40
  6208   000022                     i2u723_41:
  6209   000022  EF15  F000         	goto	i2l1476
  6210   000026                     i2u723_40:
  6211   000026                     
  6212                           ;MCAL_Layer/interrupt/interrupt_manager.c: 28:         INT0_ISR();
  6213   000026  EC13  F017         	call	_INT0_ISR	;wreg free
  6214   00002A                     i2l1476:
  6215                           
  6216                           ;MCAL_Layer/interrupt/interrupt_manager.c: 33:     if ((INTCON3bits.INT2IE == 1) && (INT
      +                          CON3bits.INT2IF == 1)) {
  6217   00002A  A8F0               	btfss	240,4,c	;volatile
  6218   00002C  EF1A  F000         	goto	i2u724_41
  6219   000030  EF1C  F000         	goto	i2u724_40
  6220   000034                     i2u724_41:
  6221   000034  EF25  F000         	goto	i2l1478
  6222   000038                     i2u724_40:
  6223   000038  A2F0               	btfss	240,1,c	;volatile
  6224   00003A  EF21  F000         	goto	i2u725_41
  6225   00003E  EF23  F000         	goto	i2u725_40
  6226   000042                     i2u725_41:
  6227   000042  EF25  F000         	goto	i2l1478
  6228   000046                     i2u725_40:
  6229   000046                     
  6230                           ;MCAL_Layer/interrupt/interrupt_manager.c: 34:         INT2_ISR();
  6231   000046  EC0F  F017         	call	_INT2_ISR	;wreg free
  6232   00004A                     i2l1478:
  6233                           
  6234                           ;MCAL_Layer/interrupt/interrupt_manager.c: 39:     if ((INTCON3bits.INT1IE == 1) && (INT
      +                          CON3bits.INT1IF == 1)) {
  6235   00004A  A6F0               	btfss	240,3,c	;volatile
  6236   00004C  EF2A  F000         	goto	i2u726_41
  6237   000050  EF2C  F000         	goto	i2u726_40
  6238   000054                     i2u726_41:
  6239   000054  EF35  F000         	goto	i2l1480
  6240   000058                     i2u726_40:
  6241   000058  A0F0               	btfss	240,0,c	;volatile
  6242   00005A  EF31  F000         	goto	i2u727_41
  6243   00005E  EF33  F000         	goto	i2u727_40
  6244   000062                     i2u727_41:
  6245   000062  EF35  F000         	goto	i2l1480
  6246   000066                     i2u727_40:
  6247   000066                     
  6248                           ;MCAL_Layer/interrupt/interrupt_manager.c: 40:         INT1_ISR();
  6249   000066  EC11  F017         	call	_INT1_ISR	;wreg free
  6250   00006A                     i2l1480:
  6251                           
  6252                           ;MCAL_Layer/interrupt/interrupt_manager.c: 45:     if ((INTCONbits.RBIE == 1) && (INTCON
      +                          bits.RBIF == 1) && (IOCBbits.IOCB4 == 1) && (PORTBbits.RB4 == GPIO_HIGH)) {
  6253   00006A  A6F2               	btfss	242,3,c	;volatile
  6254   00006C  EF3A  F000         	goto	i2u728_41
  6255   000070  EF3C  F000         	goto	i2u728_40
  6256   000074                     i2u728_41:
  6257   000074  EF56  F000         	goto	i2l1481
  6258   000078                     i2u728_40:
  6259   000078  A0F2               	btfss	242,0,c	;volatile
  6260   00007A  EF41  F000         	goto	i2u729_41
  6261   00007E  EF43  F000         	goto	i2u729_40
  6262   000082                     i2u729_41:
  6263   000082  EF56  F000         	goto	i2l1481
  6264   000086                     i2u729_40:
  6265   000086  A87D               	btfss	125,4,c	;volatile
  6266   000088  EF48  F000         	goto	i2u730_41
  6267   00008C  EF4A  F000         	goto	i2u730_40
  6268   000090                     i2u730_41:
  6269   000090  EF56  F000         	goto	i2l1481
  6270   000094                     i2u730_40:
  6271   000094  A881               	btfss	129,4,c	;volatile
  6272   000096  EF4F  F000         	goto	i2u731_41
  6273   00009A  EF51  F000         	goto	i2u731_40
  6274   00009E                     i2u731_41:
  6275   00009E  EF56  F000         	goto	i2l1481
  6276   0000A2                     i2u731_40:
  6277   0000A2                     
  6278                           ;MCAL_Layer/interrupt/interrupt_manager.c: 46:         RB4_ISR(1);
  6279   0000A2  0E01               	movlw	1
  6280   0000A4  ECE0  F016         	call	_RB4_ISR
  6281                           
  6282                           ;MCAL_Layer/interrupt/interrupt_manager.c: 47:     } else if ((INTCONbits.RBIE == 1) && 
      +                          (INTCONbits.RBIF == 1) && (IOCBbits.IOCB4 == 1) && (PORTBbits.RB4 == GPIO_LOW)) {
  6283   0000A8  EF75  F000         	goto	i2l1482
  6284   0000AC                     i2l1481:
  6285   0000AC  A6F2               	btfss	242,3,c	;volatile
  6286   0000AE  EF5B  F000         	goto	i2u732_41
  6287   0000B2  EF5D  F000         	goto	i2u732_40
  6288   0000B6                     i2u732_41:
  6289   0000B6  EF75  F000         	goto	i2l1482
  6290   0000BA                     i2u732_40:
  6291   0000BA  A0F2               	btfss	242,0,c	;volatile
  6292   0000BC  EF62  F000         	goto	i2u733_41
  6293   0000C0  EF64  F000         	goto	i2u733_40
  6294   0000C4                     i2u733_41:
  6295   0000C4  EF75  F000         	goto	i2l1482
  6296   0000C8                     i2u733_40:
  6297   0000C8  A87D               	btfss	125,4,c	;volatile
  6298   0000CA  EF69  F000         	goto	i2u734_41
  6299   0000CE  EF6B  F000         	goto	i2u734_40
  6300   0000D2                     i2u734_41:
  6301   0000D2  EF75  F000         	goto	i2l1482
  6302   0000D6                     i2u734_40:
  6303   0000D6  B881               	btfsc	129,4,c	;volatile
  6304   0000D8  EF70  F000         	goto	i2u735_41
  6305   0000DC  EF72  F000         	goto	i2u735_40
  6306   0000E0                     i2u735_41:
  6307   0000E0  EF75  F000         	goto	i2l1482
  6308   0000E4                     i2u735_40:
  6309   0000E4                     
  6310                           ;MCAL_Layer/interrupt/interrupt_manager.c: 48:         RB4_ISR(0);
  6311   0000E4  0E00               	movlw	0
  6312   0000E6  ECE0  F016         	call	_RB4_ISR
  6313   0000EA                     i2l1482:
  6314                           
  6315                           ;MCAL_Layer/interrupt/interrupt_manager.c: 53:     if ((INTCONbits.RBIE == 1) && (INTCON
      +                          bits.RBIF == 1) && (IOCBbits.IOCB5 == 1) && (PORTBbits.RB5 == GPIO_HIGH)) {
  6316   0000EA  A6F2               	btfss	242,3,c	;volatile
  6317   0000EC  EF7A  F000         	goto	i2u736_41
  6318   0000F0  EF7C  F000         	goto	i2u736_40
  6319   0000F4                     i2u736_41:
  6320   0000F4  EF96  F000         	goto	i2l1485
  6321   0000F8                     i2u736_40:
  6322   0000F8  A0F2               	btfss	242,0,c	;volatile
  6323   0000FA  EF81  F000         	goto	i2u737_41
  6324   0000FE  EF83  F000         	goto	i2u737_40
  6325   000102                     i2u737_41:
  6326   000102  EF96  F000         	goto	i2l1485
  6327   000106                     i2u737_40:
  6328   000106  AA7D               	btfss	125,5,c	;volatile
  6329   000108  EF88  F000         	goto	i2u738_41
  6330   00010C  EF8A  F000         	goto	i2u738_40
  6331   000110                     i2u738_41:
  6332   000110  EF96  F000         	goto	i2l1485
  6333   000114                     i2u738_40:
  6334   000114  AA81               	btfss	129,5,c	;volatile
  6335   000116  EF8F  F000         	goto	i2u739_41
  6336   00011A  EF91  F000         	goto	i2u739_40
  6337   00011E                     i2u739_41:
  6338   00011E  EF96  F000         	goto	i2l1485
  6339   000122                     i2u739_40:
  6340   000122                     
  6341                           ;MCAL_Layer/interrupt/interrupt_manager.c: 54:         RB5_ISR(1);
  6342   000122  0E01               	movlw	1
  6343   000124  ECD3  F016         	call	_RB5_ISR
  6344                           
  6345                           ;MCAL_Layer/interrupt/interrupt_manager.c: 55:     } else if ((INTCONbits.RBIE == 1) && 
      +                          (INTCONbits.RBIF == 1) && (IOCBbits.IOCB5 == 1) && (PORTBbits.RB5 == GPIO_LOW)) {
  6346   000128  EFB5  F000         	goto	i2l1486
  6347   00012C                     i2l1485:
  6348   00012C  A6F2               	btfss	242,3,c	;volatile
  6349   00012E  EF9B  F000         	goto	i2u740_41
  6350   000132  EF9D  F000         	goto	i2u740_40
  6351   000136                     i2u740_41:
  6352   000136  EFB5  F000         	goto	i2l1486
  6353   00013A                     i2u740_40:
  6354   00013A  A0F2               	btfss	242,0,c	;volatile
  6355   00013C  EFA2  F000         	goto	i2u741_41
  6356   000140  EFA4  F000         	goto	i2u741_40
  6357   000144                     i2u741_41:
  6358   000144  EFB5  F000         	goto	i2l1486
  6359   000148                     i2u741_40:
  6360   000148  AA7D               	btfss	125,5,c	;volatile
  6361   00014A  EFA9  F000         	goto	i2u742_41
  6362   00014E  EFAB  F000         	goto	i2u742_40
  6363   000152                     i2u742_41:
  6364   000152  EFB5  F000         	goto	i2l1486
  6365   000156                     i2u742_40:
  6366   000156  BA81               	btfsc	129,5,c	;volatile
  6367   000158  EFB0  F000         	goto	i2u743_41
  6368   00015C  EFB2  F000         	goto	i2u743_40
  6369   000160                     i2u743_41:
  6370   000160  EFB5  F000         	goto	i2l1486
  6371   000164                     i2u743_40:
  6372   000164                     
  6373                           ;MCAL_Layer/interrupt/interrupt_manager.c: 56:         RB5_ISR(0);
  6374   000164  0E00               	movlw	0
  6375   000166  ECD3  F016         	call	_RB5_ISR
  6376   00016A                     i2l1486:
  6377                           
  6378                           ;MCAL_Layer/interrupt/interrupt_manager.c: 61:     if ((INTCONbits.RBIE == 1) && (INTCON
      +                          bits.RBIF == 1) && (IOCBbits.IOCB6 == 1) && (PORTBbits.RB6 == GPIO_HIGH)) {
  6379   00016A  A6F2               	btfss	242,3,c	;volatile
  6380   00016C  EFBA  F000         	goto	i2u744_41
  6381   000170  EFBC  F000         	goto	i2u744_40
  6382   000174                     i2u744_41:
  6383   000174  EFD6  F000         	goto	i2l1489
  6384   000178                     i2u744_40:
  6385   000178  A0F2               	btfss	242,0,c	;volatile
  6386   00017A  EFC1  F000         	goto	i2u745_41
  6387   00017E  EFC3  F000         	goto	i2u745_40
  6388   000182                     i2u745_41:
  6389   000182  EFD6  F000         	goto	i2l1489
  6390   000186                     i2u745_40:
  6391   000186  AC7D               	btfss	125,6,c	;volatile
  6392   000188  EFC8  F000         	goto	i2u746_41
  6393   00018C  EFCA  F000         	goto	i2u746_40
  6394   000190                     i2u746_41:
  6395   000190  EFD6  F000         	goto	i2l1489
  6396   000194                     i2u746_40:
  6397   000194  AC81               	btfss	129,6,c	;volatile
  6398   000196  EFCF  F000         	goto	i2u747_41
  6399   00019A  EFD1  F000         	goto	i2u747_40
  6400   00019E                     i2u747_41:
  6401   00019E  EFD6  F000         	goto	i2l1489
  6402   0001A2                     i2u747_40:
  6403   0001A2                     
  6404                           ;MCAL_Layer/interrupt/interrupt_manager.c: 62:         RB6_ISR(1);
  6405   0001A2  0E01               	movlw	1
  6406   0001A4  ECC6  F016         	call	_RB6_ISR
  6407                           
  6408                           ;MCAL_Layer/interrupt/interrupt_manager.c: 63:     } else if ((INTCONbits.RBIE == 1) && 
      +                          (INTCONbits.RBIF == 1) && (IOCBbits.IOCB6 == 1) && (PORTBbits.RB6 == GPIO_LOW)) {
  6409   0001A8  EFF5  F000         	goto	i2l1490
  6410   0001AC                     i2l1489:
  6411   0001AC  A6F2               	btfss	242,3,c	;volatile
  6412   0001AE  EFDB  F000         	goto	i2u748_41
  6413   0001B2  EFDD  F000         	goto	i2u748_40
  6414   0001B6                     i2u748_41:
  6415   0001B6  EFF5  F000         	goto	i2l1490
  6416   0001BA                     i2u748_40:
  6417   0001BA  A0F2               	btfss	242,0,c	;volatile
  6418   0001BC  EFE2  F000         	goto	i2u749_41
  6419   0001C0  EFE4  F000         	goto	i2u749_40
  6420   0001C4                     i2u749_41:
  6421   0001C4  EFF5  F000         	goto	i2l1490
  6422   0001C8                     i2u749_40:
  6423   0001C8  AC7D               	btfss	125,6,c	;volatile
  6424   0001CA  EFE9  F000         	goto	i2u750_41
  6425   0001CE  EFEB  F000         	goto	i2u750_40
  6426   0001D2                     i2u750_41:
  6427   0001D2  EFF5  F000         	goto	i2l1490
  6428   0001D6                     i2u750_40:
  6429   0001D6  BC81               	btfsc	129,6,c	;volatile
  6430   0001D8  EFF0  F000         	goto	i2u751_41
  6431   0001DC  EFF2  F000         	goto	i2u751_40
  6432   0001E0                     i2u751_41:
  6433   0001E0  EFF5  F000         	goto	i2l1490
  6434   0001E4                     i2u751_40:
  6435   0001E4                     
  6436                           ;MCAL_Layer/interrupt/interrupt_manager.c: 64:         RB6_ISR(0);
  6437   0001E4  0E00               	movlw	0
  6438   0001E6  ECC6  F016         	call	_RB6_ISR
  6439   0001EA                     i2l1490:
  6440                           
  6441                           ;MCAL_Layer/interrupt/interrupt_manager.c: 69:     if ((INTCONbits.RBIE == 1) && (INTCON
      +                          bits.RBIF == 1) && (IOCBbits.IOCB7 == 1) && (PORTBbits.RB7 == GPIO_HIGH)) {
  6442   0001EA  A6F2               	btfss	242,3,c	;volatile
  6443   0001EC  EFFA  F000         	goto	i2u752_41
  6444   0001F0  EFFC  F000         	goto	i2u752_40
  6445   0001F4                     i2u752_41:
  6446   0001F4  EF16  F001         	goto	i2l1493
  6447   0001F8                     i2u752_40:
  6448   0001F8  A0F2               	btfss	242,0,c	;volatile
  6449   0001FA  EF01  F001         	goto	i2u753_41
  6450   0001FE  EF03  F001         	goto	i2u753_40
  6451   000202                     i2u753_41:
  6452   000202  EF16  F001         	goto	i2l1493
  6453   000206                     i2u753_40:
  6454   000206  AE7D               	btfss	125,7,c	;volatile
  6455   000208  EF08  F001         	goto	i2u754_41
  6456   00020C  EF0A  F001         	goto	i2u754_40
  6457   000210                     i2u754_41:
  6458   000210  EF16  F001         	goto	i2l1493
  6459   000214                     i2u754_40:
  6460   000214  AE81               	btfss	129,7,c	;volatile
  6461   000216  EF0F  F001         	goto	i2u755_41
  6462   00021A  EF11  F001         	goto	i2u755_40
  6463   00021E                     i2u755_41:
  6464   00021E  EF16  F001         	goto	i2l1493
  6465   000222                     i2u755_40:
  6466   000222                     
  6467                           ;MCAL_Layer/interrupt/interrupt_manager.c: 70:         RB7_ISR(1);
  6468   000222  0E01               	movlw	1
  6469   000224  ECB9  F016         	call	_RB7_ISR
  6470                           
  6471                           ;MCAL_Layer/interrupt/interrupt_manager.c: 71:     } else if ((INTCONbits.RBIE == 1) && 
      +                          (INTCONbits.RBIF == 1) && (IOCBbits.IOCB7 == 1) && (PORTBbits.RB7 == GPIO_LOW)) {
  6472   000228  EF35  F001         	goto	i2l1494
  6473   00022C                     i2l1493:
  6474   00022C  A6F2               	btfss	242,3,c	;volatile
  6475   00022E  EF1B  F001         	goto	i2u756_41
  6476   000232  EF1D  F001         	goto	i2u756_40
  6477   000236                     i2u756_41:
  6478   000236  EF35  F001         	goto	i2l1494
  6479   00023A                     i2u756_40:
  6480   00023A  A0F2               	btfss	242,0,c	;volatile
  6481   00023C  EF22  F001         	goto	i2u757_41
  6482   000240  EF24  F001         	goto	i2u757_40
  6483   000244                     i2u757_41:
  6484   000244  EF35  F001         	goto	i2l1494
  6485   000248                     i2u757_40:
  6486   000248  AE7D               	btfss	125,7,c	;volatile
  6487   00024A  EF29  F001         	goto	i2u758_41
  6488   00024E  EF2B  F001         	goto	i2u758_40
  6489   000252                     i2u758_41:
  6490   000252  EF35  F001         	goto	i2l1494
  6491   000256                     i2u758_40:
  6492   000256  BE81               	btfsc	129,7,c	;volatile
  6493   000258  EF30  F001         	goto	i2u759_41
  6494   00025C  EF32  F001         	goto	i2u759_40
  6495   000260                     i2u759_41:
  6496   000260  EF35  F001         	goto	i2l1494
  6497   000264                     i2u759_40:
  6498   000264                     
  6499                           ;MCAL_Layer/interrupt/interrupt_manager.c: 72:         RB7_ISR(0);
  6500   000264  0E00               	movlw	0
  6501   000266  ECB9  F016         	call	_RB7_ISR
  6502   00026A                     i2l1494:
  6503                           
  6504                           ;MCAL_Layer/interrupt/interrupt_manager.c: 77:     if ((1 == PIE1bits.ADIE) && (1 == PIR
      +                          1bits.ADIF)) {
  6505   00026A  AC9D               	btfss	157,6,c	;volatile
  6506   00026C  EF3A  F001         	goto	i2u760_41
  6507   000270  EF3C  F001         	goto	i2u760_40
  6508   000274                     i2u760_41:
  6509   000274  EF45  F001         	goto	i2l1498
  6510   000278                     i2u760_40:
  6511   000278  AC9E               	btfss	158,6,c	;volatile
  6512   00027A  EF41  F001         	goto	i2u761_41
  6513   00027E  EF43  F001         	goto	i2u761_40
  6514   000282                     i2u761_41:
  6515   000282  EF45  F001         	goto	i2l1498
  6516   000286                     i2u761_40:
  6517   000286                     
  6518                           ;MCAL_Layer/interrupt/interrupt_manager.c: 78:         ADC_ISR();
  6519   000286  EC1B  F017         	call	_ADC_ISR	;wreg free
  6520   00028A                     i2l1498:
  6521                           
  6522                           ;MCAL_Layer/interrupt/interrupt_manager.c: 83:     if ((1 == INTCONbits.TMR0IE) && (1 ==
      +                           INTCONbits.TMR0IF)) {
  6523   00028A  AAF2               	btfss	242,5,c	;volatile
  6524   00028C  EF4A  F001         	goto	i2u762_41
  6525   000290  EF4C  F001         	goto	i2u762_40
  6526   000294                     i2u762_41:
  6527   000294  EF55  F001         	goto	i2l1500
  6528   000298                     i2u762_40:
  6529   000298  A4F2               	btfss	242,2,c	;volatile
  6530   00029A  EF51  F001         	goto	i2u763_41
  6531   00029E  EF53  F001         	goto	i2u763_40
  6532   0002A2                     i2u763_41:
  6533   0002A2  EF55  F001         	goto	i2l1500
  6534   0002A6                     i2u763_40:
  6535   0002A6                     
  6536                           ;MCAL_Layer/interrupt/interrupt_manager.c: 84:         TMR0_ISR();
  6537   0002A6  EC09  F017         	call	_TMR0_ISR	;wreg free
  6538   0002AA                     i2l1500:
  6539                           
  6540                           ;MCAL_Layer/interrupt/interrupt_manager.c: 88:     if ((1 == PIE1bits.TMR1IE) && (1 == P
      +                          IR1bits.TMR1IF)) {
  6541   0002AA  A09D               	btfss	157,0,c	;volatile
  6542   0002AC  EF5A  F001         	goto	i2u764_41
  6543   0002B0  EF5C  F001         	goto	i2u764_40
  6544   0002B4                     i2u764_41:
  6545   0002B4  EF65  F001         	goto	i2l1502
  6546   0002B8                     i2u764_40:
  6547   0002B8  A09E               	btfss	158,0,c	;volatile
  6548   0002BA  EF61  F001         	goto	i2u765_41
  6549   0002BE  EF63  F001         	goto	i2u765_40
  6550   0002C2                     i2u765_41:
  6551   0002C2  EF65  F001         	goto	i2l1502
  6552   0002C6                     i2u765_40:
  6553   0002C6                     
  6554                           ;MCAL_Layer/interrupt/interrupt_manager.c: 89:         TMR1_ISR();
  6555   0002C6  EC07  F017         	call	_TMR1_ISR	;wreg free
  6556   0002CA                     i2l1502:
  6557                           
  6558                           ;MCAL_Layer/interrupt/interrupt_manager.c: 93:     if ((1 == PIE1bits.TMR2IE) && (1 == P
      +                          IR1bits.TMR2IF)) {
  6559   0002CA  A29D               	btfss	157,1,c	;volatile
  6560   0002CC  EF6A  F001         	goto	i2u766_41
  6561   0002D0  EF6C  F001         	goto	i2u766_40
  6562   0002D4                     i2u766_41:
  6563   0002D4  EF75  F001         	goto	i2l1504
  6564   0002D8                     i2u766_40:
  6565   0002D8  A29E               	btfss	158,1,c	;volatile
  6566   0002DA  EF71  F001         	goto	i2u767_41
  6567   0002DE  EF73  F001         	goto	i2u767_40
  6568   0002E2                     i2u767_41:
  6569   0002E2  EF75  F001         	goto	i2l1504
  6570   0002E6                     i2u767_40:
  6571   0002E6                     
  6572                           ;MCAL_Layer/interrupt/interrupt_manager.c: 94:         TMR2_ISR();
  6573   0002E6  EC05  F017         	call	_TMR2_ISR	;wreg free
  6574   0002EA                     i2l1504:
  6575                           
  6576                           ;MCAL_Layer/interrupt/interrupt_manager.c: 98:     if ((1 == PIE2bits.TMR3IE) && (1 == P
      +                          IR2bits.TMR3IF)) {
  6577   0002EA  A2A0               	btfss	160,1,c	;volatile
  6578   0002EC  EF7A  F001         	goto	i2u768_41
  6579   0002F0  EF7C  F001         	goto	i2u768_40
  6580   0002F4                     i2u768_41:
  6581   0002F4  EF85  F001         	goto	i2l1506
  6582   0002F8                     i2u768_40:
  6583   0002F8  A2A1               	btfss	161,1,c	;volatile
  6584   0002FA  EF81  F001         	goto	i2u769_41
  6585   0002FE  EF83  F001         	goto	i2u769_40
  6586   000302                     i2u769_41:
  6587   000302  EF85  F001         	goto	i2l1506
  6588   000306                     i2u769_40:
  6589   000306                     
  6590                           ;MCAL_Layer/interrupt/interrupt_manager.c: 99:         TMR3_ISR();
  6591   000306  EC03  F017         	call	_TMR3_ISR	;wreg free
  6592   00030A                     i2l1506:
  6593                           
  6594                           ;MCAL_Layer/interrupt/interrupt_manager.c: 103:     if ((1 == PIE1bits.CCP1IE) && (1 == 
      +                          PIR1bits.CCP1IF)) {
  6595   00030A  A49D               	btfss	157,2,c	;volatile
  6596   00030C  EF8A  F001         	goto	i2u770_41
  6597   000310  EF8C  F001         	goto	i2u770_40
  6598   000314                     i2u770_41:
  6599   000314  EF95  F001         	goto	i2l1508
  6600   000318                     i2u770_40:
  6601   000318  A49E               	btfss	158,2,c	;volatile
  6602   00031A  EF91  F001         	goto	i2u771_41
  6603   00031E  EF93  F001         	goto	i2u771_40
  6604   000322                     i2u771_41:
  6605   000322  EF95  F001         	goto	i2l1508
  6606   000326                     i2u771_40:
  6607   000326                     
  6608                           ;MCAL_Layer/interrupt/interrupt_manager.c: 104:         CCP1_ISR();
  6609   000326  EC19  F017         	call	_CCP1_ISR	;wreg free
  6610   00032A                     i2l1508:
  6611                           
  6612                           ;MCAL_Layer/interrupt/interrupt_manager.c: 108:     if ((1 == PIE2bits.CCP2IE) && (1 == 
      +                          PIR2bits.CCP2IF)) {
  6613   00032A  A0A0               	btfss	160,0,c	;volatile
  6614   00032C  EF9A  F001         	goto	i2u772_41
  6615   000330  EF9C  F001         	goto	i2u772_40
  6616   000334                     i2u772_41:
  6617   000334  EFA5  F001         	goto	i2l1510
  6618   000338                     i2u772_40:
  6619   000338  A0A1               	btfss	161,0,c	;volatile
  6620   00033A  EFA1  F001         	goto	i2u773_41
  6621   00033E  EFA3  F001         	goto	i2u773_40
  6622   000342                     i2u773_41:
  6623   000342  EFA5  F001         	goto	i2l1510
  6624   000346                     i2u773_40:
  6625   000346                     
  6626                           ;MCAL_Layer/interrupt/interrupt_manager.c: 109:         CCP2_ISR();
  6627   000346  EC17  F017         	call	_CCP2_ISR	;wreg free
  6628   00034A                     i2l1510:
  6629                           
  6630                           ;MCAL_Layer/interrupt/interrupt_manager.c: 113:     if ((1 == PIE1bits.TXIE) && (1 == PI
      +                          R1bits.TXIF)) {
  6631   00034A  A89D               	btfss	157,4,c	;volatile
  6632   00034C  EFAA  F001         	goto	i2u774_41
  6633   000350  EFAC  F001         	goto	i2u774_40
  6634   000354                     i2u774_41:
  6635   000354  EFB5  F001         	goto	i2l1512
  6636   000358                     i2u774_40:
  6637   000358  A89E               	btfss	158,4,c	;volatile
  6638   00035A  EFB1  F001         	goto	i2u775_41
  6639   00035E  EFB3  F001         	goto	i2u775_40
  6640   000362                     i2u775_41:
  6641   000362  EFB5  F001         	goto	i2l1512
  6642   000366                     i2u775_40:
  6643   000366                     
  6644                           ;MCAL_Layer/interrupt/interrupt_manager.c: 114:         EUSART_TX_ISR();
  6645   000366  EC15  F017         	call	_EUSART_TX_ISR	;wreg free
  6646   00036A                     i2l1512:
  6647                           
  6648                           ;MCAL_Layer/interrupt/interrupt_manager.c: 118:     if ((1 == PIE1bits.RCIE) && (1 == PI
      +                          R1bits.RCIF)) {
  6649   00036A  AA9D               	btfss	157,5,c	;volatile
  6650   00036C  EFBA  F001         	goto	i2u776_41
  6651   000370  EFBC  F001         	goto	i2u776_40
  6652   000374                     i2u776_41:
  6653   000374  EFC5  F001         	goto	i2l1514
  6654   000378                     i2u776_40:
  6655   000378  AA9E               	btfss	158,5,c	;volatile
  6656   00037A  EFC1  F001         	goto	i2u777_41
  6657   00037E  EFC3  F001         	goto	i2u777_40
  6658   000382                     i2u777_41:
  6659   000382  EFC5  F001         	goto	i2l1514
  6660   000386                     i2u777_40:
  6661   000386                     
  6662                           ;MCAL_Layer/interrupt/interrupt_manager.c: 119:         EUSART_RX_ISR();
  6663   000386  EC1E  F017         	call	_EUSART_RX_ISR	;wreg free
  6664   00038A                     i2l1514:
  6665                           
  6666                           ;MCAL_Layer/interrupt/interrupt_manager.c: 124:     if ((1 == PIE1bits.SSPIE) && (1 == P
      +                          IR1bits.SSPIF)) {
  6667   00038A  A69D               	btfss	157,3,c	;volatile
  6668   00038C  EFCA  F001         	goto	i2u778_41
  6669   000390  EFCC  F001         	goto	i2u778_40
  6670   000394                     i2u778_41:
  6671   000394  EFD5  F001         	goto	i2l1516
  6672   000398                     i2u778_40:
  6673   000398  A69E               	btfss	158,3,c	;volatile
  6674   00039A  EFD1  F001         	goto	i2u779_41
  6675   00039E  EFD3  F001         	goto	i2u779_40
  6676   0003A2                     i2u779_41:
  6677   0003A2  EFD5  F001         	goto	i2l1516
  6678   0003A6                     i2u779_40:
  6679   0003A6                     
  6680                           ;MCAL_Layer/interrupt/interrupt_manager.c: 125:         MSSP_I2C_ISR();
  6681   0003A6  EC0B  F017         	call	_MSSP_I2C_ISR	;wreg free
  6682   0003AA                     i2l1516:
  6683                           
  6684                           ;MCAL_Layer/interrupt/interrupt_manager.c: 129:     if ((1 == PIE2bits.BCLIE) && (1 == P
      +                          IR2bits.BCLIF)) {
  6685   0003AA  A6A0               	btfss	160,3,c	;volatile
  6686   0003AC  EFDA  F001         	goto	i2u780_41
  6687   0003B0  EFDC  F001         	goto	i2u780_40
  6688   0003B4                     i2u780_41:
  6689   0003B4  EFE5  F001         	goto	i2l1519
  6690   0003B8                     i2u780_40:
  6691   0003B8  A6A1               	btfss	161,3,c	;volatile
  6692   0003BA  EFE1  F001         	goto	i2u781_41
  6693   0003BE  EFE3  F001         	goto	i2u781_40
  6694   0003C2                     i2u781_41:
  6695   0003C2  EFE5  F001         	goto	i2l1519
  6696   0003C6                     i2u781_40:
  6697   0003C6                     
  6698                           ;MCAL_Layer/interrupt/interrupt_manager.c: 130:         MSSP_I2C_BC_ISR();
  6699   0003C6  EC0D  F017         	call	_MSSP_I2C_BC_ISR	;wreg free
  6700   0003CA                     i2l1519:
  6701   0003CA  925D               	bcf	int$flags,1,c	;clear compiler interrupt flag (level 2)
  6702   0003CC  0011               	retfie		f
  6703   0003CE                     __end_of_InterruptManager:
  6704                           	callstack 0
  6705                           
  6706 ;; *************** function _TMR3_ISR *****************
  6707 ;; Defined at:
  6708 ;;		line 185 in file "MCAL_Layer/Timers/hal_timer3.c"
  6709 ;; Parameters:    Size  Location     Type
  6710 ;;		None
  6711 ;; Auto vars:     Size  Location     Type
  6712 ;;		None
  6713 ;; Return value:  Size  Location     Type
  6714 ;;                  1    wreg      void 
  6715 ;; Registers used:
  6716 ;;		None
  6717 ;; Tracked objects:
  6718 ;;		On entry : 0/0
  6719 ;;		On exit  : 0/0
  6720 ;;		Unchanged: 0/0
  6721 ;; Data sizes:     COMRAM   BANK0   BANK1   BANK2   BANK3   BANK4   BANK5   BANK6   BANK7   BANK8   BANK9  BANK10  BANK1
      +1  BANK12  BANK13  BANK14  BANK15
  6722 ;;      Params:         0       0       0       0       0       0       0       0       0       0       0       0       
      +0       0       0       0       0
  6723 ;;      Locals:         0       0       0       0       0       0       0       0       0       0       0       0       
      +0       0       0       0       0
  6724 ;;      Temps:          0       0       0       0       0       0       0       0       0       0       0       0       
      +0       0       0       0       0
  6725 ;;      Totals:         0       0       0       0       0       0       0       0       0       0       0       0       
      +0       0       0       0       0
  6726 ;;Total ram usage:        0 bytes
  6727 ;; Hardware stack levels used: 1
  6728 ;; This function calls:
  6729 ;;		Nothing
  6730 ;; This function is called by:
  6731 ;;		_InterruptManager
  6732 ;; This function uses a non-reentrant model
  6733 ;;
  6734                           
  6735                           	psect	text35
  6736   002E06                     __ptext35:
  6737                           	callstack 0
  6738   002E06                     _TMR3_ISR:
  6739                           	callstack 24
  6740   002E06                     
  6741                           ;MCAL_Layer/Timers/hal_timer3.c: 186:     (PIR2bits.TMR3IF = 0);
  6742   002E06  92A1               	bcf	161,1,c	;volatile
  6743   002E08  0012               	return		;funcret
  6744   002E0A                     __end_of_TMR3_ISR:
  6745                           	callstack 0
  6746                           
  6747 ;; *************** function _TMR2_ISR *****************
  6748 ;; Defined at:
  6749 ;;		line 130 in file "MCAL_Layer/Timers/hal_timer2.c"
  6750 ;; Parameters:    Size  Location     Type
  6751 ;;		None
  6752 ;; Auto vars:     Size  Location     Type
  6753 ;;		None
  6754 ;; Return value:  Size  Location     Type
  6755 ;;                  1    wreg      void 
  6756 ;; Registers used:
  6757 ;;		None
  6758 ;; Tracked objects:
  6759 ;;		On entry : 0/0
  6760 ;;		On exit  : 0/0
  6761 ;;		Unchanged: 0/0
  6762 ;; Data sizes:     COMRAM   BANK0   BANK1   BANK2   BANK3   BANK4   BANK5   BANK6   BANK7   BANK8   BANK9  BANK10  BANK1
      +1  BANK12  BANK13  BANK14  BANK15
  6763 ;;      Params:         0       0       0       0       0       0       0       0       0       0       0       0       
      +0       0       0       0       0
  6764 ;;      Locals:         0       0       0       0       0       0       0       0       0       0       0       0       
      +0       0       0       0       0
  6765 ;;      Temps:          0       0       0       0       0       0       0       0       0       0       0       0       
      +0       0       0       0       0
  6766 ;;      Totals:         0       0       0       0       0       0       0       0       0       0       0       0       
      +0       0       0       0       0
  6767 ;;Total ram usage:        0 bytes
  6768 ;; Hardware stack levels used: 1
  6769 ;; This function calls:
  6770 ;;		Nothing
  6771 ;; This function is called by:
  6772 ;;		_InterruptManager
  6773 ;; This function uses a non-reentrant model
  6774 ;;
  6775                           
  6776                           	psect	text36
  6777   002E0A                     __ptext36:
  6778                           	callstack 0
  6779   002E0A                     _TMR2_ISR:
  6780                           	callstack 24
  6781   002E0A                     
  6782                           ;MCAL_Layer/Timers/hal_timer2.c: 131:     (PIR1bits.TMR2IF = 0);
  6783   002E0A  929E               	bcf	158,1,c	;volatile
  6784   002E0C  0012               	return		;funcret
  6785   002E0E                     __end_of_TMR2_ISR:
  6786                           	callstack 0
  6787                           
  6788 ;; *************** function _TMR1_ISR *****************
  6789 ;; Defined at:
  6790 ;;		line 187 in file "MCAL_Layer/Timers/hal_timer1.c"
  6791 ;; Parameters:    Size  Location     Type
  6792 ;;		None
  6793 ;; Auto vars:     Size  Location     Type
  6794 ;;		None
  6795 ;; Return value:  Size  Location     Type
  6796 ;;                  1    wreg      void 
  6797 ;; Registers used:
  6798 ;;		None
  6799 ;; Tracked objects:
  6800 ;;		On entry : 0/0
  6801 ;;		On exit  : 0/0
  6802 ;;		Unchanged: 0/0
  6803 ;; Data sizes:     COMRAM   BANK0   BANK1   BANK2   BANK3   BANK4   BANK5   BANK6   BANK7   BANK8   BANK9  BANK10  BANK1
      +1  BANK12  BANK13  BANK14  BANK15
  6804 ;;      Params:         0       0       0       0       0       0       0       0       0       0       0       0       
      +0       0       0       0       0
  6805 ;;      Locals:         0       0       0       0       0       0       0       0       0       0       0       0       
      +0       0       0       0       0
  6806 ;;      Temps:          0       0       0       0       0       0       0       0       0       0       0       0       
      +0       0       0       0       0
  6807 ;;      Totals:         0       0       0       0       0       0       0       0       0       0       0       0       
      +0       0       0       0       0
  6808 ;;Total ram usage:        0 bytes
  6809 ;; Hardware stack levels used: 1
  6810 ;; This function calls:
  6811 ;;		Nothing
  6812 ;; This function is called by:
  6813 ;;		_InterruptManager
  6814 ;; This function uses a non-reentrant model
  6815 ;;
  6816                           
  6817                           	psect	text37
  6818   002E0E                     __ptext37:
  6819                           	callstack 0
  6820   002E0E                     _TMR1_ISR:
  6821                           	callstack 24
  6822   002E0E                     
  6823                           ;MCAL_Layer/Timers/hal_timer1.c: 188:     (PIR1bits.TMR1IF = 0);
  6824   002E0E  909E               	bcf	158,0,c	;volatile
  6825   002E10  0012               	return		;funcret
  6826   002E12                     __end_of_TMR1_ISR:
  6827                           	callstack 0
  6828                           
  6829 ;; *************** function _TMR0_ISR *****************
  6830 ;; Defined at:
  6831 ;;		line 199 in file "MCAL_Layer/Timers/hal_timer0.c"
  6832 ;; Parameters:    Size  Location     Type
  6833 ;;		None
  6834 ;; Auto vars:     Size  Location     Type
  6835 ;;		None
  6836 ;; Return value:  Size  Location     Type
  6837 ;;                  1    wreg      void 
  6838 ;; Registers used:
  6839 ;;		None
  6840 ;; Tracked objects:
  6841 ;;		On entry : 0/0
  6842 ;;		On exit  : 0/0
  6843 ;;		Unchanged: 0/0
  6844 ;; Data sizes:     COMRAM   BANK0   BANK1   BANK2   BANK3   BANK4   BANK5   BANK6   BANK7   BANK8   BANK9  BANK10  BANK1
      +1  BANK12  BANK13  BANK14  BANK15
  6845 ;;      Params:         0       0       0       0       0       0       0       0       0       0       0       0       
      +0       0       0       0       0
  6846 ;;      Locals:         0       0       0       0       0       0       0       0       0       0       0       0       
      +0       0       0       0       0
  6847 ;;      Temps:          0       0       0       0       0       0       0       0       0       0       0       0       
      +0       0       0       0       0
  6848 ;;      Totals:         0       0       0       0       0       0       0       0       0       0       0       0       
      +0       0       0       0       0
  6849 ;;Total ram usage:        0 bytes
  6850 ;; Hardware stack levels used: 1
  6851 ;; This function calls:
  6852 ;;		Nothing
  6853 ;; This function is called by:
  6854 ;;		_InterruptManager
  6855 ;; This function uses a non-reentrant model
  6856 ;;
  6857                           
  6858                           	psect	text38
  6859   002E12                     __ptext38:
  6860                           	callstack 0
  6861   002E12                     _TMR0_ISR:
  6862                           	callstack 24
  6863   002E12                     
  6864                           ;MCAL_Layer/Timers/hal_timer0.c: 200:     (INTCONbits.TMR0IF = 0);
  6865   002E12  94F2               	bcf	242,2,c	;volatile
  6866   002E14  0012               	return		;funcret
  6867   002E16                     __end_of_TMR0_ISR:
  6868                           	callstack 0
  6869                           
  6870 ;; *************** function _RB7_ISR *****************
  6871 ;; Defined at:
  6872 ;;		line 636 in file "MCAL_Layer/interrupt/external_interrupt.c"
  6873 ;; Parameters:    Size  Location     Type
  6874 ;;  source          1    wreg     unsigned char 
  6875 ;; Auto vars:     Size  Location     Type
  6876 ;;  source          1    0[COMRAM] unsigned char 
  6877 ;; Return value:  Size  Location     Type
  6878 ;;                  1    wreg      void 
  6879 ;; Registers used:
  6880 ;;		wreg, status,2, status,0
  6881 ;; Tracked objects:
  6882 ;;		On entry : 0/0
  6883 ;;		On exit  : 0/0
  6884 ;;		Unchanged: 0/0
  6885 ;; Data sizes:     COMRAM   BANK0   BANK1   BANK2   BANK3   BANK4   BANK5   BANK6   BANK7   BANK8   BANK9  BANK10  BANK1
      +1  BANK12  BANK13  BANK14  BANK15
  6886 ;;      Params:         0       0       0       0       0       0       0       0       0       0       0       0       
      +0       0       0       0       0
  6887 ;;      Locals:         1       0       0       0       0       0       0       0       0       0       0       0       
      +0       0       0       0       0
  6888 ;;      Temps:          0       0       0       0       0       0       0       0       0       0       0       0       
      +0       0       0       0       0
  6889 ;;      Totals:         1       0       0       0       0       0       0       0       0       0       0       0       
      +0       0       0       0       0
  6890 ;;Total ram usage:        1 bytes
  6891 ;; Hardware stack levels used: 1
  6892 ;; This function calls:
  6893 ;;		Nothing
  6894 ;; This function is called by:
  6895 ;;		_InterruptManager
  6896 ;; This function uses a non-reentrant model
  6897 ;;
  6898                           
  6899                           	psect	text39
  6900   002D72                     __ptext39:
  6901                           	callstack 0
  6902   002D72                     _RB7_ISR:
  6903                           	callstack 24
  6904                           
  6905                           ;incstack = 0
  6906                           ;RB7_ISR@source stored from wreg
  6907   002D72  6E01               	movwf	RB7_ISR@source^0,c
  6908   002D74                     
  6909                           ;MCAL_Layer/interrupt/external_interrupt.c: 637:     (INTCONbits.RBIF = 0);
  6910   002D74  90F2               	bcf	242,0,c	;volatile
  6911   002D76                     
  6912                           ;MCAL_Layer/interrupt/external_interrupt.c: 638:     if (source == 1) {
  6913   002D76  0401               	decf	RB7_ISR@source^0,w,c
  6914   002D78  A4D8               	btfss	status,2,c
  6915   002D7A  EFC1  F016         	goto	i2u610_41
  6916   002D7E  EFC3  F016         	goto	i2u610_40
  6917   002D82                     i2u610_41:
  6918   002D82  EFC5  F016         	goto	i2l7032
  6919   002D86                     i2u610_40:
  6920   002D86  EFC5  F016         	goto	i2l1418
  6921   002D8A                     i2l7032:
  6922   002D8A                     i2l1418:
  6923   002D8A  0012               	return		;funcret
  6924   002D8C                     __end_of_RB7_ISR:
  6925                           	callstack 0
  6926                           
  6927 ;; *************** function _RB6_ISR *****************
  6928 ;; Defined at:
  6929 ;;		line 620 in file "MCAL_Layer/interrupt/external_interrupt.c"
  6930 ;; Parameters:    Size  Location     Type
  6931 ;;  source          1    wreg     unsigned char 
  6932 ;; Auto vars:     Size  Location     Type
  6933 ;;  source          1    0[COMRAM] unsigned char 
  6934 ;; Return value:  Size  Location     Type
  6935 ;;                  1    wreg      void 
  6936 ;; Registers used:
  6937 ;;		wreg, status,2, status,0
  6938 ;; Tracked objects:
  6939 ;;		On entry : 0/0
  6940 ;;		On exit  : 0/0
  6941 ;;		Unchanged: 0/0
  6942 ;; Data sizes:     COMRAM   BANK0   BANK1   BANK2   BANK3   BANK4   BANK5   BANK6   BANK7   BANK8   BANK9  BANK10  BANK1
      +1  BANK12  BANK13  BANK14  BANK15
  6943 ;;      Params:         0       0       0       0       0       0       0       0       0       0       0       0       
      +0       0       0       0       0
  6944 ;;      Locals:         1       0       0       0       0       0       0       0       0       0       0       0       
      +0       0       0       0       0
  6945 ;;      Temps:          0       0       0       0       0       0       0       0       0       0       0       0       
      +0       0       0       0       0
  6946 ;;      Totals:         1       0       0       0       0       0       0       0       0       0       0       0       
      +0       0       0       0       0
  6947 ;;Total ram usage:        1 bytes
  6948 ;; Hardware stack levels used: 1
  6949 ;; This function calls:
  6950 ;;		Nothing
  6951 ;; This function is called by:
  6952 ;;		_InterruptManager
  6953 ;; This function uses a non-reentrant model
  6954 ;;
  6955                           
  6956                           	psect	text40
  6957   002D8C                     __ptext40:
  6958                           	callstack 0
  6959   002D8C                     _RB6_ISR:
  6960                           	callstack 24
  6961                           
  6962                           ;incstack = 0
  6963                           ;RB6_ISR@source stored from wreg
  6964   002D8C  6E01               	movwf	RB6_ISR@source^0,c
  6965   002D8E                     
  6966                           ;MCAL_Layer/interrupt/external_interrupt.c: 621:     (INTCONbits.RBIF = 0);
  6967   002D8E  90F2               	bcf	242,0,c	;volatile
  6968   002D90                     
  6969                           ;MCAL_Layer/interrupt/external_interrupt.c: 622:     if (source == 1) {
  6970   002D90  0401               	decf	RB6_ISR@source^0,w,c
  6971   002D92  A4D8               	btfss	status,2,c
  6972   002D94  EFCE  F016         	goto	i2u609_41
  6973   002D98  EFD0  F016         	goto	i2u609_40
  6974   002D9C                     i2u609_41:
  6975   002D9C  EFD2  F016         	goto	i2l7018
  6976   002DA0                     i2u609_40:
  6977   002DA0  EFD2  F016         	goto	i2l1407
  6978   002DA4                     i2l7018:
  6979   002DA4                     i2l1407:
  6980   002DA4  0012               	return		;funcret
  6981   002DA6                     __end_of_RB6_ISR:
  6982                           	callstack 0
  6983                           
  6984 ;; *************** function _RB5_ISR *****************
  6985 ;; Defined at:
  6986 ;;		line 604 in file "MCAL_Layer/interrupt/external_interrupt.c"
  6987 ;; Parameters:    Size  Location     Type
  6988 ;;  source          1    wreg     unsigned char 
  6989 ;; Auto vars:     Size  Location     Type
  6990 ;;  source          1    0[COMRAM] unsigned char 
  6991 ;; Return value:  Size  Location     Type
  6992 ;;                  1    wreg      void 
  6993 ;; Registers used:
  6994 ;;		wreg, status,2, status,0
  6995 ;; Tracked objects:
  6996 ;;		On entry : 0/0
  6997 ;;		On exit  : 0/0
  6998 ;;		Unchanged: 0/0
  6999 ;; Data sizes:     COMRAM   BANK0   BANK1   BANK2   BANK3   BANK4   BANK5   BANK6   BANK7   BANK8   BANK9  BANK10  BANK1
      +1  BANK12  BANK13  BANK14  BANK15
  7000 ;;      Params:         0       0       0       0       0       0       0       0       0       0       0       0       
      +0       0       0       0       0
  7001 ;;      Locals:         1       0       0       0       0       0       0       0       0       0       0       0       
      +0       0       0       0       0
  7002 ;;      Temps:          0       0       0       0       0       0       0       0       0       0       0       0       
      +0       0       0       0       0
  7003 ;;      Totals:         1       0       0       0       0       0       0       0       0       0       0       0       
      +0       0       0       0       0
  7004 ;;Total ram usage:        1 bytes
  7005 ;; Hardware stack levels used: 1
  7006 ;; This function calls:
  7007 ;;		Nothing
  7008 ;; This function is called by:
  7009 ;;		_InterruptManager
  7010 ;; This function uses a non-reentrant model
  7011 ;;
  7012                           
  7013                           	psect	text41
  7014   002DA6                     __ptext41:
  7015                           	callstack 0
  7016   002DA6                     _RB5_ISR:
  7017                           	callstack 24
  7018                           
  7019                           ;incstack = 0
  7020                           ;RB5_ISR@source stored from wreg
  7021   002DA6  6E01               	movwf	RB5_ISR@source^0,c
  7022   002DA8                     
  7023                           ;MCAL_Layer/interrupt/external_interrupt.c: 605:     (INTCONbits.RBIF = 0);
  7024   002DA8  90F2               	bcf	242,0,c	;volatile
  7025   002DAA                     
  7026                           ;MCAL_Layer/interrupt/external_interrupt.c: 606:     if (source == 1) {
  7027   002DAA  0401               	decf	RB5_ISR@source^0,w,c
  7028   002DAC  A4D8               	btfss	status,2,c
  7029   002DAE  EFDB  F016         	goto	i2u608_41
  7030   002DB2  EFDD  F016         	goto	i2u608_40
  7031   002DB6                     i2u608_41:
  7032   002DB6  EFDF  F016         	goto	i2l7004
  7033   002DBA                     i2u608_40:
  7034   002DBA  EFDF  F016         	goto	i2l1396
  7035   002DBE                     i2l7004:
  7036   002DBE                     i2l1396:
  7037   002DBE  0012               	return		;funcret
  7038   002DC0                     __end_of_RB5_ISR:
  7039                           	callstack 0
  7040                           
  7041 ;; *************** function _RB4_ISR *****************
  7042 ;; Defined at:
  7043 ;;		line 588 in file "MCAL_Layer/interrupt/external_interrupt.c"
  7044 ;; Parameters:    Size  Location     Type
  7045 ;;  source          1    wreg     unsigned char 
  7046 ;; Auto vars:     Size  Location     Type
  7047 ;;  source          1    0[COMRAM] unsigned char 
  7048 ;; Return value:  Size  Location     Type
  7049 ;;                  1    wreg      void 
  7050 ;; Registers used:
  7051 ;;		wreg, status,2, status,0
  7052 ;; Tracked objects:
  7053 ;;		On entry : 0/0
  7054 ;;		On exit  : 0/0
  7055 ;;		Unchanged: 0/0
  7056 ;; Data sizes:     COMRAM   BANK0   BANK1   BANK2   BANK3   BANK4   BANK5   BANK6   BANK7   BANK8   BANK9  BANK10  BANK1
      +1  BANK12  BANK13  BANK14  BANK15
  7057 ;;      Params:         0       0       0       0       0       0       0       0       0       0       0       0       
      +0       0       0       0       0
  7058 ;;      Locals:         1       0       0       0       0       0       0       0       0       0       0       0       
      +0       0       0       0       0
  7059 ;;      Temps:          0       0       0       0       0       0       0       0       0       0       0       0       
      +0       0       0       0       0
  7060 ;;      Totals:         1       0       0       0       0       0       0       0       0       0       0       0       
      +0       0       0       0       0
  7061 ;;Total ram usage:        1 bytes
  7062 ;; Hardware stack levels used: 1
  7063 ;; This function calls:
  7064 ;;		Nothing
  7065 ;; This function is called by:
  7066 ;;		_InterruptManager
  7067 ;; This function uses a non-reentrant model
  7068 ;;
  7069                           
  7070                           	psect	text42
  7071   002DC0                     __ptext42:
  7072                           	callstack 0
  7073   002DC0                     _RB4_ISR:
  7074                           	callstack 24
  7075                           
  7076                           ;incstack = 0
  7077                           ;RB4_ISR@source stored from wreg
  7078   002DC0  6E01               	movwf	RB4_ISR@source^0,c
  7079   002DC2                     
  7080                           ;MCAL_Layer/interrupt/external_interrupt.c: 589:     (INTCONbits.RBIF = 0);
  7081   002DC2  90F2               	bcf	242,0,c	;volatile
  7082   002DC4                     
  7083                           ;MCAL_Layer/interrupt/external_interrupt.c: 590:     if (source == 1) {
  7084   002DC4  0401               	decf	RB4_ISR@source^0,w,c
  7085   002DC6  A4D8               	btfss	status,2,c
  7086   002DC8  EFE8  F016         	goto	i2u607_41
  7087   002DCC  EFEA  F016         	goto	i2u607_40
  7088   002DD0                     i2u607_41:
  7089   002DD0  EFEC  F016         	goto	i2l6990
  7090   002DD4                     i2u607_40:
  7091   002DD4  EFEC  F016         	goto	i2l1385
  7092   002DD8                     i2l6990:
  7093   002DD8                     i2l1385:
  7094   002DD8  0012               	return		;funcret
  7095   002DDA                     __end_of_RB4_ISR:
  7096                           	callstack 0
  7097                           
  7098 ;; *************** function _MSSP_I2C_ISR *****************
  7099 ;; Defined at:
  7100 ;;		line 235 in file "MCAL_Layer/I2C/hal_i2c.c"
  7101 ;; Parameters:    Size  Location     Type
  7102 ;;		None
  7103 ;; Auto vars:     Size  Location     Type
  7104 ;;		None
  7105 ;; Return value:  Size  Location     Type
  7106 ;;                  1    wreg      void 
  7107 ;; Registers used:
  7108 ;;		None
  7109 ;; Tracked objects:
  7110 ;;		On entry : 0/0
  7111 ;;		On exit  : 0/0
  7112 ;;		Unchanged: 0/0
  7113 ;; Data sizes:     COMRAM   BANK0   BANK1   BANK2   BANK3   BANK4   BANK5   BANK6   BANK7   BANK8   BANK9  BANK10  BANK1
      +1  BANK12  BANK13  BANK14  BANK15
  7114 ;;      Params:         0       0       0       0       0       0       0       0       0       0       0       0       
      +0       0       0       0       0
  7115 ;;      Locals:         0       0       0       0       0       0       0       0       0       0       0       0       
      +0       0       0       0       0
  7116 ;;      Temps:          0       0       0       0       0       0       0       0       0       0       0       0       
      +0       0       0       0       0
  7117 ;;      Totals:         0       0       0       0       0       0       0       0       0       0       0       0       
      +0       0       0       0       0
  7118 ;;Total ram usage:        0 bytes
  7119 ;; Hardware stack levels used: 1
  7120 ;; This function calls:
  7121 ;;		Nothing
  7122 ;; This function is called by:
  7123 ;;		_InterruptManager
  7124 ;; This function uses a non-reentrant model
  7125 ;;
  7126                           
  7127                           	psect	text43
  7128   002E16                     __ptext43:
  7129                           	callstack 0
  7130   002E16                     _MSSP_I2C_ISR:
  7131                           	callstack 24
  7132   002E16                     
  7133                           ;MCAL_Layer/I2C/hal_i2c.c: 237:     (PIR1bits.SSPIF = 0);
  7134   002E16  969E               	bcf	158,3,c	;volatile
  7135   002E18  0012               	return		;funcret
  7136   002E1A                     __end_of_MSSP_I2C_ISR:
  7137                           	callstack 0
  7138                           
  7139 ;; *************** function _MSSP_I2C_BC_ISR *****************
  7140 ;; Defined at:
  7141 ;;		line 244 in file "MCAL_Layer/I2C/hal_i2c.c"
  7142 ;; Parameters:    Size  Location     Type
  7143 ;;		None
  7144 ;; Auto vars:     Size  Location     Type
  7145 ;;		None
  7146 ;; Return value:  Size  Location     Type
  7147 ;;                  1    wreg      void 
  7148 ;; Registers used:
  7149 ;;		None
  7150 ;; Tracked objects:
  7151 ;;		On entry : 0/0
  7152 ;;		On exit  : 0/0
  7153 ;;		Unchanged: 0/0
  7154 ;; Data sizes:     COMRAM   BANK0   BANK1   BANK2   BANK3   BANK4   BANK5   BANK6   BANK7   BANK8   BANK9  BANK10  BANK1
      +1  BANK12  BANK13  BANK14  BANK15
  7155 ;;      Params:         0       0       0       0       0       0       0       0       0       0       0       0       
      +0       0       0       0       0
  7156 ;;      Locals:         0       0       0       0       0       0       0       0       0       0       0       0       
      +0       0       0       0       0
  7157 ;;      Temps:          0       0       0       0       0       0       0       0       0       0       0       0       
      +0       0       0       0       0
  7158 ;;      Totals:         0       0       0       0       0       0       0       0       0       0       0       0       
      +0       0       0       0       0
  7159 ;;Total ram usage:        0 bytes
  7160 ;; Hardware stack levels used: 1
  7161 ;; This function calls:
  7162 ;;		Nothing
  7163 ;; This function is called by:
  7164 ;;		_InterruptManager
  7165 ;; This function uses a non-reentrant model
  7166 ;;
  7167                           
  7168                           	psect	text44
  7169   002E1A                     __ptext44:
  7170                           	callstack 0
  7171   002E1A                     _MSSP_I2C_BC_ISR:
  7172                           	callstack 24
  7173   002E1A                     
  7174                           ;MCAL_Layer/I2C/hal_i2c.c: 246:     (PIR2bits.BCLIF = 0);
  7175   002E1A  96A1               	bcf	161,3,c	;volatile
  7176   002E1C  0012               	return		;funcret
  7177   002E1E                     __end_of_MSSP_I2C_BC_ISR:
  7178                           	callstack 0
  7179                           
  7180 ;; *************** function _INT2_ISR *****************
  7181 ;; Defined at:
  7182 ;;		line 402 in file "MCAL_Layer/interrupt/external_interrupt.c"
  7183 ;; Parameters:    Size  Location     Type
  7184 ;;		None
  7185 ;; Auto vars:     Size  Location     Type
  7186 ;;		None
  7187 ;; Return value:  Size  Location     Type
  7188 ;;                  1    wreg      void 
  7189 ;; Registers used:
  7190 ;;		None
  7191 ;; Tracked objects:
  7192 ;;		On entry : 0/0
  7193 ;;		On exit  : 0/0
  7194 ;;		Unchanged: 0/0
  7195 ;; Data sizes:     COMRAM   BANK0   BANK1   BANK2   BANK3   BANK4   BANK5   BANK6   BANK7   BANK8   BANK9  BANK10  BANK1
      +1  BANK12  BANK13  BANK14  BANK15
  7196 ;;      Params:         0       0       0       0       0       0       0       0       0       0       0       0       
      +0       0       0       0       0
  7197 ;;      Locals:         0       0       0       0       0       0       0       0       0       0       0       0       
      +0       0       0       0       0
  7198 ;;      Temps:          0       0       0       0       0       0       0       0       0       0       0       0       
      +0       0       0       0       0
  7199 ;;      Totals:         0       0       0       0       0       0       0       0       0       0       0       0       
      +0       0       0       0       0
  7200 ;;Total ram usage:        0 bytes
  7201 ;; Hardware stack levels used: 1
  7202 ;; This function calls:
  7203 ;;		Nothing
  7204 ;; This function is called by:
  7205 ;;		_InterruptManager
  7206 ;; This function uses a non-reentrant model
  7207 ;;
  7208                           
  7209                           	psect	text45
  7210   002E1E                     __ptext45:
  7211                           	callstack 0
  7212   002E1E                     _INT2_ISR:
  7213                           	callstack 24
  7214   002E1E                     
  7215                           ;MCAL_Layer/interrupt/external_interrupt.c: 403:     (INTCON3bits.INT2IF = 0);
  7216   002E1E  92F0               	bcf	240,1,c	;volatile
  7217   002E20  0012               	return		;funcret
  7218   002E22                     __end_of_INT2_ISR:
  7219                           	callstack 0
  7220                           
  7221 ;; *************** function _INT1_ISR *****************
  7222 ;; Defined at:
  7223 ;;		line 393 in file "MCAL_Layer/interrupt/external_interrupt.c"
  7224 ;; Parameters:    Size  Location     Type
  7225 ;;		None
  7226 ;; Auto vars:     Size  Location     Type
  7227 ;;		None
  7228 ;; Return value:  Size  Location     Type
  7229 ;;                  1    wreg      void 
  7230 ;; Registers used:
  7231 ;;		None
  7232 ;; Tracked objects:
  7233 ;;		On entry : 0/0
  7234 ;;		On exit  : 0/0
  7235 ;;		Unchanged: 0/0
  7236 ;; Data sizes:     COMRAM   BANK0   BANK1   BANK2   BANK3   BANK4   BANK5   BANK6   BANK7   BANK8   BANK9  BANK10  BANK1
      +1  BANK12  BANK13  BANK14  BANK15
  7237 ;;      Params:         0       0       0       0       0       0       0       0       0       0       0       0       
      +0       0       0       0       0
  7238 ;;      Locals:         0       0       0       0       0       0       0       0       0       0       0       0       
      +0       0       0       0       0
  7239 ;;      Temps:          0       0       0       0       0       0       0       0       0       0       0       0       
      +0       0       0       0       0
  7240 ;;      Totals:         0       0       0       0       0       0       0       0       0       0       0       0       
      +0       0       0       0       0
  7241 ;;Total ram usage:        0 bytes
  7242 ;; Hardware stack levels used: 1
  7243 ;; This function calls:
  7244 ;;		Nothing
  7245 ;; This function is called by:
  7246 ;;		_InterruptManager
  7247 ;; This function uses a non-reentrant model
  7248 ;;
  7249                           
  7250                           	psect	text46
  7251   002E22                     __ptext46:
  7252                           	callstack 0
  7253   002E22                     _INT1_ISR:
  7254                           	callstack 24
  7255   002E22                     
  7256                           ;MCAL_Layer/interrupt/external_interrupt.c: 394:     (INTCON3bits.INT1IF = 0);
  7257   002E22  90F0               	bcf	240,0,c	;volatile
  7258   002E24  0012               	return		;funcret
  7259   002E26                     __end_of_INT1_ISR:
  7260                           	callstack 0
  7261                           
  7262 ;; *************** function _INT0_ISR *****************
  7263 ;; Defined at:
  7264 ;;		line 384 in file "MCAL_Layer/interrupt/external_interrupt.c"
  7265 ;; Parameters:    Size  Location     Type
  7266 ;;		None
  7267 ;; Auto vars:     Size  Location     Type
  7268 ;;		None
  7269 ;; Return value:  Size  Location     Type
  7270 ;;                  1    wreg      void 
  7271 ;; Registers used:
  7272 ;;		wreg, status,2, status,0
  7273 ;; Tracked objects:
  7274 ;;		On entry : 0/0
  7275 ;;		On exit  : 0/0
  7276 ;;		Unchanged: 0/0
  7277 ;; Data sizes:     COMRAM   BANK0   BANK1   BANK2   BANK3   BANK4   BANK5   BANK6   BANK7   BANK8   BANK9  BANK10  BANK1
      +1  BANK12  BANK13  BANK14  BANK15
  7278 ;;      Params:         0       0       0       0       0       0       0       0       0       0       0       0       
      +0       0       0       0       0
  7279 ;;      Locals:         0       0       0       0       0       0       0       0       0       0       0       0       
      +0       0       0       0       0
  7280 ;;      Temps:          0       0       0       0       0       0       0       0       0       0       0       0       
      +0       0       0       0       0
  7281 ;;      Totals:         0       0       0       0       0       0       0       0       0       0       0       0       
      +0       0       0       0       0
  7282 ;;Total ram usage:        0 bytes
  7283 ;; Hardware stack levels used: 1
  7284 ;; This function calls:
  7285 ;;		Nothing
  7286 ;; This function is called by:
  7287 ;;		_InterruptManager
  7288 ;; This function uses a non-reentrant model
  7289 ;;
  7290                           
  7291                           	psect	text47
  7292   002E26                     __ptext47:
  7293                           	callstack 0
  7294   002E26                     _INT0_ISR:
  7295                           	callstack 24
  7296   002E26                     
  7297                           ;MCAL_Layer/interrupt/external_interrupt.c: 390:     (INTCONbits.INT0IF = 0);
  7298   002E26  92F2               	bcf	242,1,c	;volatile
  7299   002E28  0012               	return		;funcret
  7300   002E2A                     __end_of_INT0_ISR:
  7301                           	callstack 0
  7302                           
  7303 ;; *************** function _EUSART_TX_ISR *****************
  7304 ;; Defined at:
  7305 ;;		line 418 in file "MCAL_Layer/eusart/hal_eusart.c"
  7306 ;; Parameters:    Size  Location     Type
  7307 ;;		None
  7308 ;; Auto vars:     Size  Location     Type
  7309 ;;		None
  7310 ;; Return value:  Size  Location     Type
  7311 ;;                  1    wreg      void 
  7312 ;; Registers used:
  7313 ;;		wreg, status,2, status,0
  7314 ;; Tracked objects:
  7315 ;;		On entry : 0/0
  7316 ;;		On exit  : 0/0
  7317 ;;		Unchanged: 0/0
  7318 ;; Data sizes:     COMRAM   BANK0   BANK1   BANK2   BANK3   BANK4   BANK5   BANK6   BANK7   BANK8   BANK9  BANK10  BANK1
      +1  BANK12  BANK13  BANK14  BANK15
  7319 ;;      Params:         0       0       0       0       0       0       0       0       0       0       0       0       
      +0       0       0       0       0
  7320 ;;      Locals:         0       0       0       0       0       0       0       0       0       0       0       0       
      +0       0       0       0       0
  7321 ;;      Temps:          0       0       0       0       0       0       0       0       0       0       0       0       
      +0       0       0       0       0
  7322 ;;      Totals:         0       0       0       0       0       0       0       0       0       0       0       0       
      +0       0       0       0       0
  7323 ;;Total ram usage:        0 bytes
  7324 ;; Hardware stack levels used: 1
  7325 ;; This function calls:
  7326 ;;		Nothing
  7327 ;; This function is called by:
  7328 ;;		_InterruptManager
  7329 ;; This function uses a non-reentrant model
  7330 ;;
  7331                           
  7332                           	psect	text48
  7333   002E2A                     __ptext48:
  7334                           	callstack 0
  7335   002E2A                     _EUSART_TX_ISR:
  7336                           	callstack 24
  7337   002E2A                     
  7338                           ;MCAL_Layer/eusart/hal_eusart.c: 423:     (PIE1bits.TXIE= 0);
  7339   002E2A  989D               	bcf	157,4,c	;volatile
  7340   002E2C  0012               	return		;funcret
  7341   002E2E                     __end_of_EUSART_TX_ISR:
  7342                           	callstack 0
  7343                           
  7344 ;; *************** function _EUSART_RX_ISR *****************
  7345 ;; Defined at:
  7346 ;;		line 426 in file "MCAL_Layer/eusart/hal_eusart.c"
  7347 ;; Parameters:    Size  Location     Type
  7348 ;;		None
  7349 ;; Auto vars:     Size  Location     Type
  7350 ;;		None
  7351 ;; Return value:  Size  Location     Type
  7352 ;;                  1    wreg      void 
  7353 ;; Registers used:
  7354 ;;		wreg, status,2, status,0
  7355 ;; Tracked objects:
  7356 ;;		On entry : 0/0
  7357 ;;		On exit  : 0/0
  7358 ;;		Unchanged: 0/0
  7359 ;; Data sizes:     COMRAM   BANK0   BANK1   BANK2   BANK3   BANK4   BANK5   BANK6   BANK7   BANK8   BANK9  BANK10  BANK1
      +1  BANK12  BANK13  BANK14  BANK15
  7360 ;;      Params:         0       0       0       0       0       0       0       0       0       0       0       0       
      +0       0       0       0       0
  7361 ;;      Locals:         0       0       0       0       0       0       0       0       0       0       0       0       
      +0       0       0       0       0
  7362 ;;      Temps:          0       0       0       0       0       0       0       0       0       0       0       0       
      +0       0       0       0       0
  7363 ;;      Totals:         0       0       0       0       0       0       0       0       0       0       0       0       
      +0       0       0       0       0
  7364 ;;Total ram usage:        0 bytes
  7365 ;; Hardware stack levels used: 1
  7366 ;; This function calls:
  7367 ;;		Nothing
  7368 ;; This function is called by:
  7369 ;;		_InterruptManager
  7370 ;; This function uses a non-reentrant model
  7371 ;;
  7372                           
  7373                           	psect	text49
  7374   002E3C                     __ptext49:
  7375                           	callstack 0
  7376   002E3C                     _EUSART_RX_ISR:
  7377                           	callstack 24
  7378   002E3C  0012               	return		;funcret
  7379   002E3E                     __end_of_EUSART_RX_ISR:
  7380                           	callstack 0
  7381                           
  7382 ;; *************** function _CCP2_ISR *****************
  7383 ;; Defined at:
  7384 ;;		line 547 in file "MCAL_Layer/CCP/hal_ccp.c"
  7385 ;; Parameters:    Size  Location     Type
  7386 ;;		None
  7387 ;; Auto vars:     Size  Location     Type
  7388 ;;		None
  7389 ;; Return value:  Size  Location     Type
  7390 ;;                  1    wreg      void 
  7391 ;; Registers used:
  7392 ;;		None
  7393 ;; Tracked objects:
  7394 ;;		On entry : 0/0
  7395 ;;		On exit  : 0/0
  7396 ;;		Unchanged: 0/0
  7397 ;; Data sizes:     COMRAM   BANK0   BANK1   BANK2   BANK3   BANK4   BANK5   BANK6   BANK7   BANK8   BANK9  BANK10  BANK1
      +1  BANK12  BANK13  BANK14  BANK15
  7398 ;;      Params:         0       0       0       0       0       0       0       0       0       0       0       0       
      +0       0       0       0       0
  7399 ;;      Locals:         0       0       0       0       0       0       0       0       0       0       0       0       
      +0       0       0       0       0
  7400 ;;      Temps:          0       0       0       0       0       0       0       0       0       0       0       0       
      +0       0       0       0       0
  7401 ;;      Totals:         0       0       0       0       0       0       0       0       0       0       0       0       
      +0       0       0       0       0
  7402 ;;Total ram usage:        0 bytes
  7403 ;; Hardware stack levels used: 1
  7404 ;; This function calls:
  7405 ;;		Nothing
  7406 ;; This function is called by:
  7407 ;;		_InterruptManager
  7408 ;; This function uses a non-reentrant model
  7409 ;;
  7410                           
  7411                           	psect	text50
  7412   002E2E                     __ptext50:
  7413                           	callstack 0
  7414   002E2E                     _CCP2_ISR:
  7415                           	callstack 24
  7416   002E2E                     
  7417                           ;MCAL_Layer/CCP/hal_ccp.c: 548:     (PIR2bits.CCP2IF = 0);
  7418   002E2E  90A1               	bcf	161,0,c	;volatile
  7419   002E30  0012               	return		;funcret
  7420   002E32                     __end_of_CCP2_ISR:
  7421                           	callstack 0
  7422                           
  7423 ;; *************** function _CCP1_ISR *****************
  7424 ;; Defined at:
  7425 ;;		line 539 in file "MCAL_Layer/CCP/hal_ccp.c"
  7426 ;; Parameters:    Size  Location     Type
  7427 ;;		None
  7428 ;; Auto vars:     Size  Location     Type
  7429 ;;		None
  7430 ;; Return value:  Size  Location     Type
  7431 ;;                  1    wreg      void 
  7432 ;; Registers used:
  7433 ;;		None
  7434 ;; Tracked objects:
  7435 ;;		On entry : 0/0
  7436 ;;		On exit  : 0/0
  7437 ;;		Unchanged: 0/0
  7438 ;; Data sizes:     COMRAM   BANK0   BANK1   BANK2   BANK3   BANK4   BANK5   BANK6   BANK7   BANK8   BANK9  BANK10  BANK1
      +1  BANK12  BANK13  BANK14  BANK15
  7439 ;;      Params:         0       0       0       0       0       0       0       0       0       0       0       0       
      +0       0       0       0       0
  7440 ;;      Locals:         0       0       0       0       0       0       0       0       0       0       0       0       
      +0       0       0       0       0
  7441 ;;      Temps:          0       0       0       0       0       0       0       0       0       0       0       0       
      +0       0       0       0       0
  7442 ;;      Totals:         0       0       0       0       0       0       0       0       0       0       0       0       
      +0       0       0       0       0
  7443 ;;Total ram usage:        0 bytes
  7444 ;; Hardware stack levels used: 1
  7445 ;; This function calls:
  7446 ;;		Nothing
  7447 ;; This function is called by:
  7448 ;;		_InterruptManager
  7449 ;; This function uses a non-reentrant model
  7450 ;;
  7451                           
  7452                           	psect	text51
  7453   002E32                     __ptext51:
  7454                           	callstack 0
  7455   002E32                     _CCP1_ISR:
  7456                           	callstack 24
  7457   002E32                     
  7458                           ;MCAL_Layer/CCP/hal_ccp.c: 540:     (PIR1bits.CCP1IF = 0);
  7459   002E32  949E               	bcf	158,2,c	;volatile
  7460   002E34  0012               	return		;funcret
  7461   002E36                     __end_of_CCP1_ISR:
  7462                           	callstack 0
  7463                           
  7464 ;; *************** function _ADC_ISR *****************
  7465 ;; Defined at:
  7466 ;;		line 254 in file "MCAL_Layer/ADC/hal_adc.c"
  7467 ;; Parameters:    Size  Location     Type
  7468 ;;		None
  7469 ;; Auto vars:     Size  Location     Type
  7470 ;;		None
  7471 ;; Return value:  Size  Location     Type
  7472 ;;                  1    wreg      void 
  7473 ;; Registers used:
  7474 ;;		None
  7475 ;; Tracked objects:
  7476 ;;		On entry : 0/0
  7477 ;;		On exit  : 0/0
  7478 ;;		Unchanged: 0/0
  7479 ;; Data sizes:     COMRAM   BANK0   BANK1   BANK2   BANK3   BANK4   BANK5   BANK6   BANK7   BANK8   BANK9  BANK10  BANK1
      +1  BANK12  BANK13  BANK14  BANK15
  7480 ;;      Params:         0       0       0       0       0       0       0       0       0       0       0       0       
      +0       0       0       0       0
  7481 ;;      Locals:         0       0       0       0       0       0       0       0       0       0       0       0       
      +0       0       0       0       0
  7482 ;;      Temps:          0       0       0       0       0       0       0       0       0       0       0       0       
      +0       0       0       0       0
  7483 ;;      Totals:         0       0       0       0       0       0       0       0       0       0       0       0       
      +0       0       0       0       0
  7484 ;;Total ram usage:        0 bytes
  7485 ;; Hardware stack levels used: 1
  7486 ;; This function calls:
  7487 ;;		Nothing
  7488 ;; This function is called by:
  7489 ;;		_InterruptManager
  7490 ;; This function uses a non-reentrant model
  7491 ;;
  7492                           
  7493                           	psect	text52
  7494   002E36                     __ptext52:
  7495                           	callstack 0
  7496   002E36                     _ADC_ISR:
  7497                           	callstack 24
  7498   002E36                     
  7499                           ;MCAL_Layer/ADC/hal_adc.c: 255:     (PIR1bits.ADIF = 0);
  7500   002E36  9C9E               	bcf	158,6,c	;volatile
  7501   002E38  0012               	return		;funcret
  7502   002E3A                     __end_of_ADC_ISR:
  7503                           	callstack 0
  7504                           
  7505                           	psect	rparam
  7506   000000                     
  7507                           	psect	temp
  7508   00005D                     btemp:
  7509                           	callstack 0
  7510   00005D                     	ds	1
  7511   000000                     int$flags	set	btemp
  7512   000000                     wtemp8	set	btemp+1
  7513   000000                     ttemp5	set	btemp+1
  7514   000000                     ttemp6	set	btemp+4
  7515   000000                     ttemp7	set	btemp+8
  7516                           
  7517                           	psect	config
  7518                           
  7519                           ; Padding undefined space
  7520   300000                     	org	3145728
  7521   300000  FF                 	db	255
  7522                           
  7523                           ;Config register CONFIG1H @ 0x300001
  7524                           ;	Oscillator Selection bits
  7525                           ;	FOSC = HS, HS oscillator
  7526                           ;	Fail-Safe Clock Monitor Enable bit
  7527                           ;	FCMEN = OFF, Fail-Safe Clock Monitor disabled
  7528                           ;	Internal/External Oscillator Switchover bit
  7529                           ;	IESO = OFF, Oscillator Switchover mode disabled
  7530   300001                     	org	3145729
  7531   300001  02                 	db	2
  7532                           
  7533                           ;Config register CONFIG2L @ 0x300002
  7534                           ;	Power-up Timer Enable bit
  7535                           ;	PWRTEN = OFF, PWRT disabled
  7536                           ;	Brown-out Reset Enable bits
  7537                           ;	BOREN = OFF, Brown-out Reset disabled in hardware and software
  7538                           ;	Brown Out Reset Voltage bits
  7539                           ;	BORV = 18, VBOR set to 1.8 V nominal
  7540   300002                     	org	3145730
  7541   300002  19                 	db	25
  7542                           
  7543                           ;Config register CONFIG2H @ 0x300003
  7544                           ;	Watchdog Timer Enable bit
  7545                           ;	WDTEN = ON, WDT is always enabled. SWDTEN bit has no effect
  7546                           ;	Watchdog Timer Postscale Select bits
  7547                           ;	WDTPS = 32768, 1:32768
  7548   300003                     	org	3145731
  7549   300003  1F                 	db	31
  7550                           
  7551                           ; Padding undefined space
  7552   300004                     	org	3145732
  7553   300004  FF                 	db	255
  7554                           
  7555                           ;Config register CONFIG3H @ 0x300005
  7556                           ;	CCP2 MUX bit
  7557                           ;	CCP2MX = PORTC, CCP2 input/output is multiplexed with RC1
  7558                           ;	PORTB A/D Enable bit
  7559                           ;	PBADEN = OFF, PORTB<4:0> pins are configured as digital I/O on Reset
  7560                           ;	Low-Power Timer1 Oscillator Enable bit
  7561                           ;	LPT1OSC = OFF, Timer1 configured for higher power operation
  7562                           ;	HFINTOSC Fast Start-up
  7563                           ;	HFOFST = OFF, The system clock is held off until the HFINTOSC is stable.
  7564                           ;	MCLR Pin Enable bit
  7565                           ;	MCLRE = ON, MCLR pin enabled; RE3 input pin disabled
  7566   300005                     	org	3145733
  7567   300005  81                 	db	129
  7568                           
  7569                           ;Config register CONFIG4L @ 0x300006
  7570                           ;	Stack Full/Underflow Reset Enable bit
  7571                           ;	STVREN = ON, Stack full/underflow will cause Reset
  7572                           ;	Single-Supply ICSP Enable bit
  7573                           ;	LVP = OFF, Single-Supply ICSP disabled
  7574                           ;	Extended Instruction Set Enable bit
  7575                           ;	XINST = OFF, Instruction set extension and Indexed Addressing mode disabled (Legacy mo
      +                          de)
  7576                           ;	Background Debugger Enable bit
  7577                           ;	DEBUG = 0x1, unprogrammed default
  7578   300006                     	org	3145734
  7579   300006  81                 	db	129
  7580                           
  7581                           ; Padding undefined space
  7582   300007                     	org	3145735
  7583   300007  FF                 	db	255
  7584                           
  7585                           ;Config register CONFIG5L @ 0x300008
  7586                           ;	Code Protection Block 0
  7587                           ;	CP0 = OFF, Block 0 (000800-003FFFh) not code-protected
  7588                           ;	Code Protection Block 1
  7589                           ;	CP1 = OFF, Block 1 (004000-007FFFh) not code-protected
  7590                           ;	Code Protection Block 2
  7591                           ;	CP2 = OFF, Block 2 (008000-00BFFFh) not code-protected
  7592                           ;	Code Protection Block 3
  7593                           ;	CP3 = OFF, Block 3 (00C000-00FFFFh) not code-protected
  7594   300008                     	org	3145736
  7595   300008  0F                 	db	15
  7596                           
  7597                           ;Config register CONFIG5H @ 0x300009
  7598                           ;	Boot Block Code Protection bit
  7599                           ;	CPB = OFF, Boot block (000000-0007FFh) not code-protected
  7600                           ;	Data EEPROM Code Protection bit
  7601                           ;	CPD = OFF, Data EEPROM not code-protected
  7602   300009                     	org	3145737
  7603   300009  C0                 	db	192
  7604                           
  7605                           ;Config register CONFIG6L @ 0x30000A
  7606                           ;	Write Protection Block 0
  7607                           ;	WRT0 = OFF, Block 0 (000800-003FFFh) not write-protected
  7608                           ;	Write Protection Block 1
  7609                           ;	WRT1 = OFF, Block 1 (004000-007FFFh) not write-protected
  7610                           ;	Write Protection Block 2
  7611                           ;	WRT2 = OFF, Block 2 (008000-00BFFFh) not write-protected
  7612                           ;	Write Protection Block 3
  7613                           ;	WRT3 = OFF, Block 3 (00C000h-00FFFFh) not write-protected
  7614   30000A                     	org	3145738
  7615   30000A  0F                 	db	15
  7616                           
  7617                           ;Config register CONFIG6H @ 0x30000B
  7618                           ;	Configuration Register Write Protection bit
  7619                           ;	WRTC = OFF, Configuration registers (300000-3000FFh) not write-protected
  7620                           ;	Boot Block Write Protection bit
  7621                           ;	WRTB = OFF, Boot Block (000000-0007FFh) not write-protected
  7622                           ;	Data EEPROM Write Protection bit
  7623                           ;	WRTD = OFF, Data EEPROM not write-protected
  7624   30000B                     	org	3145739
  7625   30000B  E0                 	db	224
  7626                           
  7627                           ;Config register CONFIG7L @ 0x30000C
  7628                           ;	Table Read Protection Block 0
  7629                           ;	EBTR0 = OFF, Block 0 (000800-003FFFh) not protected from table reads executed in other
      +                           blocks
  7630                           ;	Table Read Protection Block 1
  7631                           ;	EBTR1 = OFF, Block 1 (004000-007FFFh) not protected from table reads executed in other
      +                           blocks
  7632                           ;	Table Read Protection Block 2
  7633                           ;	EBTR2 = OFF, Block 2 (008000-00BFFFh) not protected from table reads executed in other
      +                           blocks
  7634                           ;	Table Read Protection Block 3
  7635                           ;	EBTR3 = OFF, Block 3 (00C000-00FFFFh) not protected from table reads executed in other
      +                           blocks
  7636   30000C                     	org	3145740
  7637   30000C  0F                 	db	15
  7638                           
  7639                           ;Config register CONFIG7H @ 0x30000D
  7640                           ;	Boot Block Table Read Protection bit
  7641                           ;	EBTRB = OFF, Boot Block (000000-0007FFh) not protected from table reads executed in ot
      +                          her blocks
  7642   30000D                     	org	3145741
  7643   30000D  40                 	db	64
  7644                           tosu	equ	0xFFF
  7645                           tosh	equ	0xFFE
  7646                           tosl	equ	0xFFD
  7647                           stkptr	equ	0xFFC
  7648                           pclatu	equ	0xFFB
  7649                           pclath	equ	0xFFA
  7650                           pcl	equ	0xFF9
  7651                           tblptru	equ	0xFF8
  7652                           tblptrh	equ	0xFF7
  7653                           tblptrl	equ	0xFF6
  7654                           tablat	equ	0xFF5
  7655                           prodh	equ	0xFF4
  7656                           prodl	equ	0xFF3
  7657                           indf0	equ	0xFEF
  7658                           postinc0	equ	0xFEE
  7659                           postdec0	equ	0xFED
  7660                           preinc0	equ	0xFEC
  7661                           plusw0	equ	0xFEB
  7662                           fsr0h	equ	0xFEA
  7663                           fsr0l	equ	0xFE9
  7664                           wreg	equ	0xFE8
  7665                           indf1	equ	0xFE7
  7666                           postinc1	equ	0xFE6
  7667                           postdec1	equ	0xFE5
  7668                           preinc1	equ	0xFE4
  7669                           plusw1	equ	0xFE3
  7670                           fsr1h	equ	0xFE2
  7671                           fsr1l	equ	0xFE1
  7672                           bsr	equ	0xFE0
  7673                           indf2	equ	0xFDF
  7674                           postinc2	equ	0xFDE
  7675                           postdec2	equ	0xFDD
  7676                           preinc2	equ	0xFDC
  7677                           plusw2	equ	0xFDB
  7678                           fsr2h	equ	0xFDA
  7679                           fsr2l	equ	0xFD9
  7680                           status	equ	0xFD8

Data Sizes:
    Strings     38
    Constant    12
    Data        76
    BSS         122
    Persistent  0
    Stack       0

Auto Spaces:
    Space          Size  Autos    Used
    COMRAM           94     80      92
    BANK0           160      2     157
    BANK1           256      0      31
    BANK2           256      0       0
    BANK3           256      0       0
    BANK4           256      0       0
    BANK5           256      0       0
    BANK6           256      0       0
    BANK7           256      0       0
    BANK8           256      0       0
    BANK9           256      0       0
    BANK10          256      0       0
    BANK11          256      0       0
    BANK12          256      0       0
    BANK13          256      0       0
    BANK14          256      0       0
    BANK15           96      0       0

Pointer List with Targets:

    ADC_GetConversionResult@adc$InterruptHandler	PTR FTN()void  size(2) Largest target is 0

    ADC_init@adc$InterruptHandler	PTR FTN()void  size(2) Largest target is 0

    ADC_Interrupt_Handler	PTR FTN()void  size(2) Largest target is 1
		 -> NULL(), 

    CCP1_Interrupt_Handler	PTR FTN()void  size(2) Largest target is 1
		 -> NULL(), 

    CCP2_Interrupt_Handler	PTR FTN()void  size(2) Largest target is 1
		 -> NULL(), 

    CCP_capture_compare_mode_timer_select@ccp$CCP1_InterruptHandler	PTR FTN()void  size(2) Largest target is 0

    CCP_capture_compare_mode_timer_select@ccp$CCP2_InterruptHandler	PTR FTN()void  size(2) Largest target is 0

    CCP_capture_set_mode_variant@ccp$CCP1_InterruptHandler	PTR FTN()void  size(2) Largest target is 0

    CCP_capture_set_mode_variant@ccp$CCP2_InterruptHandler	PTR FTN()void  size(2) Largest target is 0

    CCP_CaptureDataRead@ccp$CCP1_InterruptHandler	PTR FTN()void  size(2) Largest target is 0

    CCP_CaptureDataRead@ccp$CCP2_InterruptHandler	PTR FTN()void  size(2) Largest target is 0

    CCP_compare_set_mode_variant@ccp$CCP1_InterruptHandler	PTR FTN()void  size(2) Largest target is 0

    CCP_compare_set_mode_variant@ccp$CCP2_InterruptHandler	PTR FTN()void  size(2) Largest target is 0

    CCP_CompareSetValue@ccp$CCP1_InterruptHandler	PTR FTN()void  size(2) Largest target is 0

    CCP_CompareSetValue@ccp$CCP2_InterruptHandler	PTR FTN()void  size(2) Largest target is 0

    CCP_DeInit@ccp$CCP1_InterruptHandler	PTR FTN()void  size(2) Largest target is 0

    CCP_DeInit@ccp$CCP2_InterruptHandler	PTR FTN()void  size(2) Largest target is 0

    CCP_Init@ccp$CCP1_InterruptHandler	PTR FTN()void  size(2) Largest target is 0

    CCP_Init@ccp$CCP2_InterruptHandler	PTR FTN()void  size(2) Largest target is 0

    CCP_interrupt_config@ccp$CCP1_InterruptHandler	PTR FTN()void  size(2) Largest target is 0

    CCP_interrupt_config@ccp$CCP2_InterruptHandler	PTR FTN()void  size(2) Largest target is 0

    EUSART_ASYNC_INIT@usart	PTR const struct . size(2) Largest target is 20
		 -> usart1(BANK1[20]), 

    EUSART_ASYNC_RX_INIT@usart	PTR const struct . size(2) Largest target is 20
		 -> usart1(BANK1[20]), 

    EUSART_ASYNC_RX_INIT@usart$EUSART_FRAMING_INTERRUPT_HANDLER	PTR FTN()void  size(2) Largest target is 0

    EUSART_ASYNC_RX_INIT@usart$EUSART_OVERRUN_INTERRUPT_HANDLER	PTR FTN()void  size(2) Largest target is 0

    EUSART_ASYNC_RX_INIT@usart$EUSART_RX_INTERRUPT_HANDLER	PTR FTN()void  size(2) Largest target is 0

    EUSART_ASYNC_RX_INIT@usart$EUSART_TX_INTERRUPT_HANDLER	PTR FTN()void  size(2) Largest target is 0

    EUSART_ASYNC_TX_INIT@usart	PTR const struct . size(2) Largest target is 20
		 -> usart1(BANK1[20]), 

    EUSART_ASYNC_TX_INIT@usart$EUSART_FRAMING_INTERRUPT_HANDLER	PTR FTN()void  size(2) Largest target is 0

    EUSART_ASYNC_TX_INIT@usart$EUSART_OVERRUN_INTERRUPT_HANDLER	PTR FTN()void  size(2) Largest target is 0

    EUSART_ASYNC_TX_INIT@usart$EUSART_RX_INTERRUPT_HANDLER	PTR FTN()void  size(2) Largest target is 0

    EUSART_ASYNC_TX_INIT@usart$EUSART_TX_INTERRUPT_HANDLER	PTR FTN()void  size(2) Largest target is 0

    EUSART_ASYNC_WRITE_BYTE_BLOCKING@usart	PTR const struct . size(2) Largest target is 20
		 -> usart1(BANK1[20]), 

    EUSART_ASYNC_WRITE_STRING_BLOCKING@data	PTR const unsigned char  size(2) Largest target is 18
		 -> Print_Pack_Date(BANK0[18]), STR_4(CODE[15]), STR_5(CODE[16]), 

    EUSART_ASYNC_WRITE_STRING_BLOCKING@usart	PTR const struct . size(2) Largest target is 20
		 -> usart1(BANK1[20]), 

    EUSART_Baud_Rate_Calculation@usart	PTR const struct . size(2) Largest target is 20
		 -> usart1(BANK1[20]), 

    EUSART_Baud_Rate_Calculation@usart$EUSART_FRAMING_INTERRUPT_HANDLER	PTR FTN()void  size(2) Largest target is 0

    EUSART_Baud_Rate_Calculation@usart$EUSART_OVERRUN_INTERRUPT_HANDLER	PTR FTN()void  size(2) Largest target is 0

    EUSART_Baud_Rate_Calculation@usart$EUSART_RX_INTERRUPT_HANDLER	PTR FTN()void  size(2) Largest target is 0

    EUSART_Baud_Rate_Calculation@usart$EUSART_TX_INTERRUPT_HANDLER	PTR FTN()void  size(2) Largest target is 0

    EUSART_FramingError_Handler	PTR FTN()void  size(2) Largest target is 2
		 -> usart1$EUSART_FRAMING_INTERRUPT_HANDLER(BANK1[2]), NULL(), 

    EUSART_OverrunError_Handler	PTR FTN()void  size(2) Largest target is 2
		 -> usart1$EUSART_OVERRUN_INTERRUPT_HANDLER(BANK1[2]), NULL(), 

    EUSART_RX_Interrupt_Handler	PTR FTN()void  size(2) Largest target is 2
		 -> usart1$EUSART_RX_INTERRUPT_HANDLER(BANK1[2]), NULL(), 

    EUSART_TX_Interrupt_Handler	PTR FTN()void  size(2) Largest target is 2
		 -> usart1$EUSART_TX_INTERRUPT_HANDLER(BANK1[2]), NULL(), 

    f$.$buffer	PTR unsigned char  size(2) Largest target is 0

    f$.$source	PTR const unsigned char  size(2) Largest target is 0

    gpio_pin_direction_initializion@pin_config	PTR const struct . size(1) Largest target is 7
		 -> keypad(BANK0[7]), keypad$keypad_columns_pins(BANK0[3]), keypad$keypad_rows_pin(BANK0[4]), led_initialization@pin_obj(COMRAM[1]), 
		 -> relay_initialization@pin_obj(COMRAM[1]), 

    gpio_pin_initialization@pin_config	PTR const struct . size(1) Largest target is 7
		 -> keypad(BANK0[7]), keypad$keypad_columns_pins(BANK0[3]), keypad$keypad_rows_pin(BANK0[4]), led_initialization@pin_obj(COMRAM[1]), 
		 -> relay_initialization@pin_obj(COMRAM[1]), 

    gpio_pin_write_logic@pin_config	PTR const struct . size(1) Largest target is 7
		 -> keypad(BANK0[7]), keypad$keypad_columns_pins(BANK0[3]), keypad$keypad_rows_pin(BANK0[4]), led_initialization@pin_obj(COMRAM[1]), 
		 -> led_turn_off@pin_obj(COMRAM[1]), led_turn_on@pin_obj(COMRAM[1]), relay_initialization@pin_obj(COMRAM[1]), relay_turn_off@pin_obj(COMRAM[1]), 
		 -> relay_turn_on@pin_obj(COMRAM[1]), 

    I2C_Default_Interrupt_Handler	PTR FTN()void  size(2) Largest target is 2
		 -> mssp_i2c1$I2C_DefaultInterruptHandler(BANK0[2]), NULL(), 

    I2C_MASTER_MODE_CLOCK_CONFIG@i2c_obj	PTR const struct . size(1) Largest target is 16
		 -> mssp_i2c1(BANK0[16]), 

    I2C_MASTER_MODE_CLOCK_CONFIG@i2c_obj$I2C_DefaultInterruptHandler	PTR FTN()void  size(2) Largest target is 0

    I2C_MASTER_MODE_CLOCK_CONFIG@i2c_obj$I2C_Report_Recieve_Overflow	PTR FTN()void  size(2) Largest target is 0

    I2C_MASTER_MODE_CLOCK_CONFIG@i2c_obj$I2C_Report_Write_Collision	PTR FTN()void  size(2) Largest target is 0

    I2C_Report_Recieve_Overflow_Interrupt_Handler	PTR FTN()void  size(2) Largest target is 2
		 -> mssp_i2c1$I2C_Report_Recieve_Overflow(BANK0[2]), NULL(), 

    I2C_Report_Write_Collision_Interrupt_Handler	PTR FTN()void  size(2) Largest target is 2
		 -> mssp_i2c1$I2C_Report_Write_Collision(BANK0[2]), NULL(), 

    I2C_Slave_Mode_Config@i2c_obj	PTR const struct . size(1) Largest target is 16
		 -> mssp_i2c1(BANK0[16]), 

    I2C_Slave_Mode_Config@i2c_obj$I2C_DefaultInterruptHandler	PTR FTN()void  size(2) Largest target is 0

    I2C_Slave_Mode_Config@i2c_obj$I2C_Report_Recieve_Overflow	PTR FTN()void  size(2) Largest target is 0

    I2C_Slave_Mode_Config@i2c_obj$I2C_Report_Write_Collision	PTR FTN()void  size(2) Largest target is 0

    INT0_InterruptHandler	PTR FTN()void  size(2) Largest target is 1
		 -> NULL(), 

    INT1_InterruptHandler	PTR FTN()void  size(2) Largest target is 1
		 -> NULL(), 

    INT2_InterruptHandler	PTR FTN()void  size(2) Largest target is 1
		 -> NULL(), 

    interrupt_intx_clear_flag@int_obj$EXT_InterruptHandler	PTR FTN()void  size(2) Largest target is 0

    interrupt_intx_disable@int_obj$EXT_InterruptHandler	PTR FTN()void  size(2) Largest target is 0

    interrupt_intx_edge_init@int_obj$EXT_InterruptHandler	PTR FTN()void  size(2) Largest target is 0

    interrupt_intx_enable@int_obj$EXT_InterruptHandler	PTR FTN()void  size(2) Largest target is 0

    interrupt_intx_pin_init@int_obj$EXT_InterruptHandler	PTR FTN()void  size(2) Largest target is 0

    interrupt_INTx_SetInterruptHandler@int_obj$EXT_InterruptHandler	PTR FTN()void  size(2) Largest target is 0

    interrupt_RBx_enable@int_obj$EXT_InterruptHandler_high	PTR FTN()void  size(2) Largest target is 0

    interrupt_RBx_enable@int_obj$EXT_InterruptHandler_low	PTR FTN()void  size(2) Largest target is 0

    interrupt_RBx_pin_init@int_obj$EXT_InterruptHandler_high	PTR FTN()void  size(2) Largest target is 0

    interrupt_RBx_pin_init@int_obj$EXT_InterruptHandler_low	PTR FTN()void  size(2) Largest target is 0

    interrupt_RBx_SetInterruptHandler@int_obj$EXT_InterruptHandler_high	PTR FTN()void  size(2) Largest target is 0

    interrupt_RBx_SetInterruptHandler@int_obj$EXT_InterruptHandler_low	PTR FTN()void  size(2) Largest target is 0

    keypad_initialization@keypad	PTR const struct . size(1) Largest target is 7
		 -> keypad(BANK0[7]), 

    lat_register	PTR volatile unsigned char [5] size(2) Largest target is 1
		 -> LATA(BITBIGSFRlllhll[1]), LATB(BITBIGSFRlllhlh[1]), LATC(BITBIGSFRlllhlh[1]), LATD(BITBIGSFRlllhlh[1]), 
		 -> LATE(BITBIGSFRlllhlh[1]), 

    led_initialization@led	PTR const struct . size(1) Largest target is 1
		 -> led1(COMRAM[1]), 

    mssp_i2c1$I2C_DefaultInterruptHandler	PTR FTN()void  size(2) Largest target is 0

    mssp_i2c1$I2C_Report_Recieve_Overflow	PTR FTN()void  size(2) Largest target is 0

    mssp_i2c1$I2C_Report_Write_Collision	PTR FTN()void  size(2) Largest target is 0

    MSSP_I2C_Init@i2c_obj	PTR const struct . size(1) Largest target is 16
		 -> mssp_i2c1(BANK0[16]), 

    MSSP_I2C_Init@i2c_obj$I2C_DefaultInterruptHandler	PTR FTN()void  size(2) Largest target is 0

    MSSP_I2C_Init@i2c_obj$I2C_Report_Recieve_Overflow	PTR FTN()void  size(2) Largest target is 0

    MSSP_I2C_Init@i2c_obj$I2C_Report_Write_Collision	PTR FTN()void  size(2) Largest target is 0

    MSSP_I2C_Interrupt_config@i2c_obj	PTR const struct . size(1) Largest target is 16
		 -> mssp_i2c1(BANK0[16]), 

    MSSP_I2C_Interrupt_config@i2c_obj$I2C_DefaultInterruptHandler	PTR FTN()void  size(2) Largest target is 0

    MSSP_I2C_Interrupt_config@i2c_obj$I2C_Report_Recieve_Overflow	PTR FTN()void  size(2) Largest target is 0

    MSSP_I2C_Interrupt_config@i2c_obj$I2C_Report_Write_Collision	PTR FTN()void  size(2) Largest target is 0

    MSSP_I2C_Master_Read_Blocking@i2c_data	PTR unsigned char  size(1) Largest target is 7
		 -> EEPROM_24C02C_Read_Byte@RecVal(COMRAM[1]), RealTimeClockDS1307_Get_Date_Time@buffer(COMRAM[7]), TempSensor_TC74_Read_Temp@TC74_TempVal(COMRAM[1]), 

    MSSP_I2C_Master_Read_Blocking@i2c_obj	PTR const struct . size(1) Largest target is 16
		 -> mssp_i2c1(BANK0[16]), 

    MSSP_I2C_Master_Send_Repeated_Start@i2c_obj	PTR const struct . size(1) Largest target is 16
		 -> mssp_i2c1(BANK0[16]), 

    MSSP_I2C_Master_Send_Start@i2c_obj	PTR const struct . size(1) Largest target is 16
		 -> mssp_i2c1(BANK0[16]), 

    MSSP_I2C_Master_Send_Stop@i2c_obj	PTR const struct . size(1) Largest target is 16
		 -> mssp_i2c1(BANK0[16]), 

    MSSP_I2C_Master_Write_Blocking@ack	PTR unsigned char  size(1) Largest target is 1
		 -> ack(COMRAM[1]), 

    MSSP_I2C_Master_Write_Blocking@i2c_obj	PTR const struct . size(1) Largest target is 16
		 -> mssp_i2c1(BANK0[16]), 

    port_register	PTR volatile unsigned char [5] size(2) Largest target is 1
		 -> PORTA(BITBIGSFRlllhll[1]), PORTB(BITBIGSFRlllhll[1]), PORTC(BITBIGSFRlllhll[1]), PORTD(BITBIGSFRlllhll[1]), 
		 -> PORTE(BITBIGSFRlllhll[1]), 

    RB4_InterruptHandlerHigh	PTR FTN()void  size(2) Largest target is 1
		 -> NULL(), 

    RB4_InterruptHandlerLow	PTR FTN()void  size(2) Largest target is 1
		 -> NULL(), 

    RB5_InterruptHandlerHigh	PTR FTN()void  size(2) Largest target is 1
		 -> NULL(), 

    RB5_InterruptHandlerLow	PTR FTN()void  size(2) Largest target is 1
		 -> NULL(), 

    RB6_InterruptHandlerHigh	PTR FTN()void  size(2) Largest target is 1
		 -> NULL(), 

    RB6_InterruptHandlerLow	PTR FTN()void  size(2) Largest target is 1
		 -> NULL(), 

    RB7_InterruptHandlerHigh	PTR FTN()void  size(2) Largest target is 1
		 -> NULL(), 

    RB7_InterruptHandlerLow	PTR FTN()void  size(2) Largest target is 1
		 -> NULL(), 

    S1401$CCP1_InterruptHandler	PTR FTN()void  size(2) Largest target is 0

    S1401$CCP2_InterruptHandler	PTR FTN()void  size(2) Largest target is 0

    S3010$EXT_InterruptHandler	PTR FTN()void  size(2) Largest target is 0

    S3053$EXT_InterruptHandler_high	PTR FTN()void  size(2) Largest target is 0

    S3053$EXT_InterruptHandler_low	PTR FTN()void  size(2) Largest target is 0

    S3717$timer0_InterruptHandler	PTR FTN()void  size(2) Largest target is 0

    S3875$timer1_InterruptHandler	PTR FTN()void  size(2) Largest target is 0

    S4076$timer2_InterruptHandler	PTR FTN()void  size(2) Largest target is 0

    S4210$timer3_InterruptHandler	PTR FTN()void  size(2) Largest target is 0

    S428$I2C_DefaultInterruptHandler	PTR FTN()void  size(2) Largest target is 0

    S428$I2C_Report_Recieve_Overflow	PTR FTN()void  size(2) Largest target is 0

    S428$I2C_Report_Write_Collision	PTR FTN()void  size(2) Largest target is 0

    S4949$buffer	PTR unsigned char  size(2) Largest target is 0

    S4949$source	PTR const unsigned char  size(2) Largest target is 0

    S823$EUSART_FRAMING_INTERRUPT_HANDLER	PTR FTN()void  size(2) Largest target is 0

    S823$EUSART_OVERRUN_INTERRUPT_HANDLER	PTR FTN()void  size(2) Largest target is 0

    S823$EUSART_RX_INTERRUPT_HANDLER	PTR FTN()void  size(2) Largest target is 0

    S823$EUSART_TX_INTERRUPT_HANDLER	PTR FTN()void  size(2) Largest target is 0

    S950$InterruptHandler	PTR FTN()void  size(2) Largest target is 0

    select_result_format@adc$InterruptHandler	PTR FTN()void  size(2) Largest target is 0

    select_voltage_reference@adc$InterruptHandler	PTR FTN()void  size(2) Largest target is 0

    sp__memset	PTR void  size(2) Largest target is 0

    timer0_init@timer$timer0_InterruptHandler	PTR FTN()void  size(2) Largest target is 0

    Timer0_InterruptHandler	PTR FTN()void  size(2) Largest target is 1
		 -> NULL(), 

    Timer0_mode_config@timer$timer0_InterruptHandler	PTR FTN()void  size(2) Largest target is 0

    Timer0_prescaler_config@timer$timer0_InterruptHandler	PTR FTN()void  size(2) Largest target is 0

    Timer0_reg_config@timer$timer0_InterruptHandler	PTR FTN()void  size(2) Largest target is 0

    timer1_init@timer$timer1_InterruptHandler	PTR FTN()void  size(2) Largest target is 0

    Timer1_InterruptHandler	PTR FTN()void  size(2) Largest target is 1
		 -> NULL(), 

    Timer1_mode_config@timer$timer1_InterruptHandler	PTR FTN()void  size(2) Largest target is 0

    Timer1_reg_config@timer$timer1_InterruptHandler	PTR FTN()void  size(2) Largest target is 0

    timer2_init@timer$timer2_InterruptHandler	PTR FTN()void  size(2) Largest target is 0

    Timer2_InterruptHandler	PTR FTN()void  size(2) Largest target is 1
		 -> NULL(), 

    Timer3_Init@timer$timer3_InterruptHandler	PTR FTN()void  size(2) Largest target is 0

    Timer3_InterruptHandler	PTR FTN()void  size(2) Largest target is 1
		 -> NULL(), 

    Timer3_mode_config@timer$timer3_InterruptHandler	PTR FTN()void  size(2) Largest target is 0

    Timer3_reg_config@timer$timer3_InterruptHandler	PTR FTN()void  size(2) Largest target is 0

    tris_register	PTR volatile unsigned char [5] size(2) Largest target is 1
		 -> TRISA(BITBIGSFRlllhll[1]), TRISB(ABS[1]), TRISC(ABS[1]), TRISD(ABS[1]), 
		 -> TRISE(ABS[1]), 

    UART_LoggingDebugData_Send_String@Str	PTR const unsigned char  size(2) Largest target is 18
		 -> Print_Pack_Date(BANK0[18]), STR_4(CODE[15]), STR_5(CODE[16]), 

    usart1$EUSART_FRAMING_INTERRUPT_HANDLER	PTR FTN()void  size(2) Largest target is 0

    usart1$EUSART_OVERRUN_INTERRUPT_HANDLER	PTR FTN()void  size(2) Largest target is 0

    usart1$EUSART_RX_INTERRUPT_HANDLER	PTR FTN()void  size(2) Largest target is 0

    usart1$EUSART_TX_INTERRUPT_HANDLER	PTR FTN()void  size(2) Largest target is 0

    vfprintf$0	PTR struct _IO_FILE size(1) Largest target is 12
		 -> sprintf@f(COMRAM[12]), 

    vfprintf$1	PTR const unsigned char  size(1) Largest target is 4
		 -> STR_1(CODE[3]), STR_2(CODE[3]), STR_3(CODE[4]), 

    vfprintf$2	PTR PTR void  size(1) Largest target is 1
		 -> sprintf@ap(COMRAM[1]), 


Critical Paths under _main in COMRAM

    _application_initialize->_EUSART_ASYNC_INIT
    _ecu_layer_initialize->_keypad_initialization
    _ecu_layer_initialize->_led_initialization
    _led_initialization->_gpio_pin_initialization
    _keypad_initialization->_gpio_pin_initialization
    _gpio_pin_initialization->_gpio_pin_write_logic
    _MSSP_I2C_Init->_I2C_MASTER_MODE_CLOCK_CONFIG
    _I2C_MASTER_MODE_CLOCK_CONFIG->___fltol
    _EUSART_ASYNC_INIT->_EUSART_Baud_Rate_Calculation
    _EUSART_Baud_Rate_Calculation->___fltol
    ___fltol->___fladd
    ___fldiv->___xxtofl
    ___fladd->___fldiv
    _TempSensor_TC74_Read_Temp->_MSSP_I2C_Master_Read_Blocking
    _TempSensor_TC74_Read_Temp->_MSSP_I2C_Master_Write_Blocking
    _RealTimeClockDS1307_Get_Date_Time->_MSSP_I2C_Master_Read_Blocking
    _RealTimeClockDS1307_Get_Date_Time->_MSSP_I2C_Master_Write_Blocking
    _Print_Date->_UART_LoggingDebugData_Send_String
    _UART_LoggingDebugData_Send_String->_EUSART_ASYNC_WRITE_STRING_BLOCKING
    _EUSART_ASYNC_WRITE_STRING_BLOCKING->_EUSART_ASYNC_WRITE_BYTE_BLOCKING
    _I2C_Master_Call_Slave->_MSSP_I2C_Master_Write_Blocking
    _EEPROM_24C02C_Write_Byte->_MSSP_I2C_Master_Write_Blocking

Critical Paths under _InterruptManager in COMRAM

    _InterruptManager->_RB4_ISR
    _InterruptManager->_RB5_ISR
    _InterruptManager->_RB6_ISR
    _InterruptManager->_RB7_ISR

Critical Paths under _main in BANK0

    None.

Critical Paths under _InterruptManager in BANK0

    None.

Critical Paths under _main in BANK1

    None.

Critical Paths under _InterruptManager in BANK1

    None.

Critical Paths under _main in BANK2

    None.

Critical Paths under _InterruptManager in BANK2

    None.

Critical Paths under _main in BANK3

    None.

Critical Paths under _InterruptManager in BANK3

    None.

Critical Paths under _main in BANK4

    None.

Critical Paths under _InterruptManager in BANK4

    None.

Critical Paths under _main in BANK5

    None.

Critical Paths under _InterruptManager in BANK5

    None.

Critical Paths under _main in BANK6

    None.

Critical Paths under _InterruptManager in BANK6

    None.

Critical Paths under _main in BANK7

    None.

Critical Paths under _InterruptManager in BANK7

    None.

Critical Paths under _main in BANK8

    None.

Critical Paths under _InterruptManager in BANK8

    None.

Critical Paths under _main in BANK9

    None.

Critical Paths under _InterruptManager in BANK9

    None.

Critical Paths under _main in BANK10

    None.

Critical Paths under _InterruptManager in BANK10

    None.

Critical Paths under _main in BANK11

    None.

Critical Paths under _InterruptManager in BANK11

    None.

Critical Paths under _main in BANK12

    None.

Critical Paths under _InterruptManager in BANK12

    None.

Critical Paths under _main in BANK13

    None.

Critical Paths under _InterruptManager in BANK13

    None.

Critical Paths under _main in BANK14

    None.

Critical Paths under _InterruptManager in BANK14

    None.

Critical Paths under _main in BANK15

    None.

Critical Paths under _InterruptManager in BANK15

    None.

Call Graph Tables:

 ---------------------------------------------------------------------------------
 (Depth) Function   	        Calls       Base Space   Used Autos Params    Refs
 ---------------------------------------------------------------------------------
 (0) _main                                                 2     2      0   54804
                                              0 BANK0      2     2      0
           _EEPROM_24C02C_Write_Byte
              _I2C_Master_Call_Slave
                         _Print_Date
  _RealTimeClockDS1307_Get_Date_Time
          _TempSensor_TC74_Read_Temp
  _UART_LoggingDebugData_Send_String
             _application_initialize
 ---------------------------------------------------------------------------------
 (1) _application_initialize                               0     0      0   29292
                  _EUSART_ASYNC_INIT
                      _MSSP_I2C_Init
               _ecu_layer_initialize
 ---------------------------------------------------------------------------------
 (2) _ecu_layer_initialize                                 0     0      0   14100
              _keypad_initialization
                 _led_initialization
 ---------------------------------------------------------------------------------
 (3) _led_initialization                                   4     3      1    7012
                                             12 COMRAM     3     2      1
            _gpio_pin_initialization
 ---------------------------------------------------------------------------------
 (3) _keypad_initialization                                4     3      1    7088
                                             12 COMRAM     3     2      1
            _gpio_pin_initialization
 ---------------------------------------------------------------------------------
 (4) _gpio_pin_initialization                              3     2      1    6800
                                              9 COMRAM     3     2      1
    _gpio_pin_direction_initializion
               _gpio_pin_write_logic
 ---------------------------------------------------------------------------------
 (5) _gpio_pin_write_logic                                 8     6      2    4891
                                              1 COMRAM     8     6      2
 ---------------------------------------------------------------------------------
 (5) _gpio_pin_direction_initializion                      7     6      1     483
                                              1 COMRAM     7     6      1
 ---------------------------------------------------------------------------------
 (2) _MSSP_I2C_Init                                        3     2      1    7503
                                             68 COMRAM     2     1      1
       _I2C_MASTER_MODE_CLOCK_CONFIG
              _I2C_Slave_Mode_Config
          _MSSP_I2C_Interrupt_config
             _MSSP_I2C_MODE_GPIO_CFG
 ---------------------------------------------------------------------------------
 (3) _MSSP_I2C_MODE_GPIO_CFG                               0     0      0       0
 ---------------------------------------------------------------------------------
 (3) _MSSP_I2C_Interrupt_config                            1     0      1     183
                                              1 COMRAM     1     0      1
 ---------------------------------------------------------------------------------
 (3) _I2C_Slave_Mode_Config                                2     1      1     121
                                              1 COMRAM     2     1      1
 ---------------------------------------------------------------------------------
 (3) _I2C_MASTER_MODE_CLOCK_CONFIG                         2     1      1    6690
                                             66 COMRAM     2     1      1
                            ___fladd
                            ___fldiv
                            ___fltol
                           ___xxtofl
 ---------------------------------------------------------------------------------
 (2) _EUSART_ASYNC_INIT                                    3     1      2    7689
                                             78 COMRAM     2     0      2
               _EUSART_ASYNC_RX_INIT
               _EUSART_ASYNC_TX_INIT
       _EUSART_Baud_Rate_Calculation
 ---------------------------------------------------------------------------------
 (3) _EUSART_Baud_Rate_Calculation                        13    11      2    6994
                                             66 COMRAM    12    10      2
                            ___fladd
                            ___fldiv
                            ___fltol
                           ___xxtofl
 ---------------------------------------------------------------------------------
 (4) ___xxtofl                                            14    10      4     665
                                              1 COMRAM    14    10      4
 ---------------------------------------------------------------------------------
 (4) ___fltol                                             10     6      4     430
                                             56 COMRAM    10     6      4
                            ___fladd (ARG)
                            ___fldiv (ARG)
                           ___xxtofl (ARG)
 ---------------------------------------------------------------------------------
 (4) ___fldiv                                             25    17      8    2521
                                             15 COMRAM    25    17      8
                           ___xxtofl (ARG)
 ---------------------------------------------------------------------------------
 (4) ___fladd                                             16     8      8    2922
                                             40 COMRAM    16     8      8
                            ___fldiv (ARG)
                           ___xxtofl (ARG)
 ---------------------------------------------------------------------------------
 (3) _EUSART_ASYNC_TX_INIT                                 3     1      2     239
                                              1 COMRAM     2     0      2
 ---------------------------------------------------------------------------------
 (3) _EUSART_ASYNC_RX_INIT                                 3     1      2     283
                                              1 COMRAM     2     0      2
 ---------------------------------------------------------------------------------
 (1) _TempSensor_TC74_Read_Temp                            3     3      0    6416
                                              4 COMRAM     3     3      0
      _MSSP_I2C_Master_Read_Blocking
_MSSP_I2C_Master_Send_Repeated_Start
         _MSSP_I2C_Master_Send_Start
          _MSSP_I2C_Master_Send_Stop
     _MSSP_I2C_Master_Write_Blocking
 ---------------------------------------------------------------------------------
 (1) _RealTimeClockDS1307_Get_Date_Time                   14     8      6    6617
                                              4 COMRAM    14     8      6
      _MSSP_I2C_Master_Read_Blocking
_MSSP_I2C_Master_Send_Repeated_Start
         _MSSP_I2C_Master_Send_Start
          _MSSP_I2C_Master_Send_Stop
     _MSSP_I2C_Master_Write_Blocking
 ---------------------------------------------------------------------------------
 (2) _MSSP_I2C_Master_Send_Repeated_Start                  2     1      1     317
                                              1 COMRAM     1     0      1
 ---------------------------------------------------------------------------------
 (2) _MSSP_I2C_Master_Read_Blocking                        4     1      3     981
                                              1 COMRAM     3     0      3
 ---------------------------------------------------------------------------------
 (1) _Print_Date                                           0     0      0    1076
  _UART_LoggingDebugData_Send_String
 ---------------------------------------------------------------------------------
 (1) _UART_LoggingDebugData_Send_String                    4     0      4    1076
                                             13 COMRAM     4     0      4
 _EUSART_ASYNC_WRITE_STRING_BLOCKING
 ---------------------------------------------------------------------------------
 (2) _EUSART_ASYNC_WRITE_STRING_BLOCKING                  10     4      6     576
                                              4 COMRAM     9     3      6
   _EUSART_ASYNC_WRITE_BYTE_BLOCKING
 ---------------------------------------------------------------------------------
 (3) _EUSART_ASYNC_WRITE_BYTE_BLOCKING                     4     1      3     205
                                              1 COMRAM     3     0      3
 ---------------------------------------------------------------------------------
 (1) _I2C_Master_Call_Slave                                2     1      1    5103
                                              4 COMRAM     2     1      1
         _MSSP_I2C_Master_Send_Start
          _MSSP_I2C_Master_Send_Stop
     _MSSP_I2C_Master_Write_Blocking
 ---------------------------------------------------------------------------------
 (1) _EEPROM_24C02C_Write_Byte                             3     1      2    5224
                                              4 COMRAM     3     1      2
         _MSSP_I2C_Master_Send_Start
          _MSSP_I2C_Master_Send_Stop
     _MSSP_I2C_Master_Write_Blocking
 ---------------------------------------------------------------------------------
 (2) _MSSP_I2C_Master_Write_Blocking                       4     1      3    3951
                                              1 COMRAM     3     0      3
 ---------------------------------------------------------------------------------
 (2) _MSSP_I2C_Master_Send_Stop                            2     1      1     500
                                              1 COMRAM     1     0      1
 ---------------------------------------------------------------------------------
 (2) _MSSP_I2C_Master_Send_Start                           2     1      1     500
                                              1 COMRAM     1     0      1
 ---------------------------------------------------------------------------------
 Estimated maximum stack depth 5
 ---------------------------------------------------------------------------------
 (Depth) Function   	        Calls       Base Space   Used Autos Params    Refs
 ---------------------------------------------------------------------------------
 (6) _InterruptManager                                     0     0      0     176
                            _ADC_ISR
                           _CCP1_ISR
                           _CCP2_ISR
                      _EUSART_RX_ISR
                      _EUSART_TX_ISR
                           _INT0_ISR
                           _INT1_ISR
                           _INT2_ISR
                    _MSSP_I2C_BC_ISR
                       _MSSP_I2C_ISR
                            _RB4_ISR
                            _RB5_ISR
                            _RB6_ISR
                            _RB7_ISR
                           _TMR0_ISR
                           _TMR1_ISR
                           _TMR2_ISR
                           _TMR3_ISR
 ---------------------------------------------------------------------------------
 (7) _TMR3_ISR                                             0     0      0       0
 ---------------------------------------------------------------------------------
 (7) _TMR2_ISR                                             0     0      0       0
 ---------------------------------------------------------------------------------
 (7) _TMR1_ISR                                             0     0      0       0
 ---------------------------------------------------------------------------------
 (7) _TMR0_ISR                                             0     0      0       0
 ---------------------------------------------------------------------------------
 (7) _RB7_ISR                                              1     1      0      44
                                              0 COMRAM     1     1      0
 ---------------------------------------------------------------------------------
 (7) _RB6_ISR                                              1     1      0      44
                                              0 COMRAM     1     1      0
 ---------------------------------------------------------------------------------
 (7) _RB5_ISR                                              1     1      0      44
                                              0 COMRAM     1     1      0
 ---------------------------------------------------------------------------------
 (7) _RB4_ISR                                              1     1      0      44
                                              0 COMRAM     1     1      0
 ---------------------------------------------------------------------------------
 (7) _MSSP_I2C_ISR                                         0     0      0       0
 ---------------------------------------------------------------------------------
 (7) _MSSP_I2C_BC_ISR                                      0     0      0       0
 ---------------------------------------------------------------------------------
 (7) _INT2_ISR                                             0     0      0       0
 ---------------------------------------------------------------------------------
 (7) _INT1_ISR                                             0     0      0       0
 ---------------------------------------------------------------------------------
 (7) _INT0_ISR                                             0     0      0       0
 ---------------------------------------------------------------------------------
 (7) _EUSART_TX_ISR                                        0     0      0       0
 ---------------------------------------------------------------------------------
 (7) _EUSART_RX_ISR                                        0     0      0       0
 ---------------------------------------------------------------------------------
 (7) _CCP2_ISR                                             0     0      0       0
 ---------------------------------------------------------------------------------
 (7) _CCP1_ISR                                             0     0      0       0
 ---------------------------------------------------------------------------------
 (7) _ADC_ISR                                              0     0      0       0
 ---------------------------------------------------------------------------------
 Estimated maximum stack depth 7
 ---------------------------------------------------------------------------------

 Call Graph Graphs:

 _main (ROOT)
   _EEPROM_24C02C_Write_Byte
     _MSSP_I2C_Master_Send_Start
     _MSSP_I2C_Master_Send_Stop
     _MSSP_I2C_Master_Write_Blocking
   _I2C_Master_Call_Slave
     _MSSP_I2C_Master_Send_Start
     _MSSP_I2C_Master_Send_Stop
     _MSSP_I2C_Master_Write_Blocking
   _Print_Date
     _UART_LoggingDebugData_Send_String
       _EUSART_ASYNC_WRITE_STRING_BLOCKING
         _EUSART_ASYNC_WRITE_BYTE_BLOCKING
   _RealTimeClockDS1307_Get_Date_Time
     _MSSP_I2C_Master_Read_Blocking
     _MSSP_I2C_Master_Send_Repeated_Start
     _MSSP_I2C_Master_Send_Start
     _MSSP_I2C_Master_Send_Stop
     _MSSP_I2C_Master_Write_Blocking
   _TempSensor_TC74_Read_Temp
     _MSSP_I2C_Master_Read_Blocking
     _MSSP_I2C_Master_Send_Repeated_Start
     _MSSP_I2C_Master_Send_Start
     _MSSP_I2C_Master_Send_Stop
     _MSSP_I2C_Master_Write_Blocking
   _UART_LoggingDebugData_Send_String
   _application_initialize
     _EUSART_ASYNC_INIT
       _EUSART_ASYNC_RX_INIT
       _EUSART_ASYNC_TX_INIT
       _EUSART_Baud_Rate_Calculation
         ___fladd
           ___fldiv (ARG)
             ___xxtofl (ARG)
           ___xxtofl (ARG)
         ___fldiv
         ___fltol
           ___fladd (ARG)
           ___fldiv (ARG)
           ___xxtofl (ARG)
         ___xxtofl
     _MSSP_I2C_Init
       _I2C_MASTER_MODE_CLOCK_CONFIG
         ___fladd
         ___fldiv
         ___fltol
         ___xxtofl
       _I2C_Slave_Mode_Config
       _MSSP_I2C_Interrupt_config
       _MSSP_I2C_MODE_GPIO_CFG
     _ecu_layer_initialize
       _keypad_initialization
         _gpio_pin_initialization
           _gpio_pin_direction_initializion
           _gpio_pin_write_logic
       _led_initialization
         _gpio_pin_initialization

 _InterruptManager (ROOT)
   _ADC_ISR
   _CCP1_ISR
   _CCP2_ISR
   _EUSART_RX_ISR
   _EUSART_TX_ISR
   _INT0_ISR
   _INT1_ISR
   _INT2_ISR
   _MSSP_I2C_BC_ISR
   _MSSP_I2C_ISR
   _RB4_ISR
   _RB5_ISR
   _RB6_ISR
   _RB7_ISR
   _TMR0_ISR
   _TMR1_ISR
   _TMR2_ISR
   _TMR3_ISR

 Address spaces:
Name               Size   Autos  Total    Cost      Usage
BIGRAM             F5F      0       0      49        0.0%
EEDATA             400      0       0       0        0.0%
BITBANK14          100      0       0      33        0.0%
BANK14             100      0       0      34        0.0%
BITBANK13          100      0       0      31        0.0%
BANK13             100      0       0      32        0.0%
BITBANK12          100      0       0      29        0.0%
BANK12             100      0       0      30        0.0%
BITBANK11          100      0       0      27        0.0%
BANK11             100      0       0      28        0.0%
BITBANK10          100      0       0      25        0.0%
BANK10             100      0       0      26        0.0%
BITBANK9           100      0       0      23        0.0%
BANK9              100      0       0      24        0.0%
BITBANK8           100      0       0      21        0.0%
BANK8              100      0       0      22        0.0%
BITBANK7           100      0       0      19        0.0%
BANK7              100      0       0      20        0.0%
BITBANK6           100      0       0      17        0.0%
BANK6              100      0       0      18        0.0%
BITBANK5           100      0       0      15        0.0%
BANK5              100      0       0      16        0.0%
BITBANK4           100      0       0      13        0.0%
BANK4              100      0       0      14        0.0%
BITBANK3           100      0       0      10        0.0%
BANK3              100      0       0      11        0.0%
BITBANK2           100      0       0       8        0.0%
BANK2              100      0       0       9        0.0%
BITBANK1           100      0       0       6        0.0%
BANK1              100      0      1F       7       12.1%
BITBANK0            A0      0       0       4        0.0%
BANK0               A0      2      9D       5       98.1%
BITBANK15           60      0       0      35        0.0%
BANK15              60      0       0      36        0.0%
BITCOMRAM           5E      0       0       0        0.0%
COMRAM              5E     50      5C       1       97.9%
BITBIGSFRllll       1D      0       0      48        0.0%
BITBIGSFRhlhhhl     18      0       0      38        0.0%
BITBIGSFRhh          D      0       0      37        0.0%
BITBIGSFRlllhhh      6      0       0      45        0.0%
BITBIGSFRhlhhhl      5      0       0      39        0.0%
BITBIGSFRllhllh      4      0       0      42        0.0%
BITBIGSFRlllhlh      4      0       0      46        0.0%
BITBIGSFRllhllh      4      0       0      43        0.0%
BITBIGSFRlllhll      4      0       0      47        0.0%
BITBIGSFRhlhhhl      1      0       0      40        0.0%
BITBIGSFRllhllh      1      0       0      41        0.0%
BITBIGSFRllhlll      1      0       0      44        0.0%
BIGSFR               0      0       0     200        0.0%
BITSFR               0      0       0     200        0.0%
SFR                  0      0       0     200        0.0%
STACK                0      0       0       2        0.0%
NULL                 0      0       0       0        0.0%
ABS                  0      0     118      12        0.0%
DATA                 0      0     118       3        0.0%
CODE                 0      0       0       0        0.0%


Microchip Technology PIC18 Macro Assembler V2.46 build 20240104201356 
Symbol Table                                                                                   Wed Nov 27 19:40:06 2024

                           ??_InterruptManager 0002                     ??_EEPROM_24C02C_Write_Byte 0007  
                                 ___fldiv@aexp 0028                                   ___fldiv@bexp 0027  
                  ??_TempSensor_TC74_Read_Temp 0005                                   ___fldiv@sign 0020  
                                  _SSPSTATbits 0FC7                   EEPROM_24C02C_Write_Byte@data 0006  
                           _timer3_preload_val 0076                                            l411 2A08  
                                          l246 2BF8                                            l418 2D3C  
                                          l268 2ACE                                            l292 2A1E  
                                          l429 2DFE                                            l366 25E4  
                                          l296 2A6E                                            l369 268A  
                                          l823 2CE2                                            l825 2CF0  
                                          l826 2CF6                                            l834 2936  
                                          l860 132A                                            l861 13DC  
                                          l855 105A                                            l863 1526  
                                          l857 110E                                            l953 2170  
                                          l858 11C2                                            l891 2472  
                                          l859 1276                                            l796 2B88  
                                          l972 2280                                            l877 2536  
                                          l798 2BB4                                            l993 2B2C  
                                          _ack 005A                                __end_of_ADC_ISR 2E3A  
                                          _ret 00E3     MSSP_I2C_Master_Send_Repeated_Start@i2c_obj 0002  
                                          wreg 0FE8                ??_MSSP_I2C_Master_Read_Blocking 0005  
                              __end_of_RB4_ISR 2DDA                                __end_of_RB5_ISR 2DC0  
                              __end_of_RB6_ISR 2DA6                                __end_of_RB7_ISR 2D8C  
                                 ___fltol@exp1 0042                                           l1100 2C78  
                                         l1102 2C7A                                           l1110 295C  
                                         l1104 2C88                                           l1114 2960  
                                         l1130 27FE                                           l1122 27D0  
                                         l1107 2C96                                           l1116 297C  
                                         l1126 27D2                                           l1150 2720  
                                         l1119 29A0                                           l1135 2824  
                                         l1063 1FC4                                           l1153 2E04  
                                         l1057 1F4A                                           l1082 2CAC  
                                         l1074 205E                                           l1139 2832  
                                         l1084 2CAE                                           l1092 2D0C  
                                         l1156 2D70                                           l1086 2CBC  
                                         l1094 2D0E                                           l1159 2B70  
                                         l1096 2D1C                                           l1089 2CCA  
                                         l1097 2D1E                                           l2137 2386  
                                         l2422 1D80                                           l2502 1E70  
                                         l2424 1BE0                                           l2433 1C26  
                                         l2370 16CA                                           l2435 1C9E  
                                         l2427 1BA4                                           l2436 1C8C  
                                         l2509 1ECC                                           l6000 1794  
                                         l2368 1716                                           l2385 1830  
                                         l2377 19E6                                           l2369 1704  
                                         l2394 1900                                           l6010 1800  
                                         l6002 179E                                           l1834 2D56  
                                         l2395 18EE                                           l6012 1810  
                                         l6004 17A4                                           l6100 1A4E  
                                         l1837 2C62                                           l6030 1892  
                                         l6022 186A                                           l6006 17CA  
                                         l6014 1820                                           l6110 1A7A  
                                         l6102 1A54                                           l2495 1DD8  
                                         l6032 189A                                           l6024 1874  
                                         l6016 1846                                           l6008 17FE  
                                         l6040 18BE                                           l6200 1D26  
                                         l6120 1AB4                                           l6112 1A8A  
                                         l6104 1A5A                                           l6050 1910  
                                         l6042 18C2                                           l6034 189E  
                                         l6026 1882                                           l6018 1856  
                                         l6210 1D74                                           l6202 1D40  
                                         l6122 1ACA                                           l6114 1A9A  
                                         l6106 1A68                                           l2498 1F34  
                                         l6060 1976                                           l6052 191C  
                                         l6044 18D0                                           l6036 18AE  
                                         l6028 1884                                           l6212 1D76  
                                         l6204 1D5C                                           l6140 1B1E  
                                         l6124 1ADA                                           l6132 1AFA  
                                         l6116 1A9C                                           l6108 1A6A  
                                         l6220 2282                                           l6300 1F04  
                                         l6070 19BE                                           l6062 1986  
                                         l6054 192A                                           l6046 18E6  
                                         l6038 18B0                                           l6206 1D60  
                                         l6150 1B70                                           l6142 1B38  
                                         l6134 1B0A                                           l6126 1AE2  
                                         l6118 1AA4                                           l6230 22D8  
                                         l6222 2298                                           l6302 1F14  
                                         l6310 2A70                                           l6072 19C0  
                                         l6064 19A6                                           l6056 1964  
                                         l6208 1D6E                                           l6160 1BCC  
                                         l6152 1B80                                           l6144 1B48  
                                         l6136 1B0A                                           l6128 1AE6  
                                         l6232 22E8                                           l6304 1F22  
                                         l6320 2A90                                           l6312 2A88  
                                         l6074 19C6                                           l6066 19AA  
                                         l6058 1966                                           l6170 1C0C  
                                         l6162 1BCE                                           l6154 1B94  
                                         l6146 1B58                                           l6090 1A14  
                                         l6082 19E8                                           l6242 2312  
                                         l6234 22EC                                           l6226 22AC  
                                         l6306 1F24                                           l6402 13E0  
                                         l6322 2A9A                                           l6314 2A8C  
                                         l6076 19D4                                           l6068 19B8  
                                         l6180 1C48                                           l6172 1C16  
                                         l6164 1BDE                                           l6156 1BA2  
                                         l6148 1B68                                           l6092 1A24  
                                         l6084 19F4                                           l6260 2376  
                                         l6252 233A                                           l6244 231C  
                                         l6236 22FA                                           l6228 22D6  
                                         l6404 1432                                           l6412 1492  
                                         l6332 2AB0                                           l6324 2A9C  
                                         l6340 2A1A                                           l6430 24A4  
                                         l6422 2474                                           l6078 19D6  
                                         l6190 1CBA                                           l6182 1C56  
                                         l6174 1C24                                           l6166 1BF0  
                                         l6158 1BAE                                           l6094 1A34  
                                         l6086 1A02                                           l6254 2346  
                                         l6246 2326                                           l6270 1DE8  
                                         l6414 14E8                                           l6334 2ABC  
                                         l6326 2AAC                                           l6342 2A22  
                                         l6360 28DC                                           l6352 28BA  
                                         l6440 24F8                                           l6432 24A6  
                                         l6424 2474                                           l6192 1CC8  
                                         l6184 1C84                                           l6168 1C06  
                                         l6176 1C36                                           l6096 1A36  
                                         l6088 1A04                                           l6256 2356  
                                         l6280 1E26                                           l6272 1DFE  
                                         l6264 1D84                                           l6408 148E  
                                         l6336 2ABE                                           l6344 2A54  
                                         l6362 2918                                           l6354 28BE  
                                         l6450 2536                                           l6434 24C0  
                                         l6442 24FA                                           l6426 2486  
                                         l6194 1CF2                                           l6178 1C44  
                                         l6098 1A3E                                           l6258 2366  
                                         l6290 1EAE                                           l6282 1E58  
                                         l6266 1D94                                           l6370 1056  
                                         l6346 2A56                                           l6338 2A0A  
                                         l6364 291A                                           l6356 28D0  
                                         l6460 239E                                           l6444 2514  
                                         l6436 24C6                                           l6428 248A  
                                         l5900 1594                                           l6188 1CAE  
                                         l6196 1CF6                                           l6292 1EBC  
                                         l6284 1E5A                                           l6276 1E12  
                                         l6268 1DA2                                           l6380 1166  
                                         l6372 1060                                           l5820 2186  
                                         l6348 2A66                                           l6358 28D4  
                                         l6462 23B8                                           l6470 241A  
                                         l6454 2388                                           l6446 251A  
                                         l6438 24DE                                           l5910 15BE  
                                         l5902 15A6                                           l6198 1D10  
                                         l6294 1EDA                                           l6286 1E66  
                                         l6278 1E1A                                           l6390 127C  
                                         l6374 10B2                                           l6366 1034  
                                         l5830 2254                                           l5822 21A6  
                                         l6480 2470                                           l6472 2434  
                                         l6464 23BA                                           l6456 2388  
                                         l6448 2534                                           l5912 15CE  
                                         l5920 15F8                                           l5904 15A8  
                                         l6296 1EDC                                           l6288 1EA2  
                                         l6392 12CE                                           l6384 11C8  
                                         l6376 110A                                           l6368 1044  
                                         l5840 2060                                           l5824 21AE  
                                         l5832 227E                                           l6482 2472  
                                         l6466 23D4                                           l6474 2436  
                                         l6458 239A                                           l5930 1630  
                                         l5922 1608                                           l5914 15DE  
                                         l5906 15AE                                           l6298 1EE0  
                                         l6386 121A                                           l6378 1114  
                                         l6650 2B72                                           l5842 2074  
                                         l5826 2204                                           l5818 2172  
                                         l6476 2450                                           l6468 23DA  
                                         l5940 1644                                           l5932 1634  
                                         l5924 161A                                           l5916 15EE  
                                         l5908 15BC                                           l6396 132E  
                                         l6660 2B9A                                           l6652 2B72  
                                         l6492 2E00                                           l5852 2142  
                                         l5844 2094                                           l5860 2AE4  
                                         l5870 2CCC                                           l6646 2D20  
                                         l6830 25F8                                           l6478 2456  
                                         l5950 1658                                           l5942 1648  
                                         l5934 1638                                           l5926 1628  
                                         l5918 15F0                                           l6398 1380  
                                         l6662 2BA6                                           l6654 2B84  
                                         l5846 209C                                           l5854 216E  
                                         l5862 2B04                                           l5872 2CCC  
                                         l6840 2624                                           l6832 25FC  
                                         l5960 166C                                           l5952 165C  
                                         l5944 164C                                           l5936 163C  
                                         l5928 162C                                           l5880 1528  
                                         l6664 2BB2                                           l6656 2B8A  
                                         l8512 268C                                           l8520 2B3A  
                                         l8600 1FAA                                           l5848 20F2  
                                         l5864 2B0C                                           l6648 2DEE  
                                         l8522 2C98                                           l5874 2CDE  
                                         l6850 2654                                           l6842 262C  
                                         l6834 2604                                           l5970 16E4  
                                         l5962 1696                                           l5954 1660  
                                         l5946 1650                                           l5938 1640  
                                         l5890 1564                                           l5882 1534  
                                         l6666 2BB4                                           l6658 2B8E  
                                         l8514 26A4                                           l8610 1FE4  
                                         l8602 1FC2                                           l5866 2B2A  
                                         l5858 2AD0                                           l8524 2CA8  
                                         l8540 298A                                           l8532 2938  
                                         l5876 2CF6                                           l6852 265C  
                                         l6844 2634                                           l6836 260C  
                                         l6828 25E6                                           l8700 2A06  
                                         l5980 1724                                           l5972 16E8  
                                         l5964 16B2                                           l5956 1664  
                                         l5948 1654                                           l5892 1574  
                                         l5884 1542                                           l8516 2D58  
                                         l8620 2034                                           l8612 1FFC  
                                         l8604 1FCA                                           l8526 2CCA  
                                         l8550 2C74                                           l8542 2996  
                                         l8534 2948                                           l8710 2C32  
                                         l6854 2660                                           l6846 2648  
                                         l6838 2620                                           l5990 1766  
                                         l5982 1734                                           l5974 16F6  
                                         l5966 16C2                                           l5958 1668  
                                         l5894 1576                                           l5886 1544  
                                         l8518 2B2E                                           l8630 205E  
                                         l8622 203A                                           l8614 2002  
                                         l8606 1FD8                                           l8552 2C96  
                                         l8544 29A0                                           l8536 2958  
                                         l8640 2BE0                                           l8712 2C3A  
                                         l6856 2678                                           l6848 264C  
                                         l8560 2D08                                           l5992 1774  
                                         l5976 16F8                                           l5968 16D8  
                                         l5888 1554                                           l5896 157E  
                                         l8624 2052                                           l8616 201A  
                                         l8608 1FE0                                           l8704 2D3E  
                                         l8538 296E                                           l8642 2BF0  
                                         l8634 2BB8                                           l8714 2C4A  
                                         l8570 27CC                                           l8562 2D1E  
                                         l8650 2568                                           l5994 1780  
                                         l5986 1748                                           l5978 1702  
                                         l5898 158E                                           l8626 2054  
                                         l8618 201C                                           l8706 2D42  
                                         l8548 2C64                                           l8636 2BC0  
                                         l8580 2820                                           l8572 27E0  
                                         l8660 25A0                                           l8652 2578  
                                         l8644 2538                                           l5996 1784  
                                         l5988 1758                                           l8628 205C  
                                         l8708 2D4E                                           l8740 273E  
                                         l8638 2BD0                                           l8582 2832  
                                         l8574 27EA                                           l8566 27AC  
                                         l8558 2CF8                                           l8670 25C2  
                                         l8662 25A2                                           l8646 2540  
                                         l5998 1792                                           l8590 1F4C  
                                         l8750 2786                                           l8742 2750  
                                         l8576 27FA                                           l8568 27BC  
                                         l8672 25C6                                           l8664 25B2  
                                         l8648 2550                                           l8592 1F66  
                                         l8752 278A                                           l8744 2754  
                                         l8736 2722                                           l8578 2810  
                                         l8674 25CA                                           l8666 25BA  
                                         l8658 257C                                           l8690 29C6  
                                         l8682 29A4                                           l8594 1F72  
                                         l8586 1F36                                           l8746 275C  
                                         l8738 2726                                           l8676 25CE  
                                         l8668 25BE                                           l8692 29D6  
                                         l8684 29A8                                           l8596 1F8C  
                                         l8588 1F46                                           l8748 276E  
                                         l8678 25D2                                           l8694 29DE  
                                         l8686 29AE                                           l8598 1FA4  
                                         l8696 29EE                                           l8688 29B6  
                                         _CFGS 7D36                                           l8698 29FE  
                                         l8794 2268                                           l8796 14B2  
                                         STR_1 1030                                           STR_3 102C  
                                         STR_4 101D                                           STR_5 100D  
                                         _LATA 0F89                                           _LATB 0F8A  
                                         _LATC 0F8B                                           _LATD 0F8C  
                                         _LATE 0F8D                                           u5000 1A8A  
                                         u5001 1A86                                           u5010 1ACA  
                                         u5011 1AC6                                           u5100 1C56  
                                         u5020 1B0A                                           u5101 1C52  
                                         u5021 1B06                                           u5110 1C84  
                                         u5030 1B80                                           u5111 1C80  
                                         u5031 1B7C                                           u5120 1C9A  
                                         u5040 1BA2                                           u5200 22FA  
                                         u5121 1C96                                           u5041 1B9E  
                                         u5201 22F6                                           u5130 1CAE  
                                         u5050 1BCC                                           u5210 230E  
                                         u5131 1CAA                                           u5051 1BC8  
                                         u5211 230A                                           u5140 1CC8  
                                         u5060 1BF0                                           u5220 2336  
                                         u5300 1EBC                                           u5141 1CC4  
                                         u5061 1BEC                                           u5221 2332  
                                         u5301 1EB8                                           u5150 1D10  
                                         u5070 1C06                                           u5230 2356  
                                         u5310 1ECC                                           u4510 2158  
                                         u4430 2186                                           u5151 1D0C  
                                         u5071 1C02                                           u5231 2352  
                                         u5311 1EC8                                           u4511 2152  
                                         u4431 2182                                           u5400 28D0  
                                         u4600 15BC                                           u5160 1D40  
                                         u5080 1C24                                           u5240 2366  
                                         u5320 1EDA                                           u4504 2110  
                                         u4440 21A6                                           u4520 2AE4  
                                         u5401 28CC                                           u4601 15B8  
                                         u5161 1D3C                                           u5081 1C20  
                                         u5241 2362                                           u5321 1ED6  
                                         u4505 210C                                           u4441 21A2  
                                         u4521 2AE0                                           u5410 2912  
                                         u4610 15CE                                           u5170 1D6E  
                                         u5090 1C44                                           u5330 1F14  
                                         u5250 1D94                                           u4530 2B04  
                                         u4611 15CA                                           u5171 1D6A  
                                         u5091 1C40                                           u5331 1F10  
                                         u5251 1D90                                           u4531 2B00  
                                         u4540 2CDE                                           u5420 2936  
                                         u5500 239A                                           u4700 1716  
                                         u4620 15DE                                           u5180 2298  
                                         u5340 1F22                                           u5260 1DA2  
                                         u4516 215A                                           u4541 2CDA  
                                         u5421 2932                                           u5501 2396  
                                         u4701 1712                                           u4621 15DA  
                                         u5181 2294                                           u5341 1F1E  
                                         u5261 1D9E                                           u4550 2CF0  
                                         u5510 23B8                                           u4710 1724  
                                         u4630 161A                                           u5190 22CC  
                                         u5270 1DFE                                           u5430 1056  
                                         u4470 2074                                           u4454 21CC  
                                         u5350 2A88                                           u4551 2CEC  
                                         u5511 23B4                                           u4711 1720  
                                         u4631 1616                                           u5271 1DFA  
                                         u5431 1052                                           u4471 2070  
                                         u4455 21C8                                           u5351 2A84  
                                         u5520 23D4                                           u5440 2486  
                                         u4800 1882                                           u4720 1734  
                                         u4640 1628                                           u4560 1542  
                                         u5280 1E54                                           u4480 2094  
                                         u4464 2222                                           u5360 2AAC  
                                         u5417 2908                                           u5521 23D0  
                                         u5441 2482                                           u4801 187E  
                                         u4721 1730                                           u4641 1624  
                                         u4561 153E                                           u5281 1E50  
                                         u4481 2090                                           u4465 221E  
                                         u5361 2AA8                                           u5530 2434  
                                         u5450 24A4                                           u4810 1892  
                                         u4730 1766                                           u4650 1696  
                                         u4570 1554                                           u5290 1E9E  
                                         u5370 2ACE                                           u5531 2430  
                                         u5451 24A0                                           u4811 188E  
                                         u4731 1762                                           u4651 1692  
                                         u4571 1550                                           u5195 22C2  
                                         u5291 1E9A                                           u5371 2ACA  
                                         u5540 2450                                           u5460 24C0  
                                         u4900 1976                                           u4820 18AE  
                                         u4740 1774                                           u4660 16AE  
                                         u4580 1564                                           u5380 2A1A  
                                         u5541 244C                                           u5461 24BC  
                                         u4901 1972                                           u4821 18AA  
                                         u4741 1770                                           u4661 16A8  
                                         u4581 1560                                           u5381 2A16  
                                         u5550 2470                                           u5470 24F8  
                                         u4910 1986                                           u4830 18BE  
                                         u4750 1792                                           u4670 16B0  
                                         u4590 15A6                                           u4494 20BA  
                                         u5551 246C                                           u5471 24F4  
                                         u4911 1982                                           u4831 18BA  
                                         u4751 178E                                           u4591 15A2  
                                         u4495 20B6                                           u8200 296E  
                                         u5480 2514                                           u4920 19A6  
                                         u4840 18D0                                           u4760 17CA  
                                         u4680 16D8                                           u8201 296A  
                                         u5481 2510                                           u4921 19A2  
                                         u4841 18CC                                           u4761 17C6  
                                         u4681 16D4                                           u8210 297C  
                                         u5490 2534                                           u4930 19B8  
                                         u4850 18E6                                           u4770 1810  
                                         u4690 16F6                                           u8211 2978  
                                         u5491 2530                                           u4931 19B4  
                                         u4851 18E2                                           u4771 180C  
                                         u4691 16F2                                           u5395 2A64  
                                         u8220 298A                                           u8300 27E0  
                                         u4940 19D4                                           u4860 18FC  
                                         u4780 1846                                           u8221 2986  
                                         u8301 27DC                                           u4941 19D0  
                                         u4861 18F8                                           u4781 1842  
                                         u5397 2A66                                           u8150 2CA8  
                                         u8230 2C74                                           u8310 27FA  
                                         u4870 1910                                           u4790 1856  
                                         u4950 1A02                                           u5830 2B84  
                                         u8151 2CA4                                           u8231 2C70  
                                         u8311 27F6                                           u4871 190C  
                                         u4791 1852                                           u4951 19FE  
                                         u5831 2B80                                           u8160 2CBC  
                                         u8240 2C88                                           u8320 280C  
                                         u4880 192A                                           u4960 1A14  
                                         u8400 1FFC                                           u8161 2CB8  
                                         u8241 2C84                                           u8321 2808  
                                         u4881 1926                                           u4961 1A10  
                                         u8401 1FF8                                           u8170 2CCA  
                                         u8250 2C96                                           u8330 2820  
                                         u4890 1964                                           u4970 1A24  
                                         u8410 201A                                           u8171 2CC6  
                                         u8251 2C92                                           u8331 281C  
                                         u4891 1960                                           u4971 1A20  
                                         u8411 2016                                           u8180 2948  
                                         u8340 2832                                           u8260 2D08  
                                         u4980 1A68                                           u8420 2034  
                                         u8181 2944                                           u8341 282E  
                                         u8261 2D04                                           u4981 1A64  
                                         u8421 2030                                           u8190 2958  
                                         u8270 2D1C                                           u4990 1A7A  
                                         u8430 2052                                           u8350 1F46  
                                         u8191 2954                                           u8271 2D18  
                                         u4991 1A76                                           u8431 204E  
                                         u8351 1F42                                           u8280 27BC  
                                         u8440 2592                                           u8360 1F66  
                                         u8281 27B8                                           u8441 258C  
                                         u8361 1F62                                           u8290 27CC  
                                         u8450 2594                                           u8370 1F8C  
                                         u8291 27C8                                           u8371 1F88  
                                         u8507 2796                                           u8460 25B2  
                                         u8380 1FA4                                           u8461 25AE  
                                         u8381 1FA0                                           u8390 1FC2  
                                         u8471 25DC                                           u8391 1FBE  
                                         u8481 2748                                           u8490 276E  
                                         u8491 276A                                           _TMR2 0FCC  
           _RealTimeDS1307@RealTimeDS1307$F678 0066                       _RB4_InterruptHandlerHigh 0090  
                                         _led1 005C                                           _main 2722  
                             __end_of_CCP1_ISR 2E36                               __end_of_CCP2_ISR 2E32  
                     _RB7_InterruptHandlerHigh 0084                                           fsr0h 0FEA  
                                         indf0 0FEF                                           fsr2h 0FDA  
                                         fsr0l 0FE9                                           indf2 0FDF  
                                         fsr1l 0FE1                                           fsr2l 0FD9  
                                         btemp 005D      gpio_pin_direction_initializion@pin_config 0002  
                                         prodl 0FF3                                           start 03CE  
                              ___fldiv@new_exp 0021                     ?_MSSP_I2C_Interrupt_config 0002  
                   gpio_pin_initialization@ret 000C                                   ___param_bank 0000  
                         _gpio_pin_write_logic 2172                               __end_of_INT0_ISR 2E2A  
                             __end_of_INT1_ISR 2E26                               __end_of_INT2_ISR 2E22  
                                _EUSART_RX_ISR 2E3C                                  ___fltol@sign1 0041  
                                _EUSART_TX_ISR 2E2A                                __end_of___fladd 19E8  
                                        ?_main 0001                       ??_application_initialize 0051  
                              __end_of___fldiv 1D82                                          _EEADR 0FA9  
                              __end_of___fltol 2388                                          _EEPGD 7D37  
                  ??_MSSP_I2C_Master_Send_Stop 0003                                          i2l563 2E38  
                                        i2l723 2E34                                          i2l728 2E30  
                                        i2l905 2E3C                                          i2l895 2E2A  
                                        i2l896 2E2C                                          _RCREG 0FAE  
                          relay_turn_off@F3314 0053                                          _TMR0H 0FD7  
                                        _TMR1H 0FCF                                          _TMR0L 0FD6  
                                        _TMR1L 0FCE                                          _TMR3H 0FB3  
                                        _TMR3L 0FB2                                          _SPBRG 0FAF  
                                        _PORTA 0F80                                          _PORTB 0F81  
                                        _PORTC 0F82                                          _PORTD 0F83  
                                        _PORTE 0F84                                          _TRISA 0F92  
                                        _TRISB 0F93                                          _TRISC 0F94  
                                        _TRISD 0F95                                          _TRISE 0F96  
                                        _TXREG 0FAD                               __end_of_TMR0_ISR 2E16  
                             __end_of_TMR1_ISR 2E12                               __end_of_TMR2_ISR 2E0E  
                             __end_of_TMR3_ISR 2E0A                      _TempSensor_TC74_Read_Temp 29A2  
                    EUSART_ASYNC_TX_INIT@usart 0002                                          tablat 0FF5  
                                        plusw0 0FEB                                          plusw2 0FDB  
                __end_of_keypad_initialization 2AD0                                          ttemp5 005E  
                                        ttemp6 0061                                          ttemp7 0065  
                                        status 0FD8                                          wtemp8 005E  
         MSSP_I2C_Master_Read_Blocking@i2c_obj 0002                          _I2C_Slave_Mode_Config 2D58  
             MSSP_I2C_Interrupt_config@i2c_obj 0002                                __initialization 2834  
         __end_of_I2C_MASTER_MODE_CLOCK_CONFIG 2722                   _I2C_MASTER_MODE_CLOCK_CONFIG 268C  
            __end_of_MSSP_I2C_Interrupt_config 2B72         MSSP_I2C_Master_Write_Blocking@i2c_data 0003  
                                 __end_of_main 27AC                       ??_MSSP_I2C_MODE_GPIO_CFG 0002  
                        ?_gpio_pin_write_logic 0002                                      ??_ADC_ISR 0001  
                               ?_EUSART_RX_ISR 0001      __end_of_UART_LoggingDebugData_Send_String 2D3E  
          ??_UART_LoggingDebugData_Send_String 0012             ?_UART_LoggingDebugData_Send_String 000E  
            _UART_LoggingDebugData_Send_String 2D20                                 ?_EUSART_TX_ISR 0001  
                                       ??_main 00FB     __end_of_EUSART_ASYNC_WRITE_STRING_BLOCKING 2938  
         ??_EUSART_ASYNC_WRITE_STRING_BLOCKING 000B            ?_EUSART_ASYNC_WRITE_STRING_BLOCKING 0005  
           _EUSART_ASYNC_WRITE_STRING_BLOCKING 28BA                                  __activetblptr 0003  
                             led_turn_on@F3315 0058                                      ??_RB4_ISR 0001  
                                    ??_RB5_ISR 0001                                      ??_RB6_ISR 0001  
                                    ??_RB7_ISR 0001      EUSART_ASYNC_WRITE_STRING_BLOCKING@str_ctr 000D  
    EUSART_ASYNC_WRITE_STRING_BLOCKING@str_len 0009                                         _ADRESH 0FC4  
                                       _EEADRH 0FAA                                         _ADRESL 0FC3  
                            _EUSART_ASYNC_INIT 2B72                                         _EEDATA 0FA8  
                                       _CCPR1H 0FBF                                         _CCPR2H 0FBC  
                                       _CCPR1L 0FBE                                         _CCPR2L 0FBB  
                                       _EECON2 0FA7                        led_initialization@F3310 0059  
                 ??_MSSP_I2C_Master_Send_Start 0003                                         i2l1143 2E18  
                                       i2l1330 2E24                                         i2l1147 2E1C  
                                       i2l1324 2E26                                         i2l1500 02AA  
                                       i2l1325 2E28                                         i2l1510 034A  
                                       i2l1502 02CA                                         i2l1335 2E20  
                                       i2l1407 2DA4                                         i2l1512 036A  
                                       i2l1504 02EA                                         i2l1418 2D8A  
                                       i2l1514 038A                                         i2l1506 030A  
                                       i2l1516 03AA                                         i2l1508 032A  
                                       i2l1519 03CA                                         i2l1480 006A  
                                       i2l1385 2DD8                                         i2l1705 2E0C  
                                       i2l1481 00AC                                         i2l1490 01EA  
                                       i2l1482 00EA                                         i2l1396 2DBE  
                                       i2l1476 002A                                         i2l1493 022C  
                                       i2l1485 012C                                         i2l1494 026A  
                                       i2l1486 016A                                         i2l1478 004A  
                                       i2l1664 2E10                                         i2l1489 01AC  
                                       i2l1498 028A                                         i2l1595 2E14  
                                       i2l7010 2D8E                                         i2l1778 2E08  
                                       i2l7004 2DBE                                         i2l7012 2D90  
                                       i2l7032 2D8A                                         i2l7024 2D74  
                                       i2l7018 2DA4                                         i2l7026 2D76  
                                       i2l7050 2E0A                                         i2l7044 2E0E  
                                       i2l8100 0038                                         i2l7038 2E12  
                                       i2l8110 0086                                         i2l8102 0046  
                                       i2l7056 2E06                                         i2l8200 0358  
                                       i2l8120 00D6                                         i2l8112 0094  
                                       i2l8104 0058                                         i2l8210 03A6  
                                       i2l8202 0366                                         i2l8130 0122  
                                       i2l8122 00E4                                         i2l8114 00A2  
                                       i2l8106 0066                                         i2l8212 03B8  
                                       i2l8204 0378                                         i2l8140 0178  
                                       i2l8132 013A                                         i2l8124 00F8  
                                       i2l8116 00BA                                         i2l8108 0078  
                                       i2l8214 03C6                                         i2l8206 0386  
                                       i2l8150 01C8                                         i2l8142 0186  
                                       i2l8134 0148                                         i2l8126 0106  
                                       i2l8118 00C8                                         i2l8208 0398  
                                       i2l8160 0214                                         i2l8152 01D6  
                                       i2l8144 0194                                         i2l8136 0156  
                                       i2l8128 0114                                         i2l8170 0264  
                                       i2l8162 0222                                         i2l8154 01E4  
                                       i2l8146 01A2                                         i2l8138 0164  
                                       i2l6900 2E32                                         i2l8180 02B8  
                                       i2l8172 0278                                         i2l8164 023A  
                                       i2l8156 01F8                                         i2l8148 01BA  
                                       i2l8190 0306                                         i2l8182 02C6  
                                       i2l8174 0286                                         i2l8166 0248  
                                       i2l8158 0206                                         i2l8094 000A  
                                       i2l6912 2E2A                                         i2l8192 0318  
                                       i2l8184 02D8                                         i2l8176 0298  
                                       i2l8168 0256                                         i2l8096 0018  
                                       i2l6906 2E2E                                         i2l8194 0326  
                                       i2l8186 02E6                                         i2l8178 02A6  
                                       i2l8098 0026                                         i2l6916 2E3C  
                                       i2l6932 2E1A                                         i2l8196 0338  
                                       i2l8188 02F8                                         i2l8198 0346  
                                       i2l6928 2E16                                         i2l6970 2E22  
                                       i2l6894 2E36                                         i2l6966 2E26  
                                       i2l6990 2DD8                                         i2l6982 2DC2  
                                       i2l6976 2E1E                                         i2l6984 2DC4  
                                       i2l6996 2DA8                                         i2l6998 2DAA  
                           ?_EUSART_ASYNC_INIT 004F                                         _SPBRGH 0FB0  
                    _MSSP_I2C_Master_Send_Stop 2C64                                         _SSPADD 0FC8  
                                       _SSPBUF 0FC9      __end_of_RealTimeClockDS1307_Get_Date_Time 25E6  
          ??_RealTimeClockDS1307_Get_Date_Time 000B             ?_RealTimeClockDS1307_Get_Date_Time 0005  
            _RealTimeClockDS1307_Get_Date_Time 2538               MSSP_I2C_Master_Read_Blocking@ack 0003  
                             __end_of___xxtofl 1F36                                  _tris_register 00D9  
                        __end_of_MSSP_I2C_Init 2060                        _RB6_InterruptHandlerLow 008A  
                          ??_EUSART_ASYNC_INIT 0051                                      ??___fladd 0031  
                                    ??___fldiv 0018                                      ??___fltol 003D  
                ?_I2C_MASTER_MODE_CLOCK_CONFIG 0043                                         _keypad 00F4  
                                       clear_0 2892                                         clear_1 289E  
                                       clear_2 28AA                                     _Print_Date 25E6  
                                       isa$std 0001                                         _usart1 0100  
                                    ?_CCP1_ISR 0001                                   __pdataCOMRAM 005B  
                                    ?_CCP2_ISR 0001                                   __mediumconst 0000  
                    __end_of_EUSART_ASYNC_INIT 2BB6                                         tblptrh 0FF7  
                                       tblptrl 0FF6                                         tblptru 0FF8  
                 __end_of_EUSART_ASYNC_RX_INIT 2474                   __end_of_EUSART_ASYNC_TX_INIT 2538  
                      _Timer0_InterruptHandler 0082                                   ___xxtofl@arg 000C  
                                 ___xxtofl@exp 000B                                   ___xxtofl@val 0002  
                                   __accesstop 0060                  _I2C_Default_Interrupt_Handler 009C  
                      __end_of__initialization 28B0                                      ?_INT0_ISR 0001  
                                    ?_INT1_ISR 0001                                      ?_INT2_ISR 0001  
                      ??_I2C_Master_Call_Slave 0006                         ?_I2C_Slave_Mode_Config 0002  
                                ___rparam_used 0001                                     ___fltol@f1 0039  
             ??_MSSP_I2C_Master_Write_Blocking 0005                ?_MSSP_I2C_Master_Write_Blocking 0002  
                       ??_gpio_pin_write_logic 0004                                 __pcstackCOMRAM 0001  
                                 __pidataBANK0 2BFA                                   __pidataBANK1 2DDA  
                                RB4_ISR@source 0001                                      ?_TMR0_ISR 0001  
                              ??_EUSART_RX_ISR 0001          MSSP_I2C_Master_Write_Blocking@i2c_obj 0002  
                                    ?_TMR1_ISR 0001                                      ?_TMR2_ISR 0001  
                                    ?_TMR3_ISR 0001                                ??_EUSART_TX_ISR 0001  
        EUSART_ASYNC_WRITE_BYTE_BLOCKING@usart 0002                   convert_short_to_string@F3463 006C  
 _I2C_Report_Write_Collision_Interrupt_Handler 009E        __end_of_gpio_pin_direction_initializion 2172  
            ??_gpio_pin_direction_initializion 0003               ?_gpio_pin_direction_initializion 0002  
              _gpio_pin_direction_initializion 2060                                     ??_CCP1_ISR 0001  
                                   ??_CCP2_ISR 0001                          led_initialization@led 000D  
                                RB5_ISR@source 0001                   I2C_Slave_Mode_Config@i2c_obj 0002  
                                   __pbssBANK0 0060                                     __pbssBANK1 0114  
                        _INT0_InterruptHandler 0098                                     ??_INT0_ISR 0001  
                                   ??_INT1_ISR 0001                                     ??_INT2_ISR 0001  
                       _application_initialize 2D3E                    _EUSART_TX_Interrupt_Handler 00A6  
                  ??_MSSP_I2C_Interrupt_config 0003        RealTimeClockDS1307_Get_Date_Time@buffer 000B  
                                RB6_ISR@source 0001              MSSP_I2C_Master_Write_Blocking@ack 0004  
                                   ??_TMR0_ISR 0001                                     ??_TMR1_ISR 0001  
                                   ??_TMR2_ISR 0001                                     ??_TMR3_ISR 0001  
                            led_turn_off@F3320 0057                                        _ADC_ISR 2E36  
                              led_toggle@F3325 0056                                    ?_Print_Date 0001  
                               _RealTimeDS1307 0060                                        _RB4_ISR 2DC0  
                                      _RB5_ISR 2DA6                                        _RB6_ISR 2D8C  
                                      _RB7_ISR 2D72                                      ?___xxtofl 0002  
                                ?_MSSP_I2C_ISR 0001                      ?_EEPROM_24C02C_Write_Byte 0005  
           __end_of_MSSP_I2C_Master_Send_Start 2CCC                     _MSSP_I2C_Master_Send_Start 2C98  
                       _MSSP_I2C_MODE_GPIO_CFG 2E00                                  RB7_ISR@source 0001  
                     _RB6_InterruptHandlerHigh 0088         EEPROM_24C02C_Write_Byte@EEPROM_Address 0007  
                    led_initialization@pin_obj 000F                              ??_MSSP_I2C_BC_ISR 0001  
                                      __Hparam 0000                                        __Lparam 0000  
                       EUSART_ASYNC_INIT@usart 004F                                        ___fladd 1528  
                                      ___fldiv 19E8                                        ___fltol 2282  
                         _EUSART_ASYNC_RX_INIT 2388              _EUSART_Baud_Rate_Calculation$5445 004B  
                         _EUSART_ASYNC_TX_INIT 2474                                   __psmallconst 1000  
                      _Timer1_InterruptHandler 007E                                        __pcinit 2834  
                                    _ANSELbits 0F7E                                        __ramtop 1000  
                                      __ptext0 2722                                        __ptext1 2D3E  
                                      __ptext2 2DEE                                        __ptext3 2A0A  
                                      __ptext4 2A70                                        __ptext5 2AD0  
                                      __ptext6 2172                                        __ptext7 2060  
                                      __ptext8 1F36                                        __ptext9 2E00  
                                    _T0CONbits 0FD5                                      _T1CONbits 0FCD  
                               ??_MSSP_I2C_ISR 0001                                      _T2CONbits 0FCA  
                                   ??___xxtofl 0006                                      _T3CONbits 0FB1  
                    _MSSP_I2C_Interrupt_config 2B2E               MSSP_I2C_Master_Send_Stop@i2c_obj 0002  
                         end_of_initialization 28B0                           __end_of_keypad_value 100D  
            EUSART_Baud_Rate_Calculation@usart 0043       __end_of_EUSART_ASYNC_WRITE_BYTE_BLOCKING 2CF8  
           ??_EUSART_ASYNC_WRITE_BYTE_BLOCKING 0005              ?_EUSART_ASYNC_WRITE_BYTE_BLOCKING 0002  
             _EUSART_ASYNC_WRITE_BYTE_BLOCKING 2CCC              gpio_pin_initialization@pin_config 000A  
                        _keypad_initialization 2A70                                      _RCSTAbits 0FAB  
                                      postdec1 0FE5                                        postdec2 0FDD  
                        ?_EUSART_ASYNC_RX_INIT 0002                                        postinc0 0FEE  
                                      postinc2 0FDE                    keypad_initialization@keypad 000D  
                        ?_EUSART_ASYNC_TX_INIT 0002    __end_of_MSSP_I2C_Master_Send_Repeated_Start 2D20  
        ??_MSSP_I2C_Master_Send_Repeated_Start 0003           ?_MSSP_I2C_Master_Send_Repeated_Start 0002  
          _MSSP_I2C_Master_Send_Repeated_Start 2CF8                                      _U4Program 00B2  
                        _INT1_InterruptHandler 0096                                      _PORTBbits 0F81  
                      _gpio_pin_initialization 2AD0                               _InterruptManager 0008  
                                  ___fladd@grs 0038                                  ___xxtofl@sign 000A  
                                  ___fldiv@grs 0023                                    ___fldiv@rem 001C  
                      ??_I2C_Slave_Mode_Config 0003                                 _last_temp_sent 005B  
           RealTimeClockDS1307_Get_Date_Time@i 0012             I2C_Master_Call_Slave@Slave_Address 0006  
                                  _CCP1CONbits 0FBD                                    _CCP2CONbits 0FBA  
                                    _TXSTAbits 0FAC                       CCP_CaptureDataRead@F3373 00AA  
                      _RB4_InterruptHandlerLow 0092                        _RB7_InterruptHandlerLow 0086  
                __end_of_I2C_Master_Call_Slave 2C64                             relay_turn_on@F3309 0054  
                                  _BAUDCONbits 0FB8                                  __pidataCOMRAM 2E3A  
         UART_LoggingDebugData_Send_String@Str 000E                                _TC74_A7_TempVal 0051  
                          start_initialization 2834                                   _lat_register 00CF  
          I2C_MASTER_MODE_CLOCK_CONFIG@i2c_obj 0043                        ?_application_initialize 0001  
                      _Timer2_InterruptHandler 007A           __end_of_EUSART_Baud_Rate_Calculation 1528  
                 _EUSART_Baud_Rate_Calculation 1034                         ?_keypad_initialization 000D  
        __end_of_MSSP_I2C_Master_Read_Blocking 2834                  _MSSP_I2C_Master_Read_Blocking 27AC  
                         __end_of_MSSP_I2C_ISR 2E1A                     convert_int_to_string@F3470 0114  
                  convert_byte_to_string@F3456 0072                         ??_EUSART_ASYNC_RX_INIT 0004  
                       ??_EUSART_ASYNC_TX_INIT 0004                      ??_gpio_pin_initialization 000B  
                                  __pdataBANK0 00C5                                    __pdataBANK1 0100  
             __end_of_EEPROM_24C02C_Write_Byte 2BFA                                       ?_ADC_ISR 0001  
                                 ??_Print_Date 0012                          __end_of_EUSART_RX_ISR 2E3E  
                        __end_of_EUSART_TX_ISR 2E2E                   __end_of_ecu_layer_initialize 2E00  
                                    ___fladd@a 002D                                      ___fladd@b 0029  
                         MSSP_I2C_Init@i2c_obj 0045                                      ___fldiv@a 0014  
                                    ___fldiv@b 0010                                       ?_RB4_ISR 0001  
                                     ?_RB5_ISR 0001                                       ?_RB6_ISR 0001  
                                     ?_RB7_ISR 0001                        ?_MSSP_I2C_MODE_GPIO_CFG 0001  
                                  __pbssCOMRAM 0051                                  __pcstackBANK0 00FB  
               __end_of_application_initialize 2D58           EUSART_ASYNC_WRITE_BYTE_BLOCKING@data 0004  
                              _MSSP_I2C_BC_ISR 2E1A                    ?_MSSP_I2C_Master_Send_Start 0002  
                       _CCP1_Interrupt_Handler 00AE                          _INT2_InterruptHandler 0094  
                   __end_of_led_initialization 2A70                 gpio_pin_write_logic@pin_config 0002  
                ?_EUSART_Baud_Rate_Calculation 0043       UART_LoggingDebugData_Send_String@str_len 0010  
                           __end_of_Print_Date 268C                                  _MSSP_I2C_Init 1F36  
                                    __pintcode 0008                                       ?___fladd 0029  
                                     ?___fldiv 0010                                       ?___fltol 0039  
                    gpio_pin_write_logic@logic 0003                                   _keypad_value 1001  
               __end_of_MSSP_I2C_MODE_GPIO_CFG 2E06                                    __smallconst 1000  
                                     _CCP1_ISR 2E32                                       _CCP2_ISR 2E2E  
            keypad_initialization@rows_counter 000E                __end_of_gpio_pin_initialization 2B2E  
        TempSensor_TC74_Read_Temp@TC74_Address 0006      EUSART_Baud_Rate_Calculation@baudrate_temp 0047  
                     _RB5_InterruptHandlerHigh 008C                                       _INT0_ISR 2E26  
                                     _INT1_ISR 2E22                                       _INT2_ISR 2E1E  
                                     _IOCBbits 0F7D                       __end_of_InterruptManager 03CE  
                                     _PIE1bits 0F9D                                       _PIE2bits 0FA0  
                               ?_MSSP_I2C_Init 0045                                       _PIR1bits 0F9E  
                                     i2u610_40 2D86                                       i2u610_41 2D82  
                                     _PIR2bits 0FA1                                       i2u607_40 2DD4  
                                     i2u607_41 2DD0                                       i2u608_40 2DBA  
                                     i2u608_41 2DB6                                       i2u609_40 2DA0  
                                     i2u609_41 2D9C                                       i2u730_40 0094  
                                     i2u722_40 0018                                       i2u730_41 0090  
                                     i2u722_41 0014                                       i2u731_40 00A2  
                                     i2u723_40 0026                                       i2u731_41 009E  
                                     i2u723_41 0022                                       i2u740_40 013A  
                                     i2u732_40 00BA                                       i2u724_40 0038  
                                     i2u740_41 0136                                       i2u732_41 00B6  
                                     i2u724_41 0034          TempSensor_TC74_Read_Temp@TC74_TempVal 0007  
                                     i2u741_40 0148                                       i2u733_40 00C8  
                                     i2u725_40 0046                                       i2u741_41 0144  
                                     i2u733_41 00C4                                       i2u725_41 0042  
                    I2C_Master_Call_Slave@temp 0005                                       i2u750_40 01D6  
                                     i2u742_40 0156                                       i2u734_40 00D6  
                                     i2u726_40 0058                                       i2u750_41 01D2  
                                     i2u742_41 0152                                       i2u734_41 00D2  
                                     i2u726_41 0054                                       i2u751_40 01E4  
                                     i2u743_40 0164                                       i2u735_40 00E4  
                                     i2u727_40 0066                                       i2u751_41 01E0  
                                     i2u743_41 0160                                       i2u735_41 00E0  
                                     i2u727_41 0062                                       i2u760_40 0278  
                                     i2u752_40 01F8                                       i2u744_40 0178  
                                     i2u736_40 00F8                                       i2u728_40 0078  
                                     i2u760_41 0274                                       i2u752_41 01F4  
                                     i2u744_41 0174                                       i2u736_41 00F4  
                                     i2u728_41 0074                                       i2u761_40 0286  
                                     i2u753_40 0206                                       i2u745_40 0186  
                                     i2u737_40 0106                                       i2u729_40 0086  
                                     i2u761_41 0282                                       i2u753_41 0202  
                                     i2u745_41 0182                                       i2u737_41 0102  
                                     i2u729_41 0082                                       i2u770_40 0318  
                                     i2u762_40 0298                                       i2u754_40 0214  
                                     i2u746_40 0194                                       i2u738_40 0114  
                                     i2u770_41 0314                                       i2u762_41 0294  
                                     i2u754_41 0210                                       i2u746_41 0190  
                                     i2u738_41 0110                                       i2u771_40 0326  
                                     i2u763_40 02A6                                       i2u755_40 0222  
                                     i2u747_40 01A2                                       i2u739_40 0122  
                                     i2u771_41 0322                                       i2u763_41 02A2  
                                     i2u755_41 021E                                       i2u747_41 019E  
                                     i2u739_41 011E                                       i2u780_40 03B8  
                                     i2u772_40 0338                                       i2u764_40 02B8  
                                     i2u756_40 023A                                       i2u748_40 01BA  
                                     i2u780_41 03B4                                       i2u772_41 0334  
                                     i2u764_41 02B4                                       i2u756_41 0236  
                                     i2u748_41 01B6                                       i2u781_40 03C6  
                                     i2u773_40 0346                                       i2u765_40 02C6  
                                     i2u757_40 0248                                       i2u749_40 01C8  
                                     i2u781_41 03C2                                       i2u773_41 0342  
                                     i2u765_41 02C2                                       i2u757_41 0244  
                                     i2u749_41 01C4                                       i2u774_40 0358  
                                     i2u766_40 02D8                                       i2u758_40 0256  
                                     i2u774_41 0354                                       i2u766_41 02D4  
                                     i2u758_41 0252                                       i2u775_40 0366  
                                     i2u767_40 02E6                                       i2u759_40 0264  
                                     i2u775_41 0362                                       i2u767_41 02E2  
                                     i2u759_41 0260                                       i2u776_40 0378  
                                     i2u768_40 02F8                                       i2u776_41 0374  
                                     i2u768_41 02F4                                       i2u777_40 0386  
                                     i2u769_40 0306                                       i2u777_41 0382  
                                     i2u769_41 0302                                       i2u778_40 0398  
                                     i2u778_41 0394                                       i2u779_40 03A6  
                                     i2u779_41 03A2                                      _mssp_i2c1 00E4  
                   ?_TempSensor_TC74_Read_Temp 0001                                       _TMR0_ISR 2E12  
                                     _TMR1_ISR 2E0E                                       _TMR2_ISR 2E0A  
                                     _TMR3_ISR 2E06                 ?_MSSP_I2C_Master_Read_Blocking 0002  
                      _Timer3_InterruptHandler 0078             gpio_pin_direction_initializion@ret 0008  
                                   _ADCON0bits 0FC2                                     _ADCON1bits 0FC1  
                                   _ADCON2bits 0FC0                        __end_of_MSSP_I2C_BC_ISR 2E1E  
                     _EEPROM_24C02C_Write_Byte 2BB6                 ??_I2C_MASTER_MODE_CLOCK_CONFIG 0044  
                      gpio_pin_write_logic@ret 0009           keypad_initialization@columns_counter 000F  
                                  _INTCON2bits 0FF1                                    _INTCON3bits 0FF0  
                                    copy_data0 2848                                      copy_data1 2868  
                    relay_initialization@F3304 0055                  __end_of_I2C_Slave_Mode_Config 2D72  
                         _ecu_layer_initialize 2DEE                                     _EECON1bits 0FA6  
                                     __Hrparam 0000                                       __Lrparam 0000  
_I2C_Report_Recieve_Overflow_Interrupt_Handler 009A                 ??_EUSART_Baud_Rate_Calculation 0045  
                        _ADC_Interrupt_Handler 00B0              __end_of_TempSensor_TC74_Read_Temp 2A0A  
                  _EUSART_FramingError_Handler 00A2                             _timer0_preload_val 0080  
                   ?_MSSP_I2C_Master_Send_Stop 0002                                     _ANSELHbits 0F7F  
            MSSP_I2C_Master_Send_Start@i2c_obj 0002                                       ___xxtofl 1D82  
   TempSensor_TC74_Read_Temp@TC74_Read_Address 0005                                   _MSSP_I2C_ISR 2E16  
        MSSP_I2C_Master_Read_Blocking@i2c_data 0004                                       __ptext10 2B2E  
                                     __ptext11 2D58                                       __ptext20 2388  
                                     __ptext12 268C                                       __ptext21 29A2  
                                     __ptext13 2B72                                       __ptext30 2BB6  
                                     __ptext22 2538                                       __ptext14 1034  
                                     __ptext31 2938                                       __ptext23 2CF8  
                                     __ptext15 1D82                                       __ptext40 2D8C  
                                     __ptext32 2C64                                       __ptext24 27AC  
                                     __ptext16 2282                                       __ptext41 2DA6  
                                     __ptext33 2C98                                       __ptext25 25E6  
                                     __ptext17 19E8                                       __ptext50 2E2E  
                                     __ptext42 2DC0                                       __ptext26 2D20  
                                     __ptext18 1528                                       __ptext51 2E32  
                                     __ptext43 2E16                                       __ptext35 2E06  
                                     __ptext27 28BA                                       __ptext19 2474  
                                     __ptext52 2E36                                       __ptext44 2E1A  
                                     __ptext36 2E0A                                       __ptext28 2CCC  
                                     __ptext45 2E1E                                       __ptext37 2E0E  
                                     __ptext29 2C30                                       __ptext46 2E22  
                                     __ptext38 2E12                                       __ptext47 2E26  
                                     __ptext39 2D72                                       __ptext48 2E2A  
                                     __ptext49 2E3C                        ??_keypad_initialization 000E  
                     CCP_CompareSetValue@F3382 00A8                          ?_ecu_layer_initialize 0001  
                              ??_MSSP_I2C_Init 0046                        _RB5_InterruptHandlerLow 008E  
                                     isa$xinst 0000                          _I2C_Master_Call_Slave 2C30  
                                     int$flags 005D                             _timer1_preload_val 007C  
                             ?_MSSP_I2C_BC_ISR 0001              __end_of_MSSP_I2C_Master_Send_Stop 2C98  
                                   _INTCONbits 0FF2        EUSART_ASYNC_WRITE_STRING_BLOCKING@usart 0005  
                 __end_of_gpio_pin_write_logic 2282                                       intlevel2 0000  
                              _Print_Pack_Date 00B3         EUSART_ASYNC_WRITE_STRING_BLOCKING@data 0007  
                           _led_initialization 2A0A                             _timer2_preload_val 0052  
                  _EUSART_OverrunError_Handler 00A0                            ?_led_initialization 000D  
       __end_of_MSSP_I2C_Master_Write_Blocking 29A2                 _MSSP_I2C_Master_Write_Blocking 2938  
                                  _SSPCON1bits 0FC6                                    _SSPCON2bits 0FC5  
                    EUSART_ASYNC_RX_INIT@usart 0002                                  ___fladd@signs 0035  
                       _CCP2_Interrupt_Handler 00AC                         ??_ecu_layer_initialize 0010  
                                _port_register 00C5                                   ___fladd@aexp 0036  
                                 ___fladd@bexp 0037                    _EUSART_RX_Interrupt_Handler 00A4  
                            ?_InterruptManager 0001                           ??_led_initialization 000E  
                     ?_gpio_pin_initialization 000A                         ?_I2C_Master_Call_Slave 0005  
         EEPROM_24C02C_Write_Byte@Byte_Address 0005  
