

Microchip MPLAB XC8 Assembler V2.46 build 20240104201356 
                                                                                               Thu Nov 28 11:30:57 2024

Microchip MPLAB XC8 C Compiler v2.46 (Free license) build 20240104201356 Og1 
     1                           	processor	18F46K20
     2                           	fnconf	rparam,??,?,0
     3                           	pagewidth 120
     4                           	opt	flic
     5                           	psect	idataCOMRAM,global,class=CODE,delta=1,noexec
     6                           	psect	idataBANK0,global,class=CODE,delta=1,noexec
     7                           	psect	smallconst,global,reloc=2,class=SMALLCONST,delta=1,noexec
     8                           	psect	cinit,global,reloc=2,class=CODE,delta=1
     9                           	psect	bssCOMRAM,global,class=COMRAM,space=1,delta=1,lowdata,noexec
    10                           	psect	dataCOMRAM,global,class=COMRAM,space=1,delta=1,lowdata,noexec
    11                           	psect	bssBANK0,global,class=BANK0,space=1,delta=1,lowdata,noexec
    12                           	psect	dataBANK0,global,class=BANK0,space=1,delta=1,lowdata,noexec
    13                           	psect	cstackBANK0,global,class=BANK0,space=1,delta=1,lowdata,noexec
    14                           	psect	cstackCOMRAM,global,class=COMRAM,space=1,delta=1,lowdata,noexec
    15                           	psect	text0,global,reloc=2,class=CODE,delta=1
    16                           	psect	text1,global,reloc=2,class=CODE,delta=1
    17                           	psect	text2,global,reloc=2,class=CODE,delta=1
    18                           	psect	text3,global,reloc=2,class=CODE,delta=1
    19                           	psect	text4,global,reloc=2,class=CODE,delta=1
    20                           	psect	text5,global,reloc=2,class=CODE,delta=1
    21                           	psect	text6,global,reloc=2,class=CODE,delta=1
    22                           	psect	text7,global,reloc=2,class=CODE,delta=1
    23                           	psect	text8,global,reloc=2,class=CODE,delta=1
    24                           	psect	text9,global,reloc=2,class=CODE,delta=1
    25                           	psect	text10,global,reloc=2,class=CODE,delta=1
    26                           	psect	text11,global,reloc=2,class=CODE,delta=1
    27                           	psect	text12,global,reloc=2,class=CODE,delta=1
    28                           	psect	text13,global,reloc=2,class=CODE,delta=1
    29                           	psect	text14,global,reloc=2,class=CODE,delta=1
    30                           	psect	text15,global,reloc=2,class=CODE,delta=1
    31                           	psect	text16,global,reloc=2,class=CODE,delta=1
    32                           	psect	text17,global,reloc=2,class=CODE,delta=1
    33                           	psect	text18,global,reloc=2,class=CODE,delta=1
    34                           	psect	text19,global,reloc=2,class=CODE,delta=1
    35                           	psect	text20,global,reloc=2,class=CODE,delta=1
    36                           	psect	text21,global,reloc=2,class=CODE,delta=1,inline
    37                           	psect	text22,global,reloc=2,class=CODE,delta=1,inline
    38                           	psect	text23,global,reloc=2,class=CODE,delta=1,inline
    39                           	psect	text24,global,reloc=2,class=CODE,delta=1,inline
    40                           	psect	text25,global,reloc=2,class=CODE,delta=1,group=1
    41                           	psect	text26,global,reloc=2,class=CODE,delta=1,group=1
    42                           	psect	text27,global,reloc=2,class=CODE,delta=1,group=1
    43                           	psect	text28,global,reloc=2,class=CODE,delta=1,group=1
    44                           	psect	intcode,global,reloc=2,class=CODE,delta=1
    45                           	psect	text30,global,reloc=2,class=CODE,delta=1
    46                           	psect	text31,global,reloc=2,class=CODE,delta=1
    47                           	psect	text32,global,reloc=2,class=CODE,delta=1
    48                           	psect	text33,global,reloc=2,class=CODE,delta=1
    49                           	psect	text34,global,reloc=2,class=CODE,delta=1
    50                           	psect	text35,global,reloc=2,class=CODE,delta=1
    51                           	psect	text36,global,reloc=2,class=CODE,delta=1
    52                           	psect	text37,global,reloc=2,class=CODE,delta=1
    53                           	psect	text38,global,reloc=2,class=CODE,delta=1
    54                           	psect	intsave_regs,global,class=BIGRAM,space=1,delta=1,noexec
    55                           	psect	rparam,global,class=COMRAM,space=1,delta=1,noexec
    56                           	psect	temp,global,ovrld,common,class=COMRAM,space=1,delta=1,lowdata
    57                           	psect	config,global,abs,ovrld,class=CONFIG,space=4,delta=1,noexec
    58   000000                     
    59                           ; Generated 12/10/2023 GMT
    60                           ; 
    61                           ; Copyright © 2023, Microchip Technology Inc. and its subsidiaries ("Microchip")
    62                           ; All rights reserved.
    63                           ; 
    64                           ; This software is developed by Microchip Technology Inc. and its subsidiaries ("Microch
      +                          ip").
    65                           ; 
    66                           ; Redistribution and use in source and binary forms, with or without modification, are
    67                           ; permitted provided that the following conditions are met:
    68                           ; 
    69                           ;     1. Redistributions of source code must retain the above copyright notice, this lis
      +                          t of
    70                           ;        conditions and the following disclaimer.
    71                           ; 
    72                           ;     2. Redistributions in binary form must reproduce the above copyright notice, this 
      +                          list
    73                           ;        of conditions and the following disclaimer in the documentation and/or other
    74                           ;        materials provided with the distribution. Publication is not required when
    75                           ;        this file is used in an embedded application.
    76                           ; 
    77                           ;     3. Microchip's name may not be used to endorse or promote products derived from th
      +                          is
    78                           ;        software without specific prior written permission.
    79                           ; 
    80                           ; THIS SOFTWARE IS PROVIDED BY MICROCHIP "AS IS" AND ANY EXPRESS OR IMPLIED WARRANTIES,
    81                           ; INCLUDING, BUT NOT LIMITED TO, THE IMPLIED WARRANTIES OF MERCHANTABILITY AND FITNESS F
      +                          OR
    82                           ; PURPOSE ARE DISCLAIMED.  IN NO EVENT SHALL MICROCHIP BE LIABLE FOR ANY DIRECT, INDIREC
      +                          T,
    83                           ; INCIDENTAL, SPECIAL, EXEMPLARY, OR CONSEQUENTIAL DAMAGES (INCLUDING BUT NOT LIMITED TO
    84                           ; PROCUREMENT OF SUBSTITUTE GOODS OR SERVICES; LOSS OF USE, DATA OR PROFITS; OR BUSINESS
    85                           ; INTERRUPTION) HOWSOEVER CAUSED AND ON ANY THEORY OF LIABILITY, WHETHER IN CONTRACT, ST
      +                          RICT
    86                           ; LIABILITY, OR TORT (INCLUDING NEGLIGENCE OR OTHERWISE) ARISING IN ANY WAY OUT OF THE U
      +                          SE OF
    87                           ; THIS SOFTWARE, EVEN IF ADVISED OF THE POSSIBILITY OF SUCH DAMAGE.
    88                           ; 
    89                           ; 
    90                           ; Code-generator required, PIC18F46K20 Definitions
    91                           ; 
    92                           ; SFR Addresses
    93   000000                     
    94                           	psect	idataCOMRAM
    95   0026EE                     __pidataCOMRAM:
    96                           	callstack 0
    97                           
    98                           ;initializer for _ret
    99   0026EE  01                 	db	1
   100                           
   101                           ;initializer for _motor2
   102   0026EF  12                 	db	18
   103   0026F0  2A                 	db	42
   104                           
   105                           ;initializer for _motor1
   106   0026F1  02                 	db	2
   107   0026F2  0A                 	db	10
   108                           
   109                           ;initializer for _relay1
   110   0026F3  03                 	db	3
   111                           
   112                           	psect	idataBANK0
   113   00256E                     __pidataBANK0:
   114                           	callstack 0
   115                           
   116                           ;initializer for _port_register
   117   00256E  80                 	db	128
   118   00256F  0F                 	db	15
   119   002570  81                 	db	129
   120   002571  0F                 	db	15
   121   002572  82                 	db	130
   122   002573  0F                 	db	15
   123   002574  83                 	db	131
   124   002575  0F                 	db	15
   125   002576  84                 	db	132
   126   002577  0F                 	db	15
   127                           
   128                           ;initializer for _lat_register
   129   002578  89                 	db	137
   130   002579  0F                 	db	15
   131   00257A  8A                 	db	138
   132   00257B  0F                 	db	15
   133   00257C  8B                 	db	139
   134   00257D  0F                 	db	15
   135   00257E  8C                 	db	140
   136   00257F  0F                 	db	15
   137   002580  8D                 	db	141
   138   002581  0F                 	db	15
   139                           
   140                           ;initializer for _tris_register
   141   002582  92                 	db	146
   142   002583  0F                 	db	15
   143   002584  93                 	db	147
   144   002585  0F                 	db	15
   145   002586  94                 	db	148
   146   002587  0F                 	db	15
   147   002588  95                 	db	149
   148   002589  0F                 	db	15
   149   00258A  96                 	db	150
   150   00258B  0F                 	db	15
   151                           
   152                           ;initializer for _mssp_i2c2
   153   00258C  86A0               	dw	34464
   154   00258E  0001               	dw	1
   155   002590  00                 	db	0
   156   002591  0E                 	db	14
   157   002592  00                 	db	0
   158   002593  70                 	db	112
   159   002594  00                 	db	0
   160   002595  00                 	db	0
   161   002596  00                 	db	0
   162   002597  00                 	db	0
   163   002598  80                 	db	low _I2C_DefaultInterruptHandler
   164   002599  26                 	db	high _I2C_DefaultInterruptHandler
   165   00259A  00                 	db	0
   166   00259B  00                 	db	0
   167                           
   168                           ;initializer for _lcd_1
   169   00259C  0B                 	db	11
   170   00259D  13                 	db	19
   171   00259E  1B                 	db	27
   172   00259F  23                 	db	35
   173   0025A0  2B                 	db	43
   174   0025A1  33                 	db	51
   175                           
   176                           	psect	smallconst
   177   001000                     __psmallconst:
   178                           	callstack 0
   179   001000  00                 	db	0
   180   001001                     _keypad_value:
   181                           	callstack 0
   182   001001  37                 	db	55
   183   001002  38                 	db	56
   184   001003  39                 	db	57
   185   001004  34                 	db	52
   186   001005  35                 	db	53
   187   001006  36                 	db	54
   188   001007  31                 	db	49
   189   001008  32                 	db	50
   190   001009  33                 	db	51
   191   00100A  2A                 	db	42
   192   00100B  30                 	db	48
   193   00100C  23                 	db	35
   194   00100D                     __end_of_keypad_value:
   195                           	callstack 0
   196   000000                     _TMR3L	set	4018
   197   000000                     _TMR3H	set	4019
   198   000000                     _TMR1L	set	4046
   199   000000                     _TMR1H	set	4047
   200   000000                     _TMR0L	set	4054
   201   000000                     _TMR0H	set	4055
   202   000000                     _INTCON2bits	set	4081
   203   000000                     _SSPSTATbits	set	4039
   204   000000                     _SSPADD	set	4040
   205   000000                     _SSPCON2bits	set	4037
   206   000000                     _SSPCON1bits	set	4038
   207   000000                     _SPBRGH	set	4016
   208   000000                     _SPBRG	set	4015
   209   000000                     _BAUDCONbits	set	4024
   210   000000                     _TXREG	set	4013
   211   000000                     _TXSTAbits	set	4012
   212   000000                     _RCREG	set	4014
   213   000000                     _RCSTAbits	set	4011
   214   000000                     _EECON2	set	4007
   215   000000                     _CCPR2H	set	4028
   216   000000                     _CCPR2L	set	4027
   217   000000                     _CCPR1H	set	4031
   218   000000                     _CCPR1L	set	4030
   219   000000                     _ADCON1bits	set	4033
   220   000000                     _ADRESL	set	4035
   221   000000                     _ADRESH	set	4036
   222   000000                     _INTCONbits	set	4082
   223   000000                     _TRISD	set	3989
   224   000000                     _TRISC	set	3988
   225   000000                     _TRISB	set	3987
   226   000000                     _TRISE	set	3990
   227   000000                     _EECON1bits	set	4006
   228   000000                     _CFGS	set	32054
   229   000000                     _IOCBbits	set	3965
   230   000000                     _ANSELbits	set	3966
   231   000000                     _PIE1bits	set	3997
   232   000000                     _ADCON2bits	set	4032
   233   000000                     _ADCON0bits	set	4034
   234   000000                     _PIE2bits	set	4000
   235   000000                     _CCP2CONbits	set	4026
   236   000000                     _CCP1CONbits	set	4029
   237   000000                     _PIR1bits	set	3998
   238   000000                     _ANSELHbits	set	3967
   239   000000                     _PORTE	set	3972
   240   000000                     _PORTD	set	3971
   241   000000                     _PORTC	set	3970
   242   000000                     _PORTB	set	3969
   243   000000                     _PORTA	set	3968
   244   000000                     _LATA	set	3977
   245   000000                     _TRISA	set	3986
   246   000000                     _EEDATA	set	4008
   247   000000                     _EEADR	set	4009
   248   000000                     _EEADRH	set	4010
   249   000000                     _PIR2bits	set	4001
   250   000000                     _T3CONbits	set	4017
   251   000000                     _EEPGD	set	32055
   252   000000                     _LATE	set	3981
   253   000000                     _LATD	set	3980
   254   000000                     _LATC	set	3979
   255   000000                     _LATB	set	3978
   256   000000                     _TMR2	set	4044
   257   000000                     _T2CONbits	set	4042
   258   000000                     _T1CONbits	set	4045
   259   000000                     _T0CONbits	set	4053
   260   000000                     _INTCON3bits	set	4080
   261   000000                     _SSPBUF	set	4041
   262   00100D                     STR_4:
   263   00100D  41                 	db	65	;'A'
   264   00100E  4C                 	db	76	;'L'
   265   00100F  45                 	db	69	;'E'
   266   001010  52                 	db	82	;'R'
   267   001011  54                 	db	84	;'T'
   268   001012  21                 	db	33
   269   001013  20                 	db	32
   270   001014  20                 	db	32
   271   001015  20                 	db	32
   272   001016  20                 	db	32
   273   001017  20                 	db	32
   274   001018  20                 	db	32
   275   001019  20                 	db	32
   276   00101A  20                 	db	32
   277   00101B  00                 	db	0
   278   00101C                     STR_5:
   279   00101C  53                 	db	83	;'S'
   280   00101D  79                 	db	121	;'y'
   281   00101E  73                 	db	115	;'s'
   282   00101F  74                 	db	116	;'t'
   283   001020  65                 	db	101	;'e'
   284   001021  6D                 	db	109	;'m'
   285   001022  20                 	db	32
   286   001023  4E                 	db	78	;'N'
   287   001024  6F                 	db	111	;'o'
   288   001025  72                 	db	114	;'r'
   289   001026  6D                 	db	109	;'m'
   290   001027  61                 	db	97	;'a'
   291   001028  6C                 	db	108	;'l'
   292   001029  21                 	db	33
   293   00102A  00                 	db	0
   294   00102B  25                 	db	37
   295   00102C  6C                 	db	108	;'l'
   296   00102D  75                 	db	117	;'u'
   297   00102E  00                 	db	0
   298   00102F                     STR_1:
   299   00102F  25                 	db	37
   300   001030  75                 	db	117	;'u'
   301   001031  00                 	db	0
   302   001032  00                 	db	0	; dummy byte at the end
   303   000000                     
   304                           ; #config settings
   305                           
   306                           	psect	cinit
   307   00236E                     __pcinit:
   308                           	callstack 0
   309   00236E                     start_initialization:
   310                           	callstack 0
   311   00236E                     __initialization:
   312                           	callstack 0
   313                           
   314                           ; Initialize objects allocated to BANK0 (52 bytes)
   315                           ; load TBLPTR registers with __pidataBANK0
   316   00236E  0E6E               	movlw	low __pidataBANK0
   317   002370  6EF6               	movwf	tblptrl,c
   318   002372  0E25               	movlw	high __pidataBANK0
   319   002374  6EF7               	movwf	tblptrh,c
   320   002376  0E00               	movlw	low (__pidataBANK0 shr (0+16))
   321   002378  6EF8               	movwf	tblptru,c
   322   00237A  EE00  F0AD         	lfsr	0,__pdataBANK0
   323   00237E  EE10 F034          	lfsr	1,52
   324   002382                     copy_data0:
   325   002382  0009               	tblrd		*+
   326   002384  CFF5 FFEE          	movff	tablat,postinc0
   327   002388  50E5               	movf	postdec1,w,c
   328   00238A  50E1               	movf	fsr1l,w,c
   329   00238C  E1FA               	bnz	copy_data0
   330                           
   331                           ; Initialize objects allocated to COMRAM (6 bytes)
   332                           ; load TBLPTR registers with __pidataCOMRAM
   333   00238E  0EEE               	movlw	low __pidataCOMRAM
   334   002390  6EF6               	movwf	tblptrl,c
   335   002392  0E26               	movlw	high __pidataCOMRAM
   336   002394  6EF7               	movwf	tblptrh,c
   337   002396  0E00               	movlw	low (__pidataCOMRAM shr (0+16))
   338   002398  6EF8               	movwf	tblptru,c
   339   00239A  EE00  F056         	lfsr	0,__pdataCOMRAM
   340   00239E  EE10 F006          	lfsr	1,6
   341   0023A2                     copy_data1:
   342   0023A2  0009               	tblrd		*+
   343   0023A4  CFF5 FFEE          	movff	tablat,postinc0
   344   0023A8  50E5               	movf	postdec1,w,c
   345   0023AA  50E1               	movf	fsr1l,w,c
   346   0023AC  E1FA               	bnz	copy_data1
   347                           
   348                           ; Clear objects allocated to BANK0 (77 bytes)
   349   0023AE  EE00  F060         	lfsr	0,__pbssBANK0
   350   0023B2  0E4D               	movlw	77
   351   0023B4                     clear_0:
   352   0023B4  6AEE               	clrf	postinc0,c
   353   0023B6  06E8               	decf	wreg,f,c
   354   0023B8  E1FD               	bnz	clear_0
   355                           
   356                           ; Clear objects allocated to COMRAM (14 bytes)
   357   0023BA  EE00  F048         	lfsr	0,__pbssCOMRAM
   358   0023BE  0E0E               	movlw	14
   359   0023C0                     clear_1:
   360   0023C0  6AEE               	clrf	postinc0,c
   361   0023C2  06E8               	decf	wreg,f,c
   362   0023C4  E1FD               	bnz	clear_1
   363   0023C6                     end_of_initialization:
   364                           	callstack 0
   365   0023C6                     __end_of__initialization:
   366                           	callstack 0
   367   0023C6  905C               	bcf	int$flags,0,c	;clear compiler interrupt flag (level 1)
   368   0023C8  925C               	bcf	int$flags,1,c	;clear compiler interrupt flag (level 2)
   369   0023CA  0100               	movlb	0
   370   0023CC  EFC5  F00F         	goto	_main	;jump to C main() function
   371                           
   372                           	psect	bssCOMRAM
   373   000048                     __pbssCOMRAM:
   374                           	callstack 0
   375   000048                     _I2C_Default_Interrupt_Handler:
   376                           	callstack 0
   377   000048                     	ds	2
   378   00004A                     _ADC_Interrupt_Handler:
   379                           	callstack 0
   380   00004A                     	ds	2
   381   00004C                     _str:
   382                           	callstack 0
   383   00004C                     	ds	1
   384   00004D                     _Rec_TC74_Temp_Val:
   385                           	callstack 0
   386   00004D                     	ds	1
   387   00004E                     _timer2_preload_val:
   388                           	callstack 0
   389   00004E                     	ds	1
   390   00004F                     relay_turn_off@F3314:
   391                           	callstack 0
   392   00004F                     	ds	1
   393   000050                     relay_turn_on@F3309:
   394                           	callstack 0
   395   000050                     	ds	1
   396   000051                     relay_initialization@F3304:
   397                           	callstack 0
   398   000051                     	ds	1
   399   000052                     led_toggle@F3325:
   400                           	callstack 0
   401   000052                     	ds	1
   402   000053                     led_turn_off@F3320:
   403                           	callstack 0
   404   000053                     	ds	1
   405   000054                     led_turn_on@F3315:
   406                           	callstack 0
   407   000054                     	ds	1
   408   000055                     led_initialization@F3310:
   409                           	callstack 0
   410   000055                     	ds	1
   411                           
   412                           	psect	dataCOMRAM
   413   000056                     __pdataCOMRAM:
   414                           	callstack 0
   415   000056                     _ret:
   416                           	callstack 0
   417   000056                     	ds	1
   418   000057                     _motor2:
   419                           	callstack 0
   420   000057                     	ds	2
   421   000059                     _motor1:
   422                           	callstack 0
   423   000059                     	ds	2
   424   00005B                     _relay1:
   425                           	callstack 0
   426   00005B                     	ds	1
   427                           
   428                           	psect	bssBANK0
   429   000060                     __pbssBANK0:
   430                           	callstack 0
   431   000060                     	ds	11
   432   00006B                     	ds	6
   433   000071                     	ds	4
   434   000075                     _timer3_preload_val:
   435                           	callstack 0
   436   000075                     	ds	2
   437   000077                     _Timer3_InterruptHandler:
   438                           	callstack 0
   439   000077                     	ds	2
   440   000079                     _Timer2_InterruptHandler:
   441                           	callstack 0
   442   000079                     	ds	2
   443   00007B                     _timer1_preload_val:
   444                           	callstack 0
   445   00007B                     	ds	2
   446   00007D                     _Timer1_InterruptHandler:
   447                           	callstack 0
   448   00007D                     	ds	2
   449   00007F                     _timer0_preload_val:
   450                           	callstack 0
   451   00007F                     	ds	2
   452   000081                     _Timer0_InterruptHandler:
   453                           	callstack 0
   454   000081                     	ds	2
   455   000083                     _RB7_InterruptHandlerHigh:
   456                           	callstack 0
   457   000083                     	ds	2
   458   000085                     _RB7_InterruptHandlerLow:
   459                           	callstack 0
   460   000085                     	ds	2
   461   000087                     _RB6_InterruptHandlerHigh:
   462                           	callstack 0
   463   000087                     	ds	2
   464   000089                     _RB6_InterruptHandlerLow:
   465                           	callstack 0
   466   000089                     	ds	2
   467   00008B                     _RB5_InterruptHandlerHigh:
   468                           	callstack 0
   469   00008B                     	ds	2
   470   00008D                     _RB5_InterruptHandlerLow:
   471                           	callstack 0
   472   00008D                     	ds	2
   473   00008F                     _RB4_InterruptHandlerHigh:
   474                           	callstack 0
   475   00008F                     	ds	2
   476   000091                     _RB4_InterruptHandlerLow:
   477                           	callstack 0
   478   000091                     	ds	2
   479   000093                     _INT2_InterruptHandler:
   480                           	callstack 0
   481   000093                     	ds	2
   482   000095                     _INT1_InterruptHandler:
   483                           	callstack 0
   484   000095                     	ds	2
   485   000097                     _INT0_InterruptHandler:
   486                           	callstack 0
   487   000097                     	ds	2
   488   000099                     _I2C_Report_Recieve_Overflow_Interrupt_Handler:
   489                           	callstack 0
   490   000099                     	ds	2
   491   00009B                     _I2C_Report_Write_Collision_Interrupt_Handler:
   492                           	callstack 0
   493   00009B                     	ds	2
   494   00009D                     _EUSART_OverrunError_Handler:
   495                           	callstack 0
   496   00009D                     	ds	2
   497   00009F                     _EUSART_FramingError_Handler:
   498                           	callstack 0
   499   00009F                     	ds	2
   500   0000A1                     _EUSART_RX_Interrupt_Handler:
   501                           	callstack 0
   502   0000A1                     	ds	2
   503   0000A3                     _EUSART_TX_Interrupt_Handler:
   504                           	callstack 0
   505   0000A3                     	ds	2
   506   0000A5                     CCP_CompareSetValue@F3382:
   507                           	callstack 0
   508   0000A5                     	ds	2
   509   0000A7                     CCP_CaptureDataRead@F3373:
   510                           	callstack 0
   511   0000A7                     	ds	2
   512   0000A9                     _CCP2_Interrupt_Handler:
   513                           	callstack 0
   514   0000A9                     	ds	2
   515   0000AB                     _CCP1_Interrupt_Handler:
   516                           	callstack 0
   517   0000AB                     	ds	2
   518                           
   519                           	psect	dataBANK0
   520   0000AD                     __pdataBANK0:
   521                           	callstack 0
   522   0000AD                     _port_register:
   523                           	callstack 0
   524   0000AD                     	ds	10
   525   0000B7                     _lat_register:
   526                           	callstack 0
   527   0000B7                     	ds	10
   528   0000C1                     _tris_register:
   529                           	callstack 0
   530   0000C1                     	ds	10
   531   0000CB                     _mssp_i2c2:
   532                           	callstack 0
   533   0000CB                     	ds	16
   534   0000DB                     _lcd_1:
   535                           	callstack 0
   536   0000DB                     	ds	6
   537                           
   538                           	psect	cstackBANK0
   539   0000E1                     __pcstackBANK0:
   540                           	callstack 0
   541   0000E1                     ??_main:
   542                           
   543                           ; 1 bytes @ 0x0
   544   0000E1                     	ds	2
   545                           
   546                           	psect	cstackCOMRAM
   547   000001                     __pcstackCOMRAM:
   548                           	callstack 0
   549   000001                     ??_InterruptManager:
   550   000001                     
   551                           ; 2 bytes @ 0x0
   552   000001                     	ds	2
   553   000003                     ?___xxtofl:
   554                           	callstack 0
   555   000003                     gpio_pin_direction_initializion@pin_config:
   556                           	callstack 0
   557   000003                     gpio_pin_write_logic@pin_config:
   558                           	callstack 0
   559   000003                     I2C_Slave_Mode_Config@i2c_obj:
   560                           	callstack 0
   561   000003                     MSSP_I2C_Interrupt_config@i2c_obj:
   562                           	callstack 0
   563   000003                     ___xxtofl@val:
   564                           	callstack 0
   565                           
   566                           ; 4 bytes @ 0x2
   567   000003                     	ds	1
   568   000004                     ??_gpio_pin_direction_initializion:
   569   000004                     ??_I2C_Slave_Mode_Config:
   570   000004                     gpio_pin_write_logic@logic:
   571                           	callstack 0
   572                           
   573                           ; 1 bytes @ 0x3
   574   000004                     	ds	1
   575   000005                     ??_gpio_pin_write_logic:
   576                           
   577                           ; 1 bytes @ 0x4
   578   000005                     	ds	2
   579   000007                     ??___xxtofl:
   580                           
   581                           ; 1 bytes @ 0x6
   582   000007                     	ds	2
   583   000009                     gpio_pin_direction_initializion@ret:
   584                           	callstack 0
   585                           
   586                           ; 1 bytes @ 0x8
   587   000009                     	ds	1
   588   00000A                     gpio_pin_write_logic@ret:
   589                           	callstack 0
   590                           
   591                           ; 1 bytes @ 0x9
   592   00000A                     	ds	1
   593   00000B                     lcd_send_4bit@lcd:
   594                           	callstack 0
   595   00000B                     lcd_4bit_send_enable_signal@lcd:
   596                           	callstack 0
   597   00000B                     motor_move_forward@motor:
   598                           	callstack 0
   599   00000B                     motor_move_backward@motor:
   600                           	callstack 0
   601   00000B                     motor_stop@motor:
   602                           	callstack 0
   603   00000B                     relay_turn_on@relay:
   604                           	callstack 0
   605   00000B                     relay_turn_off@relay:
   606                           	callstack 0
   607   00000B                     gpio_pin_initialization@pin_config:
   608                           	callstack 0
   609   00000B                     ___xxtofl@sign:
   610                           	callstack 0
   611                           
   612                           ; 1 bytes @ 0xA
   613   00000B                     	ds	1
   614   00000C                     ??_gpio_pin_initialization:
   615   00000C                     ??_relay_turn_on:
   616   00000C                     ??_relay_turn_off:
   617   00000C                     lcd_send_4bit@_command:
   618                           	callstack 0
   619   00000C                     lcd_4bit_send_enable_signal@ret:
   620                           	callstack 0
   621   00000C                     ___xxtofl@exp:
   622                           	callstack 0
   623                           
   624                           ; 1 bytes @ 0xB
   625   00000C                     	ds	1
   626   00000D                     lcd_send_4bit@ret:
   627                           	callstack 0
   628   00000D                     relay_turn_on@pin_obj:
   629                           	callstack 0
   630   00000D                     relay_turn_off@pin_obj:
   631                           	callstack 0
   632   00000D                     gpio_pin_initialization@ret:
   633                           	callstack 0
   634   00000D                     ___xxtofl@arg:
   635                           	callstack 0
   636                           
   637                           ; 4 bytes @ 0xC
   638   00000D                     	ds	1
   639   00000E                     lcd_4bit_send_command@lcd:
   640                           	callstack 0
   641   00000E                     lcd_4bit_send_char_data@lcd:
   642                           	callstack 0
   643   00000E                     motor_initialization@motor:
   644                           	callstack 0
   645   00000E                     relay_initialization@relay:
   646                           	callstack 0
   647                           
   648                           ; 1 bytes @ 0xD
   649   00000E                     	ds	1
   650   00000F                     ??_relay_initialization:
   651   00000F                     lcd_4bit_send_command@command:
   652                           	callstack 0
   653   00000F                     lcd_4bit_send_char_data@data:
   654                           	callstack 0
   655                           
   656                           ; 1 bytes @ 0xE
   657   00000F                     	ds	1
   658   000010                     lcd_4bit_send_command@ret:
   659                           	callstack 0
   660   000010                     lcd_4bit_send_char_data@ret:
   661                           	callstack 0
   662   000010                     relay_initialization@pin_obj:
   663                           	callstack 0
   664                           
   665                           ; 1 bytes @ 0xF
   666   000010                     	ds	1
   667   000011                     ?___fldiv:
   668                           	callstack 0
   669   000011                     lcd_4bit_initialize@lcd:
   670                           	callstack 0
   671   000011                     lcd_4bit_set_cusrsor@lcd:
   672                           	callstack 0
   673   000011                     ___fldiv@b:
   674                           	callstack 0
   675                           
   676                           ; 4 bytes @ 0x10
   677   000011                     	ds	1
   678   000012                     ??_lcd_4bit_initialize:
   679   000012                     lcd_4bit_set_cusrsor@row:
   680                           	callstack 0
   681                           
   682                           ; 1 bytes @ 0x11
   683   000012                     	ds	1
   684   000013                     lcd_4bit_set_cusrsor@col:
   685                           	callstack 0
   686                           
   687                           ; 1 bytes @ 0x12
   688   000013                     	ds	1
   689   000014                     lcd_4bit_initialize@ret:
   690                           	callstack 0
   691   000014                     lcd_4bit_set_cusrsor@ret:
   692                           	callstack 0
   693                           
   694                           ; 1 bytes @ 0x13
   695   000014                     	ds	1
   696   000015                     lcd_4bit_initialize@l_counter:
   697                           	callstack 0
   698   000015                     lcd_4bit_send_char_string_pos@lcd:
   699                           	callstack 0
   700   000015                     ___fldiv@a:
   701                           	callstack 0
   702                           
   703                           ; 4 bytes @ 0x14
   704   000015                     	ds	1
   705   000016                     lcd_4bit_send_char_string_pos@row:
   706                           	callstack 0
   707                           
   708                           ; 1 bytes @ 0x15
   709   000016                     	ds	1
   710   000017                     lcd_4bit_send_char_string_pos@col:
   711                           	callstack 0
   712                           
   713                           ; 1 bytes @ 0x16
   714   000017                     	ds	1
   715   000018                     lcd_4bit_send_char_string_pos@str:
   716                           	callstack 0
   717                           
   718                           ; 1 bytes @ 0x17
   719   000018                     	ds	1
   720   000019                     ??___fldiv:
   721   000019                     
   722                           ; 1 bytes @ 0x18
   723   000019                     	ds	4
   724   00001D                     ___fldiv@rem:
   725                           	callstack 0
   726                           
   727                           ; 4 bytes @ 0x1C
   728   00001D                     	ds	4
   729   000021                     ___fldiv@sign:
   730                           	callstack 0
   731                           
   732                           ; 1 bytes @ 0x20
   733   000021                     	ds	1
   734   000022                     ___fldiv@new_exp:
   735                           	callstack 0
   736                           
   737                           ; 2 bytes @ 0x21
   738   000022                     	ds	2
   739   000024                     ___fldiv@grs:
   740                           	callstack 0
   741                           
   742                           ; 4 bytes @ 0x23
   743   000024                     	ds	4
   744   000028                     ___fldiv@bexp:
   745                           	callstack 0
   746                           
   747                           ; 1 bytes @ 0x27
   748   000028                     	ds	1
   749   000029                     ___fldiv@aexp:
   750                           	callstack 0
   751                           
   752                           ; 1 bytes @ 0x28
   753   000029                     	ds	1
   754   00002A                     ?___fladd:
   755                           	callstack 0
   756   00002A                     ___fladd@b:
   757                           	callstack 0
   758                           
   759                           ; 4 bytes @ 0x29
   760   00002A                     	ds	4
   761   00002E                     ___fladd@a:
   762                           	callstack 0
   763                           
   764                           ; 4 bytes @ 0x2D
   765   00002E                     	ds	4
   766   000032                     ??___fladd:
   767                           
   768                           ; 1 bytes @ 0x31
   769   000032                     	ds	4
   770   000036                     ___fladd@signs:
   771                           	callstack 0
   772                           
   773                           ; 1 bytes @ 0x35
   774   000036                     	ds	1
   775   000037                     ___fladd@aexp:
   776                           	callstack 0
   777                           
   778                           ; 1 bytes @ 0x36
   779   000037                     	ds	1
   780   000038                     ___fladd@bexp:
   781                           	callstack 0
   782                           
   783                           ; 1 bytes @ 0x37
   784   000038                     	ds	1
   785   000039                     ___fladd@grs:
   786                           	callstack 0
   787                           
   788                           ; 1 bytes @ 0x38
   789   000039                     	ds	1
   790   00003A                     ?___fltol:
   791                           	callstack 0
   792   00003A                     ___fltol@f1:
   793                           	callstack 0
   794                           
   795                           ; 4 bytes @ 0x39
   796   00003A                     	ds	4
   797   00003E                     ??___fltol:
   798                           
   799                           ; 1 bytes @ 0x3D
   800   00003E                     	ds	4
   801   000042                     ___fltol@sign1:
   802                           	callstack 0
   803                           
   804                           ; 1 bytes @ 0x41
   805   000042                     	ds	1
   806   000043                     ___fltol@exp1:
   807                           	callstack 0
   808                           
   809                           ; 1 bytes @ 0x42
   810   000043                     	ds	1
   811   000044                     I2C_MASTER_MODE_CLOCK_CONFIG@i2c_obj:
   812                           	callstack 0
   813                           
   814                           ; 1 bytes @ 0x43
   815   000044                     	ds	1
   816   000045                     ??_I2C_MASTER_MODE_CLOCK_CONFIG:
   817                           
   818                           ; 1 bytes @ 0x44
   819   000045                     	ds	1
   820   000046                     MSSP_I2C_Init@i2c_obj:
   821                           	callstack 0
   822                           
   823                           ; 1 bytes @ 0x45
   824   000046                     	ds	1
   825   000047                     
   826                           ; 1 bytes @ 0x46
   827   000047                     	ds	1
   828   000048                     
   829                           ; 1 bytes @ 0x47
   830 ;;
   831 ;;Main: autosize = 0, tempsize = 2, incstack = 0, save=0
   832 ;;
   833 ;; *************** function _main *****************
   834 ;; Defined at:
   835 ;;		line 16 in file "application.c"
   836 ;; Parameters:    Size  Location     Type
   837 ;;		None
   838 ;; Auto vars:     Size  Location     Type
   839 ;;		None
   840 ;; Return value:  Size  Location     Type
   841 ;;                  2  1673[None  ] int 
   842 ;; Registers used:
   843 ;;		wreg, fsr2l, fsr2h, status,2, status,0, tblptrl, tblptrh, tblptru, prodl, prodh, cstack
   844 ;; Tracked objects:
   845 ;;		On entry : 0/0
   846 ;;		On exit  : 0/0
   847 ;;		Unchanged: 0/0
   848 ;; Data sizes:     COMRAM   BANK0   BANK1   BANK2   BANK3   BANK4   BANK5   BANK6   BANK7   BANK8   BANK9  BANK10  BANK1
      +1  BANK12  BANK13  BANK14  BANK15
   849 ;;      Params:         0       0       0       0       0       0       0       0       0       0       0       0       
      +0       0       0       0       0
   850 ;;      Locals:         0       0       0       0       0       0       0       0       0       0       0       0       
      +0       0       0       0       0
   851 ;;      Temps:          0       2       0       0       0       0       0       0       0       0       0       0       
      +0       0       0       0       0
   852 ;;      Totals:         0       2       0       0       0       0       0       0       0       0       0       0       
      +0       0       0       0       0
   853 ;;Total ram usage:        2 bytes
   854 ;; Hardware stack levels required when called: 9
   855 ;; This function calls:
   856 ;;		_application_initialize
   857 ;;		_lcd_4bit_send_char_string_pos
   858 ;;		_motor_move_backward
   859 ;;		_motor_move_forward
   860 ;;		_motor_stop
   861 ;;		_relay_turn_off
   862 ;;		_relay_turn_on
   863 ;; This function is called by:
   864 ;;		Startup code after reset
   865 ;; This function uses a non-reentrant model
   866 ;;
   867                           
   868                           	psect	text0
   869   001F8A                     __ptext0:
   870                           	callstack 0
   871   001F8A                     _main:
   872                           	callstack 22
   873   001F8A                     
   874                           ;application.c: 17:     application_initialize();
   875   001F8A  EC70  F013         	call	_application_initialize	;wreg free
   876   001F8E                     l7542:
   877                           
   878                           ;application.c: 20:         if (Rec_TC74_Temp_Val >= 45) {
   879   001F8E  0E2C               	movlw	44
   880   001F90  644D               	cpfsgt	_Rec_TC74_Temp_Val^0,c
   881   001F92  EFCD  F00F         	goto	u6791
   882   001F96  EFCF  F00F         	goto	u6790
   883   001F9A                     u6791:
   884   001F9A  EFE7  F00F         	goto	l7548
   885   001F9E                     u6790:
   886   001F9E                     
   887                           ;application.c: 21:             motor_stop(&motor1);
   888   001F9E  0E59               	movlw	low _motor1
   889   001FA0  6E0B               	movwf	motor_stop@motor^0,c
   890   001FA2  ECD1  F012         	call	_motor_stop	;wreg free
   891                           
   892                           ;application.c: 22:             motor_stop(&motor2);
   893   001FA6  0E57               	movlw	low _motor2
   894   001FA8  6E0B               	movwf	motor_stop@motor^0,c
   895   001FAA  ECD1  F012         	call	_motor_stop	;wreg free
   896                           
   897                           ;application.c: 23:             relay_turn_on(&relay1);
   898   001FAE  0E5B               	movlw	low _relay1
   899   001FB0  6E0B               	movwf	relay_turn_on@relay^0,c
   900   001FB2  ECE8  F010         	call	_relay_turn_on	;wreg free
   901   001FB6                     
   902                           ;application.c: 24:             lcd_4bit_send_char_string_pos(&lcd_1, 1, 1, "ALERT!     
      +                             ");
   903   001FB6  0EDB               	movlw	low _lcd_1
   904   001FB8  6E15               	movwf	lcd_4bit_send_char_string_pos@lcd^0,c
   905   001FBA  0E01               	movlw	1
   906   001FBC  6E16               	movwf	lcd_4bit_send_char_string_pos@row^0,c
   907   001FBE  0E01               	movlw	1
   908   001FC0  6E17               	movwf	lcd_4bit_send_char_string_pos@col^0,c
   909   001FC2  0E0D               	movlw	low STR_4
   910   001FC4  6E18               	movwf	lcd_4bit_send_char_string_pos@str^0,c
   911   001FC6  EC78  F010         	call	_lcd_4bit_send_char_string_pos	;wreg free
   912                           
   913                           ;application.c: 25:         } else if (Rec_TC74_Temp_Val > 35) {
   914   001FCA  EF1D  F010         	goto	l7558
   915   001FCE                     l7548:
   916   001FCE  0E23               	movlw	35
   917   001FD0  644D               	cpfsgt	_Rec_TC74_Temp_Val^0,c
   918   001FD2  EFED  F00F         	goto	u6801
   919   001FD6  EFEF  F00F         	goto	u6800
   920   001FDA                     u6801:
   921   001FDA  EF07  F010         	goto	l7554
   922   001FDE                     u6800:
   923   001FDE                     
   924                           ;application.c: 26:             motor_move_forward(&motor1);
   925   001FDE  0E59               	movlw	low _motor1
   926   001FE0  6E0B               	movwf	motor_move_forward@motor^0,c
   927   001FE2  ECE8  F012         	call	_motor_move_forward	;wreg free
   928                           
   929                           ;application.c: 27:             motor_move_forward(&motor2);
   930   001FE6  0E57               	movlw	low _motor2
   931   001FE8  6E0B               	movwf	motor_move_forward@motor^0,c
   932   001FEA  ECE8  F012         	call	_motor_move_forward	;wreg free
   933                           
   934                           ;application.c: 28:             relay_turn_off(&relay1);
   935   001FEE  0E5B               	movlw	low _relay1
   936   001FF0  6E0B               	movwf	relay_turn_off@relay^0,c
   937   001FF2  EC1D  F011         	call	_relay_turn_off	;wreg free
   938   001FF6                     
   939                           ;application.c: 29:             lcd_4bit_send_char_string_pos(&lcd_1, 1, 1, "System Norm
      +                          al!");
   940   001FF6  0EDB               	movlw	low _lcd_1
   941   001FF8  6E15               	movwf	lcd_4bit_send_char_string_pos@lcd^0,c
   942   001FFA  0E01               	movlw	1
   943   001FFC  6E16               	movwf	lcd_4bit_send_char_string_pos@row^0,c
   944   001FFE  0E01               	movlw	1
   945   002000  6E17               	movwf	lcd_4bit_send_char_string_pos@col^0,c
   946   002002  0E1C               	movlw	low STR_5
   947   002004  6E18               	movwf	lcd_4bit_send_char_string_pos@str^0,c
   948   002006  EC78  F010         	call	_lcd_4bit_send_char_string_pos	;wreg free
   949                           
   950                           ;application.c: 30:         } else {
   951   00200A  EF1D  F010         	goto	l7558
   952   00200E                     l7554:
   953                           
   954                           ;application.c: 31:             motor_move_backward(&motor1);
   955   00200E  0E59               	movlw	low _motor1
   956   002010  6E0B               	movwf	motor_move_backward@motor^0,c
   957   002012  ECFF  F012         	call	_motor_move_backward	;wreg free
   958                           
   959                           ;application.c: 32:             motor_move_backward(&motor2);
   960   002016  0E57               	movlw	low _motor2
   961   002018  6E0B               	movwf	motor_move_backward@motor^0,c
   962   00201A  ECFF  F012         	call	_motor_move_backward	;wreg free
   963                           
   964                           ;application.c: 33:             relay_turn_off(&relay1);
   965   00201E  0E5B               	movlw	low _relay1
   966   002020  6E0B               	movwf	relay_turn_off@relay^0,c
   967   002022  EC1D  F011         	call	_relay_turn_off	;wreg free
   968   002026                     
   969                           ;application.c: 34:             lcd_4bit_send_char_string_pos(&lcd_1, 1, 1, "System Norm
      +                          al!");
   970   002026  0EDB               	movlw	low _lcd_1
   971   002028  6E15               	movwf	lcd_4bit_send_char_string_pos@lcd^0,c
   972   00202A  0E01               	movlw	1
   973   00202C  6E16               	movwf	lcd_4bit_send_char_string_pos@row^0,c
   974   00202E  0E01               	movlw	1
   975   002030  6E17               	movwf	lcd_4bit_send_char_string_pos@col^0,c
   976   002032  0E1C               	movlw	low STR_5
   977   002034  6E18               	movwf	lcd_4bit_send_char_string_pos@str^0,c
   978   002036  EC78  F010         	call	_lcd_4bit_send_char_string_pos	;wreg free
   979   00203A                     l7558:
   980                           
   981                           ;application.c: 36:         _delay((unsigned long)((100)*(16000000UL/4000.0)));
   982   00203A  0E03               	movlw	3
   983   00203C  0100               	movlb	0	; () banked
   984   00203E  6FE2               	movwf	(??_main+1)& (0+255),b
   985   002040  0E08               	movlw	8
   986   002042  6FE1               	movwf	??_main& (0+255),b
   987   002044  0E77               	movlw	119
   988   002046                     u6817:
   989   002046  2EE8               	decfsz	wreg,f,c
   990   002048  D7FE               	bra	u6817
   991   00204A  2FE1               	decfsz	??_main& (0+255),f,b
   992   00204C  D7FC               	bra	u6817
   993   00204E  2FE2               	decfsz	(??_main+1)& (0+255),f,b
   994   002050  D7FA               	bra	u6817
   995   002052  EFC7  F00F         	goto	l7542
   996   002056  EF8F  F000         	goto	start
   997   00205A                     __end_of_main:
   998                           	callstack 0
   999                           
  1000 ;; *************** function _relay_turn_on *****************
  1001 ;; Defined at:
  1002 ;;		line 36 in file "ECU_Layer/relay/ecu_relay.c"
  1003 ;; Parameters:    Size  Location     Type
  1004 ;;  relay           1   10[COMRAM] PTR const struct .
  1005 ;;		 -> relay1(1), 
  1006 ;; Auto vars:     Size  Location     Type
  1007 ;;  pin_obj         1   12[COMRAM] struct .
  1008 ;;  ret             1    0        unsigned char 
  1009 ;; Return value:  Size  Location     Type
  1010 ;;                  1    wreg      unsigned char 
  1011 ;; Registers used:
  1012 ;;		wreg, fsr2l, fsr2h, status,2, status,0, prodl, prodh, cstack
  1013 ;; Tracked objects:
  1014 ;;		On entry : 0/0
  1015 ;;		On exit  : 0/0
  1016 ;;		Unchanged: 0/0
  1017 ;; Data sizes:     COMRAM   BANK0   BANK1   BANK2   BANK3   BANK4   BANK5   BANK6   BANK7   BANK8   BANK9  BANK10  BANK1
      +1  BANK12  BANK13  BANK14  BANK15
  1018 ;;      Params:         1       0       0       0       0       0       0       0       0       0       0       0       
      +0       0       0       0       0
  1019 ;;      Locals:         1       0       0       0       0       0       0       0       0       0       0       0       
      +0       0       0       0       0
  1020 ;;      Temps:          1       0       0       0       0       0       0       0       0       0       0       0       
      +0       0       0       0       0
  1021 ;;      Totals:         3       0       0       0       0       0       0       0       0       0       0       0       
      +0       0       0       0       0
  1022 ;;Total ram usage:        3 bytes
  1023 ;; Hardware stack levels used: 1
  1024 ;; Hardware stack levels required when called: 4
  1025 ;; This function calls:
  1026 ;;		_gpio_pin_write_logic
  1027 ;; This function is called by:
  1028 ;;		_main
  1029 ;; This function uses a non-reentrant model
  1030 ;;
  1031                           
  1032                           	psect	text1
  1033   0021D0                     __ptext1:
  1034                           	callstack 0
  1035   0021D0                     _relay_turn_on:
  1036                           	callstack 26
  1037   0021D0                     
  1038                           ;ECU_Layer/relay/ecu_relay.c: 38:     if (((void*)0) == relay) {
  1039   0021D0  500B               	movf	relay_turn_on@relay^0,w,c
  1040   0021D2  A4D8               	btfss	status,2,c
  1041   0021D4  EFEE  F010         	goto	u5191
  1042   0021D8  EFF0  F010         	goto	u5190
  1043   0021DC                     u5191:
  1044   0021DC  EFF2  F010         	goto	l335
  1045   0021E0                     u5190:
  1046   0021E0                     
  1047                           ;ECU_Layer/relay/ecu_relay.c: 40:     } else {
  1048   0021E0  EF1C  F011         	goto	l339
  1049   0021E4                     l335:
  1050                           
  1051                           ;ECU_Layer/relay/ecu_relay.c: 41:         pin_config_t pin_obj = {
  1052   0021E4  C050  F00D         	movff	relay_turn_on@F3309,relay_turn_on@pin_obj
  1053   0021E8  500B               	movf	relay_turn_on@relay^0,w,c
  1054   0021EA  6ED9               	movwf	fsr2l,c
  1055   0021EC  6ADA               	clrf	fsr2h,c
  1056   0021EE  50DF               	movf	223,w,c
  1057   0021F0  0B0F               	andlw	15
  1058   0021F2  6E0C               	movwf	??_relay_turn_on^0,c
  1059   0021F4  500D               	movf	relay_turn_on@pin_obj^0,w,c
  1060   0021F6  180C               	xorwf	??_relay_turn_on^0,w,c
  1061   0021F8  0BF8               	andlw	-8
  1062   0021FA  180C               	xorwf	??_relay_turn_on^0,w,c
  1063   0021FC  6E0D               	movwf	relay_turn_on@pin_obj^0,c
  1064   0021FE  500B               	movf	relay_turn_on@relay^0,w,c
  1065   002200  6ED9               	movwf	fsr2l,c
  1066   002202  6ADA               	clrf	fsr2h,c
  1067   002204  38DF               	swapf	223,w,c
  1068   002206  0B07               	andlw	7
  1069   002208  6E0C               	movwf	??_relay_turn_on^0,c
  1070   00220A  460C               	rlncf	??_relay_turn_on^0,f,c
  1071   00220C  460C               	rlncf	??_relay_turn_on^0,f,c
  1072   00220E  460C               	rlncf	??_relay_turn_on^0,f,c
  1073   002210  500D               	movf	relay_turn_on@pin_obj^0,w,c
  1074   002212  180C               	xorwf	??_relay_turn_on^0,w,c
  1075   002214  0BC7               	andlw	-57
  1076   002216  180C               	xorwf	??_relay_turn_on^0,w,c
  1077   002218  6E0D               	movwf	relay_turn_on@pin_obj^0,c
  1078   00221A  9C0D               	bcf	relay_turn_on@pin_obj^0,6,c
  1079   00221C  500B               	movf	relay_turn_on@relay^0,w,c
  1080   00221E  6ED9               	movwf	fsr2l,c
  1081   002220  6ADA               	clrf	fsr2h,c
  1082   002222  AEDF               	btfss	indf2,7,c
  1083   002224  D002               	bra	u5205
  1084   002226  8E0D               	bsf	relay_turn_on@pin_obj^0,7,c
  1085   002228  D001               	bra	u5207
  1086   00222A                     u5205:
  1087   00222A  9E0D               	bcf	relay_turn_on@pin_obj^0,7,c
  1088   00222C                     u5207:
  1089   00222C                     
  1090                           ;ECU_Layer/relay/ecu_relay.c: 47:         gpio_pin_write_logic(&pin_obj, GPIO_HIGH);
  1091   00222C  0E0D               	movlw	low relay_turn_on@pin_obj
  1092   00222E  6E03               	movwf	gpio_pin_write_logic@pin_config^0,c
  1093   002230  0E01               	movlw	1
  1094   002232  6E04               	movwf	gpio_pin_write_logic@logic^0,c
  1095   002234  EC3F  F00E         	call	_gpio_pin_write_logic	;wreg free
  1096   002238                     l339:
  1097   002238  0012               	return		;funcret
  1098   00223A                     __end_of_relay_turn_on:
  1099                           	callstack 0
  1100                           
  1101 ;; *************** function _relay_turn_off *****************
  1102 ;; Defined at:
  1103 ;;		line 57 in file "ECU_Layer/relay/ecu_relay.c"
  1104 ;; Parameters:    Size  Location     Type
  1105 ;;  relay           1   10[COMRAM] PTR const struct .
  1106 ;;		 -> relay1(1), 
  1107 ;; Auto vars:     Size  Location     Type
  1108 ;;  pin_obj         1   12[COMRAM] struct .
  1109 ;;  ret             1    0        unsigned char 
  1110 ;; Return value:  Size  Location     Type
  1111 ;;                  1    wreg      unsigned char 
  1112 ;; Registers used:
  1113 ;;		wreg, fsr2l, fsr2h, status,2, status,0, prodl, prodh, cstack
  1114 ;; Tracked objects:
  1115 ;;		On entry : 0/0
  1116 ;;		On exit  : 0/0
  1117 ;;		Unchanged: 0/0
  1118 ;; Data sizes:     COMRAM   BANK0   BANK1   BANK2   BANK3   BANK4   BANK5   BANK6   BANK7   BANK8   BANK9  BANK10  BANK1
      +1  BANK12  BANK13  BANK14  BANK15
  1119 ;;      Params:         1       0       0       0       0       0       0       0       0       0       0       0       
      +0       0       0       0       0
  1120 ;;      Locals:         1       0       0       0       0       0       0       0       0       0       0       0       
      +0       0       0       0       0
  1121 ;;      Temps:          1       0       0       0       0       0       0       0       0       0       0       0       
      +0       0       0       0       0
  1122 ;;      Totals:         3       0       0       0       0       0       0       0       0       0       0       0       
      +0       0       0       0       0
  1123 ;;Total ram usage:        3 bytes
  1124 ;; Hardware stack levels used: 1
  1125 ;; Hardware stack levels required when called: 4
  1126 ;; This function calls:
  1127 ;;		_gpio_pin_write_logic
  1128 ;; This function is called by:
  1129 ;;		_main
  1130 ;; This function uses a non-reentrant model
  1131 ;;
  1132                           
  1133                           	psect	text2
  1134   00223A                     __ptext2:
  1135                           	callstack 0
  1136   00223A                     _relay_turn_off:
  1137                           	callstack 26
  1138   00223A                     
  1139                           ;ECU_Layer/relay/ecu_relay.c: 59:     if (((void*)0) == relay) {
  1140   00223A  500B               	movf	relay_turn_off@relay^0,w,c
  1141   00223C  A4D8               	btfss	status,2,c
  1142   00223E  EF23  F011         	goto	u5211
  1143   002242  EF25  F011         	goto	u5210
  1144   002246                     u5211:
  1145   002246  EF27  F011         	goto	l342
  1146   00224A                     u5210:
  1147   00224A                     
  1148                           ;ECU_Layer/relay/ecu_relay.c: 61:     } else {
  1149   00224A  EF51  F011         	goto	l346
  1150   00224E                     l342:
  1151                           
  1152                           ;ECU_Layer/relay/ecu_relay.c: 62:         pin_config_t pin_obj = {
  1153   00224E  C04F  F00D         	movff	relay_turn_off@F3314,relay_turn_off@pin_obj
  1154   002252  500B               	movf	relay_turn_off@relay^0,w,c
  1155   002254  6ED9               	movwf	fsr2l,c
  1156   002256  6ADA               	clrf	fsr2h,c
  1157   002258  50DF               	movf	223,w,c
  1158   00225A  0B0F               	andlw	15
  1159   00225C  6E0C               	movwf	??_relay_turn_off^0,c
  1160   00225E  500D               	movf	relay_turn_off@pin_obj^0,w,c
  1161   002260  180C               	xorwf	??_relay_turn_off^0,w,c
  1162   002262  0BF8               	andlw	-8
  1163   002264  180C               	xorwf	??_relay_turn_off^0,w,c
  1164   002266  6E0D               	movwf	relay_turn_off@pin_obj^0,c
  1165   002268  500B               	movf	relay_turn_off@relay^0,w,c
  1166   00226A  6ED9               	movwf	fsr2l,c
  1167   00226C  6ADA               	clrf	fsr2h,c
  1168   00226E  38DF               	swapf	223,w,c
  1169   002270  0B07               	andlw	7
  1170   002272  6E0C               	movwf	??_relay_turn_off^0,c
  1171   002274  460C               	rlncf	??_relay_turn_off^0,f,c
  1172   002276  460C               	rlncf	??_relay_turn_off^0,f,c
  1173   002278  460C               	rlncf	??_relay_turn_off^0,f,c
  1174   00227A  500D               	movf	relay_turn_off@pin_obj^0,w,c
  1175   00227C  180C               	xorwf	??_relay_turn_off^0,w,c
  1176   00227E  0BC7               	andlw	-57
  1177   002280  180C               	xorwf	??_relay_turn_off^0,w,c
  1178   002282  6E0D               	movwf	relay_turn_off@pin_obj^0,c
  1179   002284  9C0D               	bcf	relay_turn_off@pin_obj^0,6,c
  1180   002286  500B               	movf	relay_turn_off@relay^0,w,c
  1181   002288  6ED9               	movwf	fsr2l,c
  1182   00228A  6ADA               	clrf	fsr2h,c
  1183   00228C  AEDF               	btfss	indf2,7,c
  1184   00228E  D002               	bra	u5225
  1185   002290  8E0D               	bsf	relay_turn_off@pin_obj^0,7,c
  1186   002292  D001               	bra	u5227
  1187   002294                     u5225:
  1188   002294  9E0D               	bcf	relay_turn_off@pin_obj^0,7,c
  1189   002296                     u5227:
  1190   002296                     
  1191                           ;ECU_Layer/relay/ecu_relay.c: 68:         gpio_pin_write_logic(&pin_obj, GPIO_LOW);
  1192   002296  0E0D               	movlw	low relay_turn_off@pin_obj
  1193   002298  6E03               	movwf	gpio_pin_write_logic@pin_config^0,c
  1194   00229A  0E00               	movlw	0
  1195   00229C  6E04               	movwf	gpio_pin_write_logic@logic^0,c
  1196   00229E  EC3F  F00E         	call	_gpio_pin_write_logic	;wreg free
  1197   0022A2                     l346:
  1198   0022A2  0012               	return		;funcret
  1199   0022A4                     __end_of_relay_turn_off:
  1200                           	callstack 0
  1201                           
  1202 ;; *************** function _motor_stop *****************
  1203 ;; Defined at:
  1204 ;;		line 63 in file "ECU_Layer/motor/ecu_motor.c"
  1205 ;; Parameters:    Size  Location     Type
  1206 ;;  motor           1   10[COMRAM] PTR const struct .
  1207 ;;		 -> motor2(2), motor1(2), 
  1208 ;; Auto vars:     Size  Location     Type
  1209 ;;  ret             1    0        unsigned char 
  1210 ;; Return value:  Size  Location     Type
  1211 ;;                  1    wreg      unsigned char 
  1212 ;; Registers used:
  1213 ;;		wreg, fsr2l, fsr2h, status,2, status,0, prodl, prodh, cstack
  1214 ;; Tracked objects:
  1215 ;;		On entry : 0/0
  1216 ;;		On exit  : 0/0
  1217 ;;		Unchanged: 0/0
  1218 ;; Data sizes:     COMRAM   BANK0   BANK1   BANK2   BANK3   BANK4   BANK5   BANK6   BANK7   BANK8   BANK9  BANK10  BANK1
      +1  BANK12  BANK13  BANK14  BANK15
  1219 ;;      Params:         1       0       0       0       0       0       0       0       0       0       0       0       
      +0       0       0       0       0
  1220 ;;      Locals:         0       0       0       0       0       0       0       0       0       0       0       0       
      +0       0       0       0       0
  1221 ;;      Temps:          0       0       0       0       0       0       0       0       0       0       0       0       
      +0       0       0       0       0
  1222 ;;      Totals:         1       0       0       0       0       0       0       0       0       0       0       0       
      +0       0       0       0       0
  1223 ;;Total ram usage:        1 bytes
  1224 ;; Hardware stack levels used: 1
  1225 ;; Hardware stack levels required when called: 4
  1226 ;; This function calls:
  1227 ;;		_gpio_pin_write_logic
  1228 ;; This function is called by:
  1229 ;;		_main
  1230 ;; This function uses a non-reentrant model
  1231 ;;
  1232                           
  1233                           	psect	text3
  1234   0025A2                     __ptext3:
  1235                           	callstack 0
  1236   0025A2                     _motor_stop:
  1237                           	callstack 26
  1238   0025A2                     
  1239                           ;ECU_Layer/motor/ecu_motor.c: 65:     if (((void*)0) == motor) {
  1240   0025A2  500B               	movf	motor_stop@motor^0,w,c
  1241   0025A4  A4D8               	btfss	status,2,c
  1242   0025A6  EFD7  F012         	goto	u5181
  1243   0025AA  EFD9  F012         	goto	u5180
  1244   0025AE                     u5181:
  1245   0025AE  EFDB  F012         	goto	l6188
  1246   0025B2                     u5180:
  1247   0025B2                     
  1248                           ;ECU_Layer/motor/ecu_motor.c: 67:     } else {
  1249   0025B2  EFE7  F012         	goto	l321
  1250   0025B6                     l6188:
  1251                           
  1252                           ;ECU_Layer/motor/ecu_motor.c: 68:         gpio_pin_write_logic(&(motor->motor[0]), GPIO_
      +                          LOW);
  1253   0025B6  C00B  F003         	movff	motor_stop@motor,gpio_pin_write_logic@pin_config
  1254   0025BA  0E00               	movlw	0
  1255   0025BC  6E04               	movwf	gpio_pin_write_logic@logic^0,c
  1256   0025BE  EC3F  F00E         	call	_gpio_pin_write_logic	;wreg free
  1257                           
  1258                           ;ECU_Layer/motor/ecu_motor.c: 69:         gpio_pin_write_logic(&(motor->motor[1]), GPIO_
      +                          LOW);
  1259   0025C2  280B               	incf	motor_stop@motor^0,w,c
  1260   0025C4  6E03               	movwf	gpio_pin_write_logic@pin_config^0,c
  1261   0025C6  0E00               	movlw	0
  1262   0025C8  6E04               	movwf	gpio_pin_write_logic@logic^0,c
  1263   0025CA  EC3F  F00E         	call	_gpio_pin_write_logic	;wreg free
  1264   0025CE                     l321:
  1265   0025CE  0012               	return		;funcret
  1266   0025D0                     __end_of_motor_stop:
  1267                           	callstack 0
  1268                           
  1269 ;; *************** function _motor_move_forward *****************
  1270 ;; Defined at:
  1271 ;;		line 31 in file "ECU_Layer/motor/ecu_motor.c"
  1272 ;; Parameters:    Size  Location     Type
  1273 ;;  motor           1   10[COMRAM] PTR const struct .
  1274 ;;		 -> motor2(2), motor1(2), 
  1275 ;; Auto vars:     Size  Location     Type
  1276 ;;  ret             1    0        unsigned char 
  1277 ;; Return value:  Size  Location     Type
  1278 ;;                  1    wreg      unsigned char 
  1279 ;; Registers used:
  1280 ;;		wreg, fsr2l, fsr2h, status,2, status,0, prodl, prodh, cstack
  1281 ;; Tracked objects:
  1282 ;;		On entry : 0/0
  1283 ;;		On exit  : 0/0
  1284 ;;		Unchanged: 0/0
  1285 ;; Data sizes:     COMRAM   BANK0   BANK1   BANK2   BANK3   BANK4   BANK5   BANK6   BANK7   BANK8   BANK9  BANK10  BANK1
      +1  BANK12  BANK13  BANK14  BANK15
  1286 ;;      Params:         1       0       0       0       0       0       0       0       0       0       0       0       
      +0       0       0       0       0
  1287 ;;      Locals:         0       0       0       0       0       0       0       0       0       0       0       0       
      +0       0       0       0       0
  1288 ;;      Temps:          0       0       0       0       0       0       0       0       0       0       0       0       
      +0       0       0       0       0
  1289 ;;      Totals:         1       0       0       0       0       0       0       0       0       0       0       0       
      +0       0       0       0       0
  1290 ;;Total ram usage:        1 bytes
  1291 ;; Hardware stack levels used: 1
  1292 ;; Hardware stack levels required when called: 4
  1293 ;; This function calls:
  1294 ;;		_gpio_pin_write_logic
  1295 ;; This function is called by:
  1296 ;;		_main
  1297 ;; This function uses a non-reentrant model
  1298 ;;
  1299                           
  1300                           	psect	text4
  1301   0025D0                     __ptext4:
  1302                           	callstack 0
  1303   0025D0                     _motor_move_forward:
  1304                           	callstack 26
  1305   0025D0                     
  1306                           ;ECU_Layer/motor/ecu_motor.c: 33:     if (((void*)0) == motor) {
  1307   0025D0  500B               	movf	motor_move_forward@motor^0,w,c
  1308   0025D2  A4D8               	btfss	status,2,c
  1309   0025D4  EFEE  F012         	goto	u5161
  1310   0025D8  EFF0  F012         	goto	u5160
  1311   0025DC                     u5161:
  1312   0025DC  EFF2  F012         	goto	l6172
  1313   0025E0                     u5160:
  1314   0025E0                     
  1315                           ;ECU_Layer/motor/ecu_motor.c: 35:     } else {
  1316   0025E0  EFFE  F012         	goto	l311
  1317   0025E4                     l6172:
  1318                           
  1319                           ;ECU_Layer/motor/ecu_motor.c: 36:         gpio_pin_write_logic(&(motor->motor[0]), GPIO_
      +                          HIGH);
  1320   0025E4  C00B  F003         	movff	motor_move_forward@motor,gpio_pin_write_logic@pin_config
  1321   0025E8  0E01               	movlw	1
  1322   0025EA  6E04               	movwf	gpio_pin_write_logic@logic^0,c
  1323   0025EC  EC3F  F00E         	call	_gpio_pin_write_logic	;wreg free
  1324                           
  1325                           ;ECU_Layer/motor/ecu_motor.c: 37:         gpio_pin_write_logic(&(motor->motor[1]), GPIO_
      +                          LOW);
  1326   0025F0  280B               	incf	motor_move_forward@motor^0,w,c
  1327   0025F2  6E03               	movwf	gpio_pin_write_logic@pin_config^0,c
  1328   0025F4  0E00               	movlw	0
  1329   0025F6  6E04               	movwf	gpio_pin_write_logic@logic^0,c
  1330   0025F8  EC3F  F00E         	call	_gpio_pin_write_logic	;wreg free
  1331   0025FC                     l311:
  1332   0025FC  0012               	return		;funcret
  1333   0025FE                     __end_of_motor_move_forward:
  1334                           	callstack 0
  1335                           
  1336 ;; *************** function _motor_move_backward *****************
  1337 ;; Defined at:
  1338 ;;		line 47 in file "ECU_Layer/motor/ecu_motor.c"
  1339 ;; Parameters:    Size  Location     Type
  1340 ;;  motor           1   10[COMRAM] PTR const struct .
  1341 ;;		 -> motor2(2), motor1(2), 
  1342 ;; Auto vars:     Size  Location     Type
  1343 ;;  ret             1    0        unsigned char 
  1344 ;; Return value:  Size  Location     Type
  1345 ;;                  1    wreg      unsigned char 
  1346 ;; Registers used:
  1347 ;;		wreg, fsr2l, fsr2h, status,2, status,0, prodl, prodh, cstack
  1348 ;; Tracked objects:
  1349 ;;		On entry : 0/0
  1350 ;;		On exit  : 0/0
  1351 ;;		Unchanged: 0/0
  1352 ;; Data sizes:     COMRAM   BANK0   BANK1   BANK2   BANK3   BANK4   BANK5   BANK6   BANK7   BANK8   BANK9  BANK10  BANK1
      +1  BANK12  BANK13  BANK14  BANK15
  1353 ;;      Params:         1       0       0       0       0       0       0       0       0       0       0       0       
      +0       0       0       0       0
  1354 ;;      Locals:         0       0       0       0       0       0       0       0       0       0       0       0       
      +0       0       0       0       0
  1355 ;;      Temps:          0       0       0       0       0       0       0       0       0       0       0       0       
      +0       0       0       0       0
  1356 ;;      Totals:         1       0       0       0       0       0       0       0       0       0       0       0       
      +0       0       0       0       0
  1357 ;;Total ram usage:        1 bytes
  1358 ;; Hardware stack levels used: 1
  1359 ;; Hardware stack levels required when called: 4
  1360 ;; This function calls:
  1361 ;;		_gpio_pin_write_logic
  1362 ;; This function is called by:
  1363 ;;		_main
  1364 ;; This function uses a non-reentrant model
  1365 ;;
  1366                           
  1367                           	psect	text5
  1368   0025FE                     __ptext5:
  1369                           	callstack 0
  1370   0025FE                     _motor_move_backward:
  1371                           	callstack 26
  1372   0025FE                     
  1373                           ;ECU_Layer/motor/ecu_motor.c: 49:     if (((void*)0) == motor) {
  1374   0025FE  500B               	movf	motor_move_backward@motor^0,w,c
  1375   002600  A4D8               	btfss	status,2,c
  1376   002602  EF05  F013         	goto	u5171
  1377   002606  EF07  F013         	goto	u5170
  1378   00260A                     u5171:
  1379   00260A  EF09  F013         	goto	l6180
  1380   00260E                     u5170:
  1381   00260E                     
  1382                           ;ECU_Layer/motor/ecu_motor.c: 51:     } else {
  1383   00260E  EF15  F013         	goto	l316
  1384   002612                     l6180:
  1385                           
  1386                           ;ECU_Layer/motor/ecu_motor.c: 52:         gpio_pin_write_logic(&(motor->motor[0]), GPIO_
      +                          LOW);
  1387   002612  C00B  F003         	movff	motor_move_backward@motor,gpio_pin_write_logic@pin_config
  1388   002616  0E00               	movlw	0
  1389   002618  6E04               	movwf	gpio_pin_write_logic@logic^0,c
  1390   00261A  EC3F  F00E         	call	_gpio_pin_write_logic	;wreg free
  1391                           
  1392                           ;ECU_Layer/motor/ecu_motor.c: 53:         gpio_pin_write_logic(&(motor->motor[1]), GPIO_
      +                          HIGH);
  1393   00261E  280B               	incf	motor_move_backward@motor^0,w,c
  1394   002620  6E03               	movwf	gpio_pin_write_logic@pin_config^0,c
  1395   002622  0E01               	movlw	1
  1396   002624  6E04               	movwf	gpio_pin_write_logic@logic^0,c
  1397   002626  EC3F  F00E         	call	_gpio_pin_write_logic	;wreg free
  1398   00262A                     l316:
  1399   00262A  0012               	return		;funcret
  1400   00262C                     __end_of_motor_move_backward:
  1401                           	callstack 0
  1402                           
  1403 ;; *************** function _lcd_4bit_send_char_string_pos *****************
  1404 ;; Defined at:
  1405 ;;		line 100 in file "ECU_Layer/chr_lcd/chr_lcd.c"
  1406 ;; Parameters:    Size  Location     Type
  1407 ;;  lcd             1   20[COMRAM] PTR const struct .
  1408 ;;		 -> lcd_1(6), 
  1409 ;;  row             1   21[COMRAM] unsigned char 
  1410 ;;  col             1   22[COMRAM] unsigned char 
  1411 ;;  str             1   23[COMRAM] PTR unsigned char 
  1412 ;;		 -> STR_6(15), STR_5(15), STR_4(15), 
  1413 ;; Auto vars:     Size  Location     Type
  1414 ;;  ret             1    0        unsigned char 
  1415 ;; Return value:  Size  Location     Type
  1416 ;;                  1    wreg      unsigned char 
  1417 ;; Registers used:
  1418 ;;		wreg, fsr2l, fsr2h, status,2, status,0, tblptrl, tblptrh, tblptru, prodl, prodh, cstack
  1419 ;; Tracked objects:
  1420 ;;		On entry : 0/0
  1421 ;;		On exit  : 0/0
  1422 ;;		Unchanged: 0/0
  1423 ;; Data sizes:     COMRAM   BANK0   BANK1   BANK2   BANK3   BANK4   BANK5   BANK6   BANK7   BANK8   BANK9  BANK10  BANK1
      +1  BANK12  BANK13  BANK14  BANK15
  1424 ;;      Params:         4       0       0       0       0       0       0       0       0       0       0       0       
      +0       0       0       0       0
  1425 ;;      Locals:         0       0       0       0       0       0       0       0       0       0       0       0       
      +0       0       0       0       0
  1426 ;;      Temps:          0       0       0       0       0       0       0       0       0       0       0       0       
      +0       0       0       0       0
  1427 ;;      Totals:         4       0       0       0       0       0       0       0       0       0       0       0       
      +0       0       0       0       0
  1428 ;;Total ram usage:        4 bytes
  1429 ;; Hardware stack levels used: 1
  1430 ;; Hardware stack levels required when called: 7
  1431 ;; This function calls:
  1432 ;;		_lcd_4bit_send_char_data
  1433 ;;		_lcd_4bit_set_cusrsor
  1434 ;; This function is called by:
  1435 ;;		_main
  1436 ;; This function uses a non-reentrant model
  1437 ;;
  1438                           
  1439                           	psect	text6
  1440   0020F0                     __ptext6:
  1441                           	callstack 0
  1442   0020F0                     _lcd_4bit_send_char_string_pos:
  1443                           	callstack 23
  1444   0020F0                     
  1445                           ;ECU_Layer/chr_lcd/chr_lcd.c: 102:     if ((((void*)0) == lcd) || (((void*)0) == str)) {
  1446   0020F0  5015               	movf	lcd_4bit_send_char_string_pos@lcd^0,w,c
  1447   0020F2  B4D8               	btfsc	status,2,c
  1448   0020F4  EF7E  F010         	goto	u5091
  1449   0020F8  EF80  F010         	goto	u5090
  1450   0020FC                     u5091:
  1451   0020FC  EF88  F010         	goto	l6120
  1452   002100                     u5090:
  1453   002100  5018               	movf	lcd_4bit_send_char_string_pos@str^0,w,c
  1454   002102  A4D8               	btfss	status,2,c
  1455   002104  EF86  F010         	goto	u5101
  1456   002108  EF88  F010         	goto	u5100
  1457   00210C                     u5101:
  1458   00210C  EF8A  F010         	goto	l6122
  1459   002110                     u5100:
  1460   002110                     l6120:
  1461                           
  1462                           ;ECU_Layer/chr_lcd/chr_lcd.c: 104:     } else {
  1463   002110  EFB0  F010         	goto	l101
  1464   002114                     l6122:
  1465   002114  C015  F011         	movff	lcd_4bit_send_char_string_pos@lcd,lcd_4bit_set_cusrsor@lcd
  1466   002118  C016  F012         	movff	lcd_4bit_send_char_string_pos@row,lcd_4bit_set_cusrsor@row
  1467   00211C  C017  F013         	movff	lcd_4bit_send_char_string_pos@col,lcd_4bit_set_cusrsor@col
  1468   002120  EC85  F011         	call	_lcd_4bit_set_cusrsor	;wreg free
  1469                           
  1470                           ;ECU_Layer/chr_lcd/chr_lcd.c: 106:         while (*str) {
  1471   002124  EFA1  F010         	goto	l6128
  1472   002128                     l6124:
  1473   002128  C015  F00E         	movff	lcd_4bit_send_char_string_pos@lcd,lcd_4bit_send_char_data@lcd
  1474   00212C  C018  FFF6         	movff	lcd_4bit_send_char_string_pos@str,tblptrl
  1475   002130                     	if	1	;There is more than 1 active tblptr byte
  1476   002130  0E10               	movlw	high __smallconst
  1477   002132  6EF7               	movwf	tblptrh,c
  1478   002134                     	endif
  1479   002134                     	if	1	;Program memory is < 0x10000, tblptru is always zero
  1480   002134  6AF8               	clrf	tblptru,c
  1481   002136                     	endif
  1482   002136                     	if	0	;tblptru may be non-zero
  1483   002136                     	endif
  1484   002136  0008               	tblrd		*
  1485   002138  CFF5 F00F          	movff	tablat,lcd_4bit_send_char_data@data
  1486   00213C  EC47  F012         	call	_lcd_4bit_send_char_data	;wreg free
  1487   002140  2A18               	incf	lcd_4bit_send_char_string_pos@str^0,f,c
  1488   002142                     l6128:
  1489                           
  1490                           ;ECU_Layer/chr_lcd/chr_lcd.c: 106:         while (*str) {
  1491   002142  C018  FFF6         	movff	lcd_4bit_send_char_string_pos@str,tblptrl
  1492   002146                     	if	1	;There is more than 1 active tblptr byte
  1493   002146  0E10               	movlw	high __smallconst
  1494   002148  6EF7               	movwf	tblptrh,c
  1495   00214A                     	endif
  1496   00214A                     	if	1	;Program memory is < 0x10000, tblptru is always zero
  1497   00214A  6AF8               	clrf	tblptru,c
  1498   00214C                     	endif
  1499   00214C                     	if	0	;tblptru may be non-zero
  1500   00214C                     	endif
  1501   00214C  0008               	tblrd		*
  1502   00214E  50F5               	movf	tablat,w,c
  1503   002150  0900               	iorlw	0
  1504   002152  A4D8               	btfss	status,2,c
  1505   002154  EFAE  F010         	goto	u5111
  1506   002158  EFB0  F010         	goto	u5110
  1507   00215C                     u5111:
  1508   00215C  EF94  F010         	goto	l6124
  1509   002160                     u5110:
  1510   002160                     l101:
  1511   002160  0012               	return		;funcret
  1512   002162                     __end_of_lcd_4bit_send_char_string_pos:
  1513                           	callstack 0
  1514                           
  1515 ;; *************** function _lcd_4bit_set_cusrsor *****************
  1516 ;; Defined at:
  1517 ;;		line 338 in file "ECU_Layer/chr_lcd/chr_lcd.c"
  1518 ;; Parameters:    Size  Location     Type
  1519 ;;  lcd             1   16[COMRAM] PTR const struct .
  1520 ;;		 -> lcd_1(6), 
  1521 ;;  row             1   17[COMRAM] unsigned char 
  1522 ;;  col             1   18[COMRAM] unsigned char 
  1523 ;; Auto vars:     Size  Location     Type
  1524 ;;  ret             1   19[COMRAM] unsigned char 
  1525 ;; Return value:  Size  Location     Type
  1526 ;;                  1    wreg      unsigned char 
  1527 ;; Registers used:
  1528 ;;		wreg, fsr2l, fsr2h, status,2, status,0, prodl, prodh, cstack
  1529 ;; Tracked objects:
  1530 ;;		On entry : 0/0
  1531 ;;		On exit  : 0/0
  1532 ;;		Unchanged: 0/0
  1533 ;; Data sizes:     COMRAM   BANK0   BANK1   BANK2   BANK3   BANK4   BANK5   BANK6   BANK7   BANK8   BANK9  BANK10  BANK1
      +1  BANK12  BANK13  BANK14  BANK15
  1534 ;;      Params:         3       0       0       0       0       0       0       0       0       0       0       0       
      +0       0       0       0       0
  1535 ;;      Locals:         1       0       0       0       0       0       0       0       0       0       0       0       
      +0       0       0       0       0
  1536 ;;      Temps:          0       0       0       0       0       0       0       0       0       0       0       0       
      +0       0       0       0       0
  1537 ;;      Totals:         4       0       0       0       0       0       0       0       0       0       0       0       
      +0       0       0       0       0
  1538 ;;Total ram usage:        4 bytes
  1539 ;; Hardware stack levels used: 1
  1540 ;; Hardware stack levels required when called: 6
  1541 ;; This function calls:
  1542 ;;		_lcd_4bit_send_command
  1543 ;; This function is called by:
  1544 ;;		_lcd_4bit_send_char_string_pos
  1545 ;;		_lcd_4bit_send_char_data_pos
  1546 ;; This function uses a non-reentrant model
  1547 ;;
  1548                           
  1549                           	psect	text7
  1550   00230A                     __ptext7:
  1551                           	callstack 0
  1552   00230A                     _lcd_4bit_set_cusrsor:
  1553                           	callstack 23
  1554   00230A                     
  1555                           ;ECU_Layer/chr_lcd/chr_lcd.c: 339:     STD_ReturnType ret = (STD_ReturnType)0x00;
  1556   00230A  0E00               	movlw	0
  1557   00230C  6E14               	movwf	lcd_4bit_set_cusrsor@ret^0,c
  1558                           
  1559                           ;ECU_Layer/chr_lcd/chr_lcd.c: 340:     if (((void*)0) == lcd) {
  1560   00230E  5011               	movf	lcd_4bit_set_cusrsor@lcd^0,w,c
  1561   002310  A4D8               	btfss	status,2,c
  1562   002312  EF8D  F011         	goto	u4941
  1563   002316  EF8F  F011         	goto	u4940
  1564   00231A                     u4941:
  1565   00231A  EF93  F011         	goto	l5998
  1566   00231E                     u4940:
  1567   00231E                     
  1568                           ;ECU_Layer/chr_lcd/chr_lcd.c: 341:         ret = (STD_ReturnType)0x00;
  1569   00231E  0E00               	movlw	0
  1570   002320  6E14               	movwf	lcd_4bit_set_cusrsor@ret^0,c
  1571                           
  1572                           ;ECU_Layer/chr_lcd/chr_lcd.c: 342:     } else {
  1573   002322  EFB5  F011         	goto	l6008
  1574   002326                     l5998:
  1575                           
  1576                           ;ECU_Layer/chr_lcd/chr_lcd.c: 343:         col--;
  1577   002326  0613               	decf	lcd_4bit_set_cusrsor@col^0,f,c
  1578                           
  1579                           ;ECU_Layer/chr_lcd/chr_lcd.c: 344:         switch (row) {
  1580   002328  EFAA  F011         	goto	l6006
  1581   00232C                     l6000:
  1582                           
  1583                           ;ECU_Layer/chr_lcd/chr_lcd.c: 346:                 ret = lcd_4bit_send_command(lcd, (0x8
      +                          0 + col));
  1584   00232C  C011  F00E         	movff	lcd_4bit_set_cusrsor@lcd,lcd_4bit_send_command@lcd
  1585   002330  5013               	movf	lcd_4bit_set_cusrsor@col^0,w,c
  1586   002332  0F80               	addlw	128
  1587   002334  6E0F               	movwf	lcd_4bit_send_command@command^0,c
  1588   002336  ECE8  F011         	call	_lcd_4bit_send_command	;wreg free
  1589   00233A  6E14               	movwf	lcd_4bit_set_cusrsor@ret^0,c
  1590                           
  1591                           ;ECU_Layer/chr_lcd/chr_lcd.c: 347:                 break;
  1592   00233C  EFB5  F011         	goto	l6008
  1593   002340                     l6002:
  1594                           
  1595                           ;ECU_Layer/chr_lcd/chr_lcd.c: 349:                 ret = lcd_4bit_send_command(lcd, (0xC
      +                          0 + col));
  1596   002340  C011  F00E         	movff	lcd_4bit_set_cusrsor@lcd,lcd_4bit_send_command@lcd
  1597   002344  5013               	movf	lcd_4bit_set_cusrsor@col^0,w,c
  1598   002346  0FC0               	addlw	192
  1599   002348  6E0F               	movwf	lcd_4bit_send_command@command^0,c
  1600   00234A  ECE8  F011         	call	_lcd_4bit_send_command	;wreg free
  1601   00234E  6E14               	movwf	lcd_4bit_set_cusrsor@ret^0,c
  1602                           
  1603                           ;ECU_Layer/chr_lcd/chr_lcd.c: 350:                 break;
  1604   002350  EFB5  F011         	goto	l6008
  1605   002354                     l6006:
  1606   002354  5012               	movf	lcd_4bit_set_cusrsor@row^0,w,c
  1607                           
  1608                           ; Switch size 1, requested type "simple"
  1609                           ; Number of cases is 2, Range of values is 1 to 2
  1610                           ; switch strategies available:
  1611                           ; Name         Instructions Cycles
  1612                           ; simple_byte            7     4 (average)
  1613                           ;	Chosen strategy is simple_byte
  1614   002356  0A01               	xorlw	1	; case 1
  1615   002358  B4D8               	btfsc	status,2,c
  1616   00235A  EF96  F011         	goto	l6000
  1617   00235E  0A03               	xorlw	3	; case 2
  1618   002360  B4D8               	btfsc	status,2,c
  1619   002362  EFA0  F011         	goto	l6002
  1620   002366  EFB5  F011         	goto	l6008
  1621   00236A                     l6008:
  1622                           
  1623                           ;ECU_Layer/chr_lcd/chr_lcd.c: 353:     return ret;
  1624   00236A  5014               	movf	lcd_4bit_set_cusrsor@ret^0,w,c
  1625   00236C  0012               	return		;funcret
  1626   00236E                     __end_of_lcd_4bit_set_cusrsor:
  1627                           	callstack 0
  1628                           
  1629 ;; *************** function _lcd_4bit_send_char_data *****************
  1630 ;; Defined at:
  1631 ;;		line 63 in file "ECU_Layer/chr_lcd/chr_lcd.c"
  1632 ;; Parameters:    Size  Location     Type
  1633 ;;  lcd             1   13[COMRAM] PTR const struct .
  1634 ;;		 -> lcd_1(6), 
  1635 ;;  data            1   14[COMRAM] unsigned char 
  1636 ;; Auto vars:     Size  Location     Type
  1637 ;;  ret             1   15[COMRAM] unsigned char 
  1638 ;; Return value:  Size  Location     Type
  1639 ;;                  1    wreg      unsigned char 
  1640 ;; Registers used:
  1641 ;;		wreg, fsr2l, fsr2h, status,2, status,0, prodl, prodh, cstack
  1642 ;; Tracked objects:
  1643 ;;		On entry : 0/0
  1644 ;;		On exit  : 0/0
  1645 ;;		Unchanged: 0/0
  1646 ;; Data sizes:     COMRAM   BANK0   BANK1   BANK2   BANK3   BANK4   BANK5   BANK6   BANK7   BANK8   BANK9  BANK10  BANK1
      +1  BANK12  BANK13  BANK14  BANK15
  1647 ;;      Params:         2       0       0       0       0       0       0       0       0       0       0       0       
      +0       0       0       0       0
  1648 ;;      Locals:         1       0       0       0       0       0       0       0       0       0       0       0       
      +0       0       0       0       0
  1649 ;;      Temps:          0       0       0       0       0       0       0       0       0       0       0       0       
      +0       0       0       0       0
  1650 ;;      Totals:         3       0       0       0       0       0       0       0       0       0       0       0       
      +0       0       0       0       0
  1651 ;;Total ram usage:        3 bytes
  1652 ;; Hardware stack levels used: 1
  1653 ;; Hardware stack levels required when called: 5
  1654 ;; This function calls:
  1655 ;;		_gpio_pin_write_logic
  1656 ;;		_lcd_4bit_send_enable_signal
  1657 ;;		_lcd_send_4bit
  1658 ;; This function is called by:
  1659 ;;		_lcd_4bit_send_char_string_pos
  1660 ;;		_lcd_4bit_send_char_data_pos
  1661 ;;		_lcd_4bit_send_char_string
  1662 ;;		_lcd_4bit_send_custom_char
  1663 ;; This function uses a non-reentrant model
  1664 ;;
  1665                           
  1666                           	psect	text8
  1667   00248E                     __ptext8:
  1668                           	callstack 0
  1669   00248E                     _lcd_4bit_send_char_data:
  1670                           	callstack 24
  1671   00248E                     
  1672                           ;ECU_Layer/chr_lcd/chr_lcd.c: 65:     if (((void*)0) == lcd) {
  1673   00248E  500E               	movf	lcd_4bit_send_char_data@lcd^0,w,c
  1674   002490  A4D8               	btfss	status,2,c
  1675   002492  EF4D  F012         	goto	u4931
  1676   002496  EF4F  F012         	goto	u4930
  1677   00249A                     u4931:
  1678   00249A  EF53  F012         	goto	l5988
  1679   00249E                     u4930:
  1680   00249E                     
  1681                           ;ECU_Layer/chr_lcd/chr_lcd.c: 66:         ret = (STD_ReturnType)0x00;
  1682   00249E  0E00               	movlw	0
  1683   0024A0  6E10               	movwf	lcd_4bit_send_char_data@ret^0,c
  1684                           
  1685                           ;ECU_Layer/chr_lcd/chr_lcd.c: 67:     } else {
  1686   0024A2  EF73  F012         	goto	l5990
  1687   0024A6                     l5988:
  1688                           
  1689                           ;ECU_Layer/chr_lcd/chr_lcd.c: 68:         ret = gpio_pin_write_logic(&(lcd->lcd_rs), GPI
      +                          O_HIGH);
  1690   0024A6  C00E  F003         	movff	lcd_4bit_send_char_data@lcd,gpio_pin_write_logic@pin_config
  1691   0024AA  0E01               	movlw	1
  1692   0024AC  6E04               	movwf	gpio_pin_write_logic@logic^0,c
  1693   0024AE  EC3F  F00E         	call	_gpio_pin_write_logic	;wreg free
  1694   0024B2  6E10               	movwf	lcd_4bit_send_char_data@ret^0,c
  1695                           
  1696                           ;ECU_Layer/chr_lcd/chr_lcd.c: 69:         ret = lcd_send_4bit(lcd, data >> 4);
  1697   0024B4  C00E  F00B         	movff	lcd_4bit_send_char_data@lcd,lcd_send_4bit@lcd
  1698   0024B8  380F               	swapf	lcd_4bit_send_char_data@data^0,w,c
  1699   0024BA  0B0F               	andlw	15
  1700   0024BC  6E0C               	movwf	lcd_send_4bit@_command^0,c
  1701   0024BE  ECB1  F010         	call	_lcd_send_4bit	;wreg free
  1702   0024C2  6E10               	movwf	lcd_4bit_send_char_data@ret^0,c
  1703                           
  1704                           ;ECU_Layer/chr_lcd/chr_lcd.c: 70:         ret = lcd_4bit_send_enable_signal(lcd);
  1705   0024C4  C00E  F00B         	movff	lcd_4bit_send_char_data@lcd,lcd_4bit_send_enable_signal@lcd
  1706   0024C8  EC97  F012         	call	_lcd_4bit_send_enable_signal	;wreg free
  1707   0024CC  6E10               	movwf	lcd_4bit_send_char_data@ret^0,c
  1708                           
  1709                           ;ECU_Layer/chr_lcd/chr_lcd.c: 71:         ret = lcd_send_4bit(lcd, data);
  1710   0024CE  C00E  F00B         	movff	lcd_4bit_send_char_data@lcd,lcd_send_4bit@lcd
  1711   0024D2  C00F  F00C         	movff	lcd_4bit_send_char_data@data,lcd_send_4bit@_command
  1712   0024D6  ECB1  F010         	call	_lcd_send_4bit	;wreg free
  1713   0024DA  6E10               	movwf	lcd_4bit_send_char_data@ret^0,c
  1714                           
  1715                           ;ECU_Layer/chr_lcd/chr_lcd.c: 72:         ret = lcd_4bit_send_enable_signal(lcd);
  1716   0024DC  C00E  F00B         	movff	lcd_4bit_send_char_data@lcd,lcd_4bit_send_enable_signal@lcd
  1717   0024E0  EC97  F012         	call	_lcd_4bit_send_enable_signal	;wreg free
  1718   0024E4  6E10               	movwf	lcd_4bit_send_char_data@ret^0,c
  1719   0024E6                     l5990:
  1720                           
  1721                           ;ECU_Layer/chr_lcd/chr_lcd.c: 74:     return ret;
  1722   0024E6  5010               	movf	lcd_4bit_send_char_data@ret^0,w,c
  1723   0024E8  0012               	return		;funcret
  1724   0024EA                     __end_of_lcd_4bit_send_char_data:
  1725                           	callstack 0
  1726                           
  1727 ;; *************** function _application_initialize *****************
  1728 ;; Defined at:
  1729 ;;		line 40 in file "application.c"
  1730 ;; Parameters:    Size  Location     Type
  1731 ;;		None
  1732 ;; Auto vars:     Size  Location     Type
  1733 ;;		None
  1734 ;; Return value:  Size  Location     Type
  1735 ;;                  1    wreg      void 
  1736 ;; Registers used:
  1737 ;;		wreg, fsr2l, fsr2h, status,2, status,0, prodl, prodh, cstack
  1738 ;; Tracked objects:
  1739 ;;		On entry : 0/0
  1740 ;;		On exit  : 0/0
  1741 ;;		Unchanged: 0/0
  1742 ;; Data sizes:     COMRAM   BANK0   BANK1   BANK2   BANK3   BANK4   BANK5   BANK6   BANK7   BANK8   BANK9  BANK10  BANK1
      +1  BANK12  BANK13  BANK14  BANK15
  1743 ;;      Params:         0       0       0       0       0       0       0       0       0       0       0       0       
      +0       0       0       0       0
  1744 ;;      Locals:         0       0       0       0       0       0       0       0       0       0       0       0       
      +0       0       0       0       0
  1745 ;;      Temps:          0       0       0       0       0       0       0       0       0       0       0       0       
      +0       0       0       0       0
  1746 ;;      Totals:         0       0       0       0       0       0       0       0       0       0       0       0       
      +0       0       0       0       0
  1747 ;;Total ram usage:        0 bytes
  1748 ;; Hardware stack levels used: 1
  1749 ;; Hardware stack levels required when called: 8
  1750 ;; This function calls:
  1751 ;;		_MSSP_I2C_Init
  1752 ;;		_ecu_layer_initialize
  1753 ;; This function is called by:
  1754 ;;		_main
  1755 ;; This function uses a non-reentrant model
  1756 ;;
  1757                           
  1758                           	psect	text9
  1759   0026E0                     __ptext9:
  1760                           	callstack 0
  1761   0026E0                     _application_initialize:
  1762                           	callstack 22
  1763   0026E0                     
  1764                           ;application.c: 41:     ecu_layer_initialize();
  1765   0026E0  EC52  F013         	call	_ecu_layer_initialize	;wreg free
  1766   0026E4                     
  1767                           ;application.c: 42:     MSSP_I2C_Init(&mssp_i2c2);
  1768   0026E4  0ECB               	movlw	low _mssp_i2c2
  1769   0026E6  6E46               	movwf	MSSP_I2C_Init@i2c_obj^0,c
  1770   0026E8  EC21  F00D         	call	_MSSP_I2C_Init	;wreg free
  1771   0026EC  0012               	return		;funcret
  1772   0026EE                     __end_of_application_initialize:
  1773                           	callstack 0
  1774                           
  1775 ;; *************** function _ecu_layer_initialize *****************
  1776 ;; Defined at:
  1777 ;;		line 182 in file "ECU_Layer/ecu_layer_init.c"
  1778 ;; Parameters:    Size  Location     Type
  1779 ;;		None
  1780 ;; Auto vars:     Size  Location     Type
  1781 ;;		None
  1782 ;; Return value:  Size  Location     Type
  1783 ;;                  1    wreg      void 
  1784 ;; Registers used:
  1785 ;;		wreg, fsr2l, fsr2h, status,2, status,0, prodl, prodh, cstack
  1786 ;; Tracked objects:
  1787 ;;		On entry : 0/0
  1788 ;;		On exit  : 0/0
  1789 ;;		Unchanged: 0/0
  1790 ;; Data sizes:     COMRAM   BANK0   BANK1   BANK2   BANK3   BANK4   BANK5   BANK6   BANK7   BANK8   BANK9  BANK10  BANK1
      +1  BANK12  BANK13  BANK14  BANK15
  1791 ;;      Params:         0       0       0       0       0       0       0       0       0       0       0       0       
      +0       0       0       0       0
  1792 ;;      Locals:         0       0       0       0       0       0       0       0       0       0       0       0       
      +0       0       0       0       0
  1793 ;;      Temps:          0       0       0       0       0       0       0       0       0       0       0       0       
      +0       0       0       0       0
  1794 ;;      Totals:         0       0       0       0       0       0       0       0       0       0       0       0       
      +0       0       0       0       0
  1795 ;;Total ram usage:        0 bytes
  1796 ;; Hardware stack levels used: 1
  1797 ;; Hardware stack levels required when called: 7
  1798 ;; This function calls:
  1799 ;;		_lcd_4bit_initialize
  1800 ;;		_motor_initialization
  1801 ;;		_relay_initialization
  1802 ;; This function is called by:
  1803 ;;		_application_initialize
  1804 ;; This function uses a non-reentrant model
  1805 ;;
  1806                           
  1807                           	psect	text10
  1808   0026A4                     __ptext10:
  1809                           	callstack 0
  1810   0026A4                     _ecu_layer_initialize:
  1811                           	callstack 22
  1812   0026A4                     
  1813                           ;ECU_Layer/ecu_layer_init.c: 184:     relay_initialization(&relay1);
  1814   0026A4  0E5B               	movlw	low _relay1
  1815   0026A6  6E0E               	movwf	relay_initialization@relay^0,c
  1816   0026A8  EC52  F011         	call	_relay_initialization	;wreg free
  1817                           
  1818                           ;ECU_Layer/ecu_layer_init.c: 185:     motor_initialization(&motor1);
  1819   0026AC  0E59               	movlw	low _motor1
  1820   0026AE  6E0E               	movwf	motor_initialization@motor^0,c
  1821   0026B0  EC2D  F013         	call	_motor_initialization	;wreg free
  1822                           
  1823                           ;ECU_Layer/ecu_layer_init.c: 186:     motor_initialization(&motor2);
  1824   0026B4  0E57               	movlw	low _motor2
  1825   0026B6  6E0E               	movwf	motor_initialization@motor^0,c
  1826   0026B8  EC2D  F013         	call	_motor_initialization	;wreg free
  1827                           
  1828                           ;ECU_Layer/ecu_layer_init.c: 191:     lcd_4bit_initialize(&lcd_1);
  1829   0026BC  0EDB               	movlw	low _lcd_1
  1830   0026BE  6E11               	movwf	lcd_4bit_initialize@lcd^0,c
  1831   0026C0  EC4A  F00F         	call	_lcd_4bit_initialize	;wreg free
  1832   0026C4  0012               	return		;funcret
  1833   0026C6                     __end_of_ecu_layer_initialize:
  1834                           	callstack 0
  1835                           
  1836 ;; *************** function _relay_initialization *****************
  1837 ;; Defined at:
  1838 ;;		line 15 in file "ECU_Layer/relay/ecu_relay.c"
  1839 ;; Parameters:    Size  Location     Type
  1840 ;;  relay           1   13[COMRAM] PTR const struct .
  1841 ;;		 -> relay1(1), 
  1842 ;; Auto vars:     Size  Location     Type
  1843 ;;  pin_obj         1   15[COMRAM] struct .
  1844 ;;  ret             1    0        unsigned char 
  1845 ;; Return value:  Size  Location     Type
  1846 ;;                  1    wreg      unsigned char 
  1847 ;; Registers used:
  1848 ;;		wreg, fsr2l, fsr2h, status,2, status,0, prodl, prodh, cstack
  1849 ;; Tracked objects:
  1850 ;;		On entry : 0/0
  1851 ;;		On exit  : 0/0
  1852 ;;		Unchanged: 0/0
  1853 ;; Data sizes:     COMRAM   BANK0   BANK1   BANK2   BANK3   BANK4   BANK5   BANK6   BANK7   BANK8   BANK9  BANK10  BANK1
      +1  BANK12  BANK13  BANK14  BANK15
  1854 ;;      Params:         1       0       0       0       0       0       0       0       0       0       0       0       
      +0       0       0       0       0
  1855 ;;      Locals:         1       0       0       0       0       0       0       0       0       0       0       0       
      +0       0       0       0       0
  1856 ;;      Temps:          1       0       0       0       0       0       0       0       0       0       0       0       
      +0       0       0       0       0
  1857 ;;      Totals:         3       0       0       0       0       0       0       0       0       0       0       0       
      +0       0       0       0       0
  1858 ;;Total ram usage:        3 bytes
  1859 ;; Hardware stack levels used: 1
  1860 ;; Hardware stack levels required when called: 5
  1861 ;; This function calls:
  1862 ;;		_gpio_pin_initialization
  1863 ;; This function is called by:
  1864 ;;		_ecu_layer_initialize
  1865 ;; This function uses a non-reentrant model
  1866 ;;
  1867                           
  1868                           	psect	text11
  1869   0022A4                     __ptext11:
  1870                           	callstack 0
  1871   0022A4                     _relay_initialization:
  1872                           	callstack 23
  1873   0022A4                     
  1874                           ;ECU_Layer/relay/ecu_relay.c: 17:     if (((void*)0) == relay) {
  1875   0022A4  500E               	movf	relay_initialization@relay^0,w,c
  1876   0022A6  A4D8               	btfss	status,2,c
  1877   0022A8  EF58  F011         	goto	u4911
  1878   0022AC  EF5A  F011         	goto	u4910
  1879   0022B0                     u4911:
  1880   0022B0  EF5C  F011         	goto	l328
  1881   0022B4                     u4910:
  1882   0022B4                     
  1883                           ;ECU_Layer/relay/ecu_relay.c: 19:     } else {
  1884   0022B4  EF84  F011         	goto	l332
  1885   0022B8                     l328:
  1886                           
  1887                           ;ECU_Layer/relay/ecu_relay.c: 20:         pin_config_t pin_obj = {
  1888   0022B8  C051  F010         	movff	relay_initialization@F3304,relay_initialization@pin_obj
  1889   0022BC  500E               	movf	relay_initialization@relay^0,w,c
  1890   0022BE  6ED9               	movwf	fsr2l,c
  1891   0022C0  6ADA               	clrf	fsr2h,c
  1892   0022C2  50DF               	movf	223,w,c
  1893   0022C4  0B0F               	andlw	15
  1894   0022C6  6E0F               	movwf	??_relay_initialization^0,c
  1895   0022C8  5010               	movf	relay_initialization@pin_obj^0,w,c
  1896   0022CA  180F               	xorwf	??_relay_initialization^0,w,c
  1897   0022CC  0BF8               	andlw	-8
  1898   0022CE  180F               	xorwf	??_relay_initialization^0,w,c
  1899   0022D0  6E10               	movwf	relay_initialization@pin_obj^0,c
  1900   0022D2  500E               	movf	relay_initialization@relay^0,w,c
  1901   0022D4  6ED9               	movwf	fsr2l,c
  1902   0022D6  6ADA               	clrf	fsr2h,c
  1903   0022D8  38DF               	swapf	223,w,c
  1904   0022DA  0B07               	andlw	7
  1905   0022DC  6E0F               	movwf	??_relay_initialization^0,c
  1906   0022DE  460F               	rlncf	??_relay_initialization^0,f,c
  1907   0022E0  460F               	rlncf	??_relay_initialization^0,f,c
  1908   0022E2  460F               	rlncf	??_relay_initialization^0,f,c
  1909   0022E4  5010               	movf	relay_initialization@pin_obj^0,w,c
  1910   0022E6  180F               	xorwf	??_relay_initialization^0,w,c
  1911   0022E8  0BC7               	andlw	-57
  1912   0022EA  180F               	xorwf	??_relay_initialization^0,w,c
  1913   0022EC  6E10               	movwf	relay_initialization@pin_obj^0,c
  1914   0022EE  9C10               	bcf	relay_initialization@pin_obj^0,6,c
  1915   0022F0  500E               	movf	relay_initialization@relay^0,w,c
  1916   0022F2  6ED9               	movwf	fsr2l,c
  1917   0022F4  6ADA               	clrf	fsr2h,c
  1918   0022F6  AEDF               	btfss	indf2,7,c
  1919   0022F8  D002               	bra	u4925
  1920   0022FA  8E10               	bsf	relay_initialization@pin_obj^0,7,c
  1921   0022FC  D001               	bra	u4927
  1922   0022FE                     u4925:
  1923   0022FE  9E10               	bcf	relay_initialization@pin_obj^0,7,c
  1924   002300                     u4927:
  1925   002300                     
  1926                           ;ECU_Layer/relay/ecu_relay.c: 26:         gpio_pin_initialization(&pin_obj);
  1927   002300  0E10               	movlw	low relay_initialization@pin_obj
  1928   002302  6E0B               	movwf	gpio_pin_initialization@pin_config^0,c
  1929   002304  EC18  F012         	call	_gpio_pin_initialization	;wreg free
  1930   002308                     l332:
  1931   002308  0012               	return		;funcret
  1932   00230A                     __end_of_relay_initialization:
  1933                           	callstack 0
  1934                           
  1935 ;; *************** function _motor_initialization *****************
  1936 ;; Defined at:
  1937 ;;		line 15 in file "ECU_Layer/motor/ecu_motor.c"
  1938 ;; Parameters:    Size  Location     Type
  1939 ;;  motor           1   13[COMRAM] PTR const struct .
  1940 ;;		 -> motor2(2), motor1(2), 
  1941 ;; Auto vars:     Size  Location     Type
  1942 ;;  ret             1    0        unsigned char 
  1943 ;; Return value:  Size  Location     Type
  1944 ;;                  1    wreg      unsigned char 
  1945 ;; Registers used:
  1946 ;;		wreg, fsr2l, fsr2h, status,2, status,0, prodl, prodh, cstack
  1947 ;; Tracked objects:
  1948 ;;		On entry : 0/0
  1949 ;;		On exit  : 0/0
  1950 ;;		Unchanged: 0/0
  1951 ;; Data sizes:     COMRAM   BANK0   BANK1   BANK2   BANK3   BANK4   BANK5   BANK6   BANK7   BANK8   BANK9  BANK10  BANK1
      +1  BANK12  BANK13  BANK14  BANK15
  1952 ;;      Params:         1       0       0       0       0       0       0       0       0       0       0       0       
      +0       0       0       0       0
  1953 ;;      Locals:         0       0       0       0       0       0       0       0       0       0       0       0       
      +0       0       0       0       0
  1954 ;;      Temps:          0       0       0       0       0       0       0       0       0       0       0       0       
      +0       0       0       0       0
  1955 ;;      Totals:         1       0       0       0       0       0       0       0       0       0       0       0       
      +0       0       0       0       0
  1956 ;;Total ram usage:        1 bytes
  1957 ;; Hardware stack levels used: 1
  1958 ;; Hardware stack levels required when called: 5
  1959 ;; This function calls:
  1960 ;;		_gpio_pin_initialization
  1961 ;; This function is called by:
  1962 ;;		_ecu_layer_initialize
  1963 ;; This function uses a non-reentrant model
  1964 ;;
  1965                           
  1966                           	psect	text12
  1967   00265A                     __ptext12:
  1968                           	callstack 0
  1969   00265A                     _motor_initialization:
  1970                           	callstack 23
  1971   00265A                     
  1972                           ;ECU_Layer/motor/ecu_motor.c: 17:     if (((void*)0) == motor) {
  1973   00265A  500E               	movf	motor_initialization@motor^0,w,c
  1974   00265C  A4D8               	btfss	status,2,c
  1975   00265E  EF33  F013         	goto	u4901
  1976   002662  EF35  F013         	goto	u4900
  1977   002666                     u4901:
  1978   002666  EF37  F013         	goto	l5954
  1979   00266A                     u4900:
  1980   00266A                     
  1981                           ;ECU_Layer/motor/ecu_motor.c: 19:     } else {
  1982   00266A  EF3F  F013         	goto	l306
  1983   00266E                     l5954:
  1984                           
  1985                           ;ECU_Layer/motor/ecu_motor.c: 20:         gpio_pin_initialization(&(motor->motor[0]));
  1986   00266E  C00E  F00B         	movff	motor_initialization@motor,gpio_pin_initialization@pin_config
  1987   002672  EC18  F012         	call	_gpio_pin_initialization	;wreg free
  1988                           
  1989                           ;ECU_Layer/motor/ecu_motor.c: 21:         gpio_pin_initialization(&(motor->motor[1]));
  1990   002676  280E               	incf	motor_initialization@motor^0,w,c
  1991   002678  6E0B               	movwf	gpio_pin_initialization@pin_config^0,c
  1992   00267A  EC18  F012         	call	_gpio_pin_initialization	;wreg free
  1993   00267E                     l306:
  1994   00267E  0012               	return		;funcret
  1995   002680                     __end_of_motor_initialization:
  1996                           	callstack 0
  1997                           
  1998 ;; *************** function _lcd_4bit_initialize *****************
  1999 ;; Defined at:
  2000 ;;		line 21 in file "ECU_Layer/chr_lcd/chr_lcd.c"
  2001 ;; Parameters:    Size  Location     Type
  2002 ;;  lcd             1   16[COMRAM] PTR const struct .
  2003 ;;		 -> lcd_1(6), 
  2004 ;; Auto vars:     Size  Location     Type
  2005 ;;  l_counter       1   20[COMRAM] unsigned char 
  2006 ;;  ret             1   19[COMRAM] unsigned char 
  2007 ;; Return value:  Size  Location     Type
  2008 ;;                  1    wreg      unsigned char 
  2009 ;; Registers used:
  2010 ;;		wreg, fsr2l, fsr2h, status,2, status,0, prodl, prodh, cstack
  2011 ;; Tracked objects:
  2012 ;;		On entry : 0/0
  2013 ;;		On exit  : 0/0
  2014 ;;		Unchanged: 0/0
  2015 ;; Data sizes:     COMRAM   BANK0   BANK1   BANK2   BANK3   BANK4   BANK5   BANK6   BANK7   BANK8   BANK9  BANK10  BANK1
      +1  BANK12  BANK13  BANK14  BANK15
  2016 ;;      Params:         1       0       0       0       0       0       0       0       0       0       0       0       
      +0       0       0       0       0
  2017 ;;      Locals:         2       0       0       0       0       0       0       0       0       0       0       0       
      +0       0       0       0       0
  2018 ;;      Temps:          2       0       0       0       0       0       0       0       0       0       0       0       
      +0       0       0       0       0
  2019 ;;      Totals:         5       0       0       0       0       0       0       0       0       0       0       0       
      +0       0       0       0       0
  2020 ;;Total ram usage:        5 bytes
  2021 ;; Hardware stack levels used: 1
  2022 ;; Hardware stack levels required when called: 6
  2023 ;; This function calls:
  2024 ;;		_gpio_pin_initialization
  2025 ;;		_lcd_4bit_send_command
  2026 ;; This function is called by:
  2027 ;;		_ecu_layer_initialize
  2028 ;; This function uses a non-reentrant model
  2029 ;;
  2030                           
  2031                           	psect	text13
  2032   001E94                     __ptext13:
  2033                           	callstack 0
  2034   001E94                     _lcd_4bit_initialize:
  2035                           	callstack 22
  2036   001E94                     
  2037                           ;ECU_Layer/chr_lcd/chr_lcd.c: 23:     uint8 l_counter = 0;
  2038   001E94  0E00               	movlw	0
  2039   001E96  6E15               	movwf	lcd_4bit_initialize@l_counter^0,c
  2040                           
  2041                           ;ECU_Layer/chr_lcd/chr_lcd.c: 24:     if (((void*)0) == lcd) {
  2042   001E98  5011               	movf	lcd_4bit_initialize@lcd^0,w,c
  2043   001E9A  A4D8               	btfss	status,2,c
  2044   001E9C  EF52  F00F         	goto	u4881
  2045   001EA0  EF54  F00F         	goto	u4880
  2046   001EA4                     u4881:
  2047   001EA4  EF56  F00F         	goto	l5912
  2048   001EA8                     u4880:
  2049   001EA8                     
  2050                           ;ECU_Layer/chr_lcd/chr_lcd.c: 26:     } else {
  2051   001EA8  EFC4  F00F         	goto	l66
  2052   001EAC                     l5912:
  2053                           
  2054                           ;ECU_Layer/chr_lcd/chr_lcd.c: 27:         ret = gpio_pin_initialization(&(lcd->lcd_rs));
  2055   001EAC  C011  F00B         	movff	lcd_4bit_initialize@lcd,gpio_pin_initialization@pin_config
  2056   001EB0  EC18  F012         	call	_gpio_pin_initialization	;wreg free
  2057   001EB4  6E14               	movwf	lcd_4bit_initialize@ret^0,c
  2058                           
  2059                           ;ECU_Layer/chr_lcd/chr_lcd.c: 28:         ret = gpio_pin_initialization(&(lcd->lcd_en));
  2060   001EB6  2811               	incf	lcd_4bit_initialize@lcd^0,w,c
  2061   001EB8  6E0B               	movwf	gpio_pin_initialization@pin_config^0,c
  2062   001EBA  EC18  F012         	call	_gpio_pin_initialization	;wreg free
  2063   001EBE  6E14               	movwf	lcd_4bit_initialize@ret^0,c
  2064   001EC0                     
  2065                           ;ECU_Layer/chr_lcd/chr_lcd.c: 29:         for (l_counter = 0; l_counter < 4; l_counter++
      +                          ) {
  2066   001EC0  0E00               	movlw	0
  2067   001EC2  6E15               	movwf	lcd_4bit_initialize@l_counter^0,c
  2068   001EC4                     l5920:
  2069   001EC4  5011               	movf	lcd_4bit_initialize@lcd^0,w,c
  2070   001EC6  2415               	addwf	lcd_4bit_initialize@l_counter^0,w,c
  2071   001EC8  0F02               	addlw	2
  2072   001ECA  6E0B               	movwf	gpio_pin_initialization@pin_config^0,c
  2073   001ECC  EC18  F012         	call	_gpio_pin_initialization	;wreg free
  2074   001ED0                     
  2075                           ;ECU_Layer/chr_lcd/chr_lcd.c: 31:         }
  2076   001ED0  2A15               	incf	lcd_4bit_initialize@l_counter^0,f,c
  2077   001ED2  0E03               	movlw	3
  2078   001ED4  6415               	cpfsgt	lcd_4bit_initialize@l_counter^0,c
  2079   001ED6  EF6F  F00F         	goto	u4891
  2080   001EDA  EF71  F00F         	goto	u4890
  2081   001EDE                     u4891:
  2082   001EDE  EF62  F00F         	goto	l5920
  2083   001EE2                     u4890:
  2084   001EE2                     
  2085                           ;ECU_Layer/chr_lcd/chr_lcd.c: 32:         _delay((unsigned long)((20)*(16000000UL/4000.0
      +                          )));
  2086   001EE2  0E68               	movlw	104
  2087   001EE4  6E12               	movwf	??_lcd_4bit_initialize^0,c
  2088   001EE6  0EE4               	movlw	228
  2089   001EE8                     u6827:
  2090   001EE8  2EE8               	decfsz	wreg,f,c
  2091   001EEA  D7FE               	bra	u6827
  2092   001EEC  2E12               	decfsz	??_lcd_4bit_initialize^0,f,c
  2093   001EEE  D7FC               	bra	u6827
  2094   001EF0  F000 F000          	nop2	
  2095   001EF4  C011  F00E         	movff	lcd_4bit_initialize@lcd,lcd_4bit_send_command@lcd
  2096   001EF8  0E38               	movlw	56
  2097   001EFA  6E0F               	movwf	lcd_4bit_send_command@command^0,c
  2098   001EFC  ECE8  F011         	call	_lcd_4bit_send_command	;wreg free
  2099   001F00                     
  2100                           ;ECU_Layer/chr_lcd/chr_lcd.c: 34:         _delay((unsigned long)((5)*(16000000UL/4000.0)
      +                          ));
  2101   001F00  0E1A               	movlw	26
  2102   001F02  6E12               	movwf	??_lcd_4bit_initialize^0,c
  2103   001F04  0EF8               	movlw	248
  2104   001F06                     u6837:
  2105   001F06  2EE8               	decfsz	wreg,f,c
  2106   001F08  D7FE               	bra	u6837
  2107   001F0A  2E12               	decfsz	??_lcd_4bit_initialize^0,f,c
  2108   001F0C  D7FC               	bra	u6837
  2109   001F0E  F000 F000          	nop2	
  2110   001F12  C011  F00E         	movff	lcd_4bit_initialize@lcd,lcd_4bit_send_command@lcd
  2111   001F16  0E38               	movlw	56
  2112   001F18  6E0F               	movwf	lcd_4bit_send_command@command^0,c
  2113   001F1A  ECE8  F011         	call	_lcd_4bit_send_command	;wreg free
  2114   001F1E                     
  2115                           ;ECU_Layer/chr_lcd/chr_lcd.c: 36:         _delay((unsigned long)((150)*(16000000UL/4000.
      +                          0)));
  2116   001F1E  0E04               	movlw	4
  2117   001F20  6E13               	movwf	(??_lcd_4bit_initialize+1)^0,c
  2118   001F22  0E0C               	movlw	12
  2119   001F24  6E12               	movwf	??_lcd_4bit_initialize^0,c
  2120   001F26  0E34               	movlw	52
  2121   001F28                     u6847:
  2122   001F28  2EE8               	decfsz	wreg,f,c
  2123   001F2A  D7FE               	bra	u6847
  2124   001F2C  2E12               	decfsz	??_lcd_4bit_initialize^0,f,c
  2125   001F2E  D7FC               	bra	u6847
  2126   001F30  2E13               	decfsz	(??_lcd_4bit_initialize+1)^0,f,c
  2127   001F32  D7FA               	bra	u6847
  2128   001F34  C011  F00E         	movff	lcd_4bit_initialize@lcd,lcd_4bit_send_command@lcd
  2129   001F38  0E38               	movlw	56
  2130   001F3A  6E0F               	movwf	lcd_4bit_send_command@command^0,c
  2131   001F3C  ECE8  F011         	call	_lcd_4bit_send_command	;wreg free
  2132   001F40  C011  F00E         	movff	lcd_4bit_initialize@lcd,lcd_4bit_send_command@lcd
  2133   001F44  0E01               	movlw	1
  2134   001F46  6E0F               	movwf	lcd_4bit_send_command@command^0,c
  2135   001F48  ECE8  F011         	call	_lcd_4bit_send_command	;wreg free
  2136   001F4C  C011  F00E         	movff	lcd_4bit_initialize@lcd,lcd_4bit_send_command@lcd
  2137   001F50  0E02               	movlw	2
  2138   001F52  6E0F               	movwf	lcd_4bit_send_command@command^0,c
  2139   001F54  ECE8  F011         	call	_lcd_4bit_send_command	;wreg free
  2140   001F58  C011  F00E         	movff	lcd_4bit_initialize@lcd,lcd_4bit_send_command@lcd
  2141   001F5C  0E06               	movlw	6
  2142   001F5E  6E0F               	movwf	lcd_4bit_send_command@command^0,c
  2143   001F60  ECE8  F011         	call	_lcd_4bit_send_command	;wreg free
  2144   001F64  C011  F00E         	movff	lcd_4bit_initialize@lcd,lcd_4bit_send_command@lcd
  2145   001F68  0E0C               	movlw	12
  2146   001F6A  6E0F               	movwf	lcd_4bit_send_command@command^0,c
  2147   001F6C  ECE8  F011         	call	_lcd_4bit_send_command	;wreg free
  2148   001F70  C011  F00E         	movff	lcd_4bit_initialize@lcd,lcd_4bit_send_command@lcd
  2149   001F74  0E28               	movlw	40
  2150   001F76  6E0F               	movwf	lcd_4bit_send_command@command^0,c
  2151   001F78  ECE8  F011         	call	_lcd_4bit_send_command	;wreg free
  2152   001F7C  C011  F00E         	movff	lcd_4bit_initialize@lcd,lcd_4bit_send_command@lcd
  2153   001F80  0E80               	movlw	128
  2154   001F82  6E0F               	movwf	lcd_4bit_send_command@command^0,c
  2155   001F84  ECE8  F011         	call	_lcd_4bit_send_command	;wreg free
  2156   001F88                     l66:
  2157   001F88  0012               	return		;funcret
  2158   001F8A                     __end_of_lcd_4bit_initialize:
  2159                           	callstack 0
  2160                           
  2161 ;; *************** function _lcd_4bit_send_command *****************
  2162 ;; Defined at:
  2163 ;;		line 48 in file "ECU_Layer/chr_lcd/chr_lcd.c"
  2164 ;; Parameters:    Size  Location     Type
  2165 ;;  lcd             1   13[COMRAM] PTR const struct .
  2166 ;;		 -> lcd_1(6), 
  2167 ;;  command         1   14[COMRAM] unsigned char 
  2168 ;; Auto vars:     Size  Location     Type
  2169 ;;  ret             1   15[COMRAM] unsigned char 
  2170 ;; Return value:  Size  Location     Type
  2171 ;;                  1    wreg      unsigned char 
  2172 ;; Registers used:
  2173 ;;		wreg, fsr2l, fsr2h, status,2, status,0, prodl, prodh, cstack
  2174 ;; Tracked objects:
  2175 ;;		On entry : 0/0
  2176 ;;		On exit  : 0/0
  2177 ;;		Unchanged: 0/0
  2178 ;; Data sizes:     COMRAM   BANK0   BANK1   BANK2   BANK3   BANK4   BANK5   BANK6   BANK7   BANK8   BANK9  BANK10  BANK1
      +1  BANK12  BANK13  BANK14  BANK15
  2179 ;;      Params:         2       0       0       0       0       0       0       0       0       0       0       0       
      +0       0       0       0       0
  2180 ;;      Locals:         1       0       0       0       0       0       0       0       0       0       0       0       
      +0       0       0       0       0
  2181 ;;      Temps:          0       0       0       0       0       0       0       0       0       0       0       0       
      +0       0       0       0       0
  2182 ;;      Totals:         3       0       0       0       0       0       0       0       0       0       0       0       
      +0       0       0       0       0
  2183 ;;Total ram usage:        3 bytes
  2184 ;; Hardware stack levels used: 1
  2185 ;; Hardware stack levels required when called: 5
  2186 ;; This function calls:
  2187 ;;		_gpio_pin_write_logic
  2188 ;;		_lcd_4bit_send_enable_signal
  2189 ;;		_lcd_send_4bit
  2190 ;; This function is called by:
  2191 ;;		_lcd_4bit_initialize
  2192 ;;		_lcd_4bit_set_cusrsor
  2193 ;;		_lcd_4bit_send_custom_char
  2194 ;; This function uses a non-reentrant model
  2195 ;;
  2196                           
  2197                           	psect	text14
  2198   0023D0                     __ptext14:
  2199                           	callstack 0
  2200   0023D0                     _lcd_4bit_send_command:
  2201                           	callstack 23
  2202   0023D0                     
  2203                           ;ECU_Layer/chr_lcd/chr_lcd.c: 50:     if (((void*)0) == lcd) {
  2204   0023D0  500E               	movf	lcd_4bit_send_command@lcd^0,w,c
  2205   0023D2  A4D8               	btfss	status,2,c
  2206   0023D4  EFEE  F011         	goto	u4081
  2207   0023D8  EFF0  F011         	goto	u4080
  2208   0023DC                     u4081:
  2209   0023DC  EFF4  F011         	goto	l5470
  2210   0023E0                     u4080:
  2211   0023E0                     
  2212                           ;ECU_Layer/chr_lcd/chr_lcd.c: 51:         ret = (STD_ReturnType)0x00;
  2213   0023E0  0E00               	movlw	0
  2214   0023E2  6E10               	movwf	lcd_4bit_send_command@ret^0,c
  2215                           
  2216                           ;ECU_Layer/chr_lcd/chr_lcd.c: 52:     } else {
  2217   0023E4  EF16  F012         	goto	l5474
  2218   0023E8                     l5470:
  2219                           
  2220                           ;ECU_Layer/chr_lcd/chr_lcd.c: 53:         ret = gpio_pin_write_logic(&(lcd->lcd_rs), GPI
      +                          O_LOW);
  2221   0023E8  C00E  F003         	movff	lcd_4bit_send_command@lcd,gpio_pin_write_logic@pin_config
  2222   0023EC  0E00               	movlw	0
  2223   0023EE  6E04               	movwf	gpio_pin_write_logic@logic^0,c
  2224   0023F0  EC3F  F00E         	call	_gpio_pin_write_logic	;wreg free
  2225   0023F4  6E10               	movwf	lcd_4bit_send_command@ret^0,c
  2226                           
  2227                           ;ECU_Layer/chr_lcd/chr_lcd.c: 54:         ret = lcd_send_4bit(lcd, command >> 4);
  2228   0023F6  C00E  F00B         	movff	lcd_4bit_send_command@lcd,lcd_send_4bit@lcd
  2229   0023FA  380F               	swapf	lcd_4bit_send_command@command^0,w,c
  2230   0023FC  0B0F               	andlw	15
  2231   0023FE  6E0C               	movwf	lcd_send_4bit@_command^0,c
  2232   002400  ECB1  F010         	call	_lcd_send_4bit	;wreg free
  2233   002404  6E10               	movwf	lcd_4bit_send_command@ret^0,c
  2234                           
  2235                           ;ECU_Layer/chr_lcd/chr_lcd.c: 55:         ret = lcd_4bit_send_enable_signal(lcd);
  2236   002406  C00E  F00B         	movff	lcd_4bit_send_command@lcd,lcd_4bit_send_enable_signal@lcd
  2237   00240A  EC97  F012         	call	_lcd_4bit_send_enable_signal	;wreg free
  2238   00240E  6E10               	movwf	lcd_4bit_send_command@ret^0,c
  2239                           
  2240                           ;ECU_Layer/chr_lcd/chr_lcd.c: 56:         ret = lcd_send_4bit(lcd, command);
  2241   002410  C00E  F00B         	movff	lcd_4bit_send_command@lcd,lcd_send_4bit@lcd
  2242   002414  C00F  F00C         	movff	lcd_4bit_send_command@command,lcd_send_4bit@_command
  2243   002418  ECB1  F010         	call	_lcd_send_4bit	;wreg free
  2244   00241C  6E10               	movwf	lcd_4bit_send_command@ret^0,c
  2245                           
  2246                           ;ECU_Layer/chr_lcd/chr_lcd.c: 57:         ret = lcd_4bit_send_enable_signal(lcd);
  2247   00241E  C00E  F00B         	movff	lcd_4bit_send_command@lcd,lcd_4bit_send_enable_signal@lcd
  2248   002422  EC97  F012         	call	_lcd_4bit_send_enable_signal	;wreg free
  2249   002426  6E10               	movwf	lcd_4bit_send_command@ret^0,c
  2250   002428                     
  2251                           ;ECU_Layer/chr_lcd/chr_lcd.c: 58:         ret = (STD_ReturnType)0x01;
  2252   002428  0E01               	movlw	1
  2253   00242A  6E10               	movwf	lcd_4bit_send_command@ret^0,c
  2254   00242C                     l5474:
  2255                           
  2256                           ;ECU_Layer/chr_lcd/chr_lcd.c: 60:     return ret;
  2257   00242C  5010               	movf	lcd_4bit_send_command@ret^0,w,c
  2258   00242E  0012               	return		;funcret
  2259   002430                     __end_of_lcd_4bit_send_command:
  2260                           	callstack 0
  2261                           
  2262 ;; *************** function _lcd_send_4bit *****************
  2263 ;; Defined at:
  2264 ;;		line 301 in file "ECU_Layer/chr_lcd/chr_lcd.c"
  2265 ;; Parameters:    Size  Location     Type
  2266 ;;  lcd             1   10[COMRAM] PTR const struct .
  2267 ;;		 -> lcd_1(6), 
  2268 ;;  _command        1   11[COMRAM] unsigned char 
  2269 ;; Auto vars:     Size  Location     Type
  2270 ;;  ret             1   12[COMRAM] unsigned char 
  2271 ;; Return value:  Size  Location     Type
  2272 ;;                  1    wreg      unsigned char 
  2273 ;; Registers used:
  2274 ;;		wreg, fsr2l, fsr2h, status,2, status,0, prodl, prodh, cstack
  2275 ;; Tracked objects:
  2276 ;;		On entry : 0/0
  2277 ;;		On exit  : 0/0
  2278 ;;		Unchanged: 0/0
  2279 ;; Data sizes:     COMRAM   BANK0   BANK1   BANK2   BANK3   BANK4   BANK5   BANK6   BANK7   BANK8   BANK9  BANK10  BANK1
      +1  BANK12  BANK13  BANK14  BANK15
  2280 ;;      Params:         2       0       0       0       0       0       0       0       0       0       0       0       
      +0       0       0       0       0
  2281 ;;      Locals:         1       0       0       0       0       0       0       0       0       0       0       0       
      +0       0       0       0       0
  2282 ;;      Temps:          0       0       0       0       0       0       0       0       0       0       0       0       
      +0       0       0       0       0
  2283 ;;      Totals:         3       0       0       0       0       0       0       0       0       0       0       0       
      +0       0       0       0       0
  2284 ;;Total ram usage:        3 bytes
  2285 ;; Hardware stack levels used: 1
  2286 ;; Hardware stack levels required when called: 4
  2287 ;; This function calls:
  2288 ;;		_gpio_pin_write_logic
  2289 ;; This function is called by:
  2290 ;;		_lcd_4bit_send_command
  2291 ;;		_lcd_4bit_send_char_data
  2292 ;; This function uses a non-reentrant model
  2293 ;;
  2294                           
  2295                           	psect	text15
  2296   002162                     __ptext15:
  2297                           	callstack 0
  2298   002162                     _lcd_send_4bit:
  2299                           	callstack 23
  2300   002162                     
  2301                           ;ECU_Layer/chr_lcd/chr_lcd.c: 303:     if (((void*)0) == lcd) {
  2302   002162  500B               	movf	lcd_send_4bit@lcd^0,w,c
  2303   002164  A4D8               	btfss	status,2,c
  2304   002166  EFB7  F010         	goto	u4041
  2305   00216A  EFB9  F010         	goto	u4040
  2306   00216E                     u4041:
  2307   00216E  EFBD  F010         	goto	l5434
  2308   002172                     u4040:
  2309   002172                     
  2310                           ;ECU_Layer/chr_lcd/chr_lcd.c: 304:         ret = (STD_ReturnType)0x00;
  2311   002172  0E00               	movlw	0
  2312   002174  6E0D               	movwf	lcd_send_4bit@ret^0,c
  2313                           
  2314                           ;ECU_Layer/chr_lcd/chr_lcd.c: 305:     } else {
  2315   002176  EFE6  F010         	goto	l5436
  2316   00217A                     l5434:
  2317                           
  2318                           ;ECU_Layer/chr_lcd/chr_lcd.c: 306:         ret = gpio_pin_write_logic(&(lcd->lcd_data[0]
      +                          ), (_command >> 0) & (uint8) 0x01);
  2319   00217A  500B               	movf	lcd_send_4bit@lcd^0,w,c
  2320   00217C  0F02               	addlw	2
  2321   00217E  6E03               	movwf	gpio_pin_write_logic@pin_config^0,c
  2322   002180  500C               	movf	lcd_send_4bit@_command^0,w,c
  2323   002182  0B01               	andlw	1
  2324   002184  6E04               	movwf	gpio_pin_write_logic@logic^0,c
  2325   002186  EC3F  F00E         	call	_gpio_pin_write_logic	;wreg free
  2326   00218A  6E0D               	movwf	lcd_send_4bit@ret^0,c
  2327                           
  2328                           ;ECU_Layer/chr_lcd/chr_lcd.c: 307:         ret = gpio_pin_write_logic(&(lcd->lcd_data[1]
      +                          ), (_command >> 1) & (uint8) 0x01);
  2329   00218C  500B               	movf	lcd_send_4bit@lcd^0,w,c
  2330   00218E  0F03               	addlw	3
  2331   002190  6E03               	movwf	gpio_pin_write_logic@pin_config^0,c
  2332   002192  90D8               	bcf	status,0,c
  2333   002194  300C               	rrcf	lcd_send_4bit@_command^0,w,c
  2334   002196  0B01               	andlw	1
  2335   002198  6E04               	movwf	gpio_pin_write_logic@logic^0,c
  2336   00219A  EC3F  F00E         	call	_gpio_pin_write_logic	;wreg free
  2337   00219E  6E0D               	movwf	lcd_send_4bit@ret^0,c
  2338                           
  2339                           ;ECU_Layer/chr_lcd/chr_lcd.c: 308:         ret = gpio_pin_write_logic(&(lcd->lcd_data[2]
      +                          ), (_command >> 2) & (uint8) 0x01);
  2340   0021A0  500B               	movf	lcd_send_4bit@lcd^0,w,c
  2341   0021A2  0F04               	addlw	4
  2342   0021A4  6E03               	movwf	gpio_pin_write_logic@pin_config^0,c
  2343   0021A6  400C               	rrncf	lcd_send_4bit@_command^0,w,c
  2344   0021A8  42E8               	rrncf	wreg,f,c
  2345   0021AA  0B3F               	andlw	63
  2346   0021AC  0B01               	andlw	1
  2347   0021AE  6E04               	movwf	gpio_pin_write_logic@logic^0,c
  2348   0021B0  EC3F  F00E         	call	_gpio_pin_write_logic	;wreg free
  2349   0021B4  6E0D               	movwf	lcd_send_4bit@ret^0,c
  2350                           
  2351                           ;ECU_Layer/chr_lcd/chr_lcd.c: 309:         ret = gpio_pin_write_logic(&(lcd->lcd_data[3]
      +                          ), (_command >> 3) & (uint8) 0x01);
  2352   0021B6  500B               	movf	lcd_send_4bit@lcd^0,w,c
  2353   0021B8  0F05               	addlw	5
  2354   0021BA  6E03               	movwf	gpio_pin_write_logic@pin_config^0,c
  2355   0021BC  380C               	swapf	lcd_send_4bit@_command^0,w,c
  2356   0021BE  46E8               	rlncf	wreg,f,c
  2357   0021C0  0B1F               	andlw	31
  2358   0021C2  0B01               	andlw	1
  2359   0021C4  6E04               	movwf	gpio_pin_write_logic@logic^0,c
  2360   0021C6  EC3F  F00E         	call	_gpio_pin_write_logic	;wreg free
  2361   0021CA  6E0D               	movwf	lcd_send_4bit@ret^0,c
  2362   0021CC                     l5436:
  2363                           
  2364                           ;ECU_Layer/chr_lcd/chr_lcd.c: 311:     return ret;
  2365   0021CC  500D               	movf	lcd_send_4bit@ret^0,w,c
  2366   0021CE  0012               	return		;funcret
  2367   0021D0                     __end_of_lcd_send_4bit:
  2368                           	callstack 0
  2369                           
  2370 ;; *************** function _lcd_4bit_send_enable_signal *****************
  2371 ;; Defined at:
  2372 ;;		line 314 in file "ECU_Layer/chr_lcd/chr_lcd.c"
  2373 ;; Parameters:    Size  Location     Type
  2374 ;;  lcd             1   10[COMRAM] PTR const struct .
  2375 ;;		 -> lcd_1(6), 
  2376 ;; Auto vars:     Size  Location     Type
  2377 ;;  ret             1   11[COMRAM] unsigned char 
  2378 ;; Return value:  Size  Location     Type
  2379 ;;                  1    wreg      unsigned char 
  2380 ;; Registers used:
  2381 ;;		wreg, fsr2l, fsr2h, status,2, status,0, prodl, prodh, cstack
  2382 ;; Tracked objects:
  2383 ;;		On entry : 0/0
  2384 ;;		On exit  : 0/0
  2385 ;;		Unchanged: 0/0
  2386 ;; Data sizes:     COMRAM   BANK0   BANK1   BANK2   BANK3   BANK4   BANK5   BANK6   BANK7   BANK8   BANK9  BANK10  BANK1
      +1  BANK12  BANK13  BANK14  BANK15
  2387 ;;      Params:         1       0       0       0       0       0       0       0       0       0       0       0       
      +0       0       0       0       0
  2388 ;;      Locals:         1       0       0       0       0       0       0       0       0       0       0       0       
      +0       0       0       0       0
  2389 ;;      Temps:          0       0       0       0       0       0       0       0       0       0       0       0       
      +0       0       0       0       0
  2390 ;;      Totals:         2       0       0       0       0       0       0       0       0       0       0       0       
      +0       0       0       0       0
  2391 ;;Total ram usage:        2 bytes
  2392 ;; Hardware stack levels used: 1
  2393 ;; Hardware stack levels required when called: 4
  2394 ;; This function calls:
  2395 ;;		_gpio_pin_write_logic
  2396 ;; This function is called by:
  2397 ;;		_lcd_4bit_send_command
  2398 ;;		_lcd_4bit_send_char_data
  2399 ;; This function uses a non-reentrant model
  2400 ;;
  2401                           
  2402                           	psect	text16
  2403   00252E                     __ptext16:
  2404                           	callstack 0
  2405   00252E                     _lcd_4bit_send_enable_signal:
  2406                           	callstack 23
  2407   00252E                     
  2408                           ;ECU_Layer/chr_lcd/chr_lcd.c: 316:     if (((void*)0) == lcd) {
  2409   00252E  500B               	movf	lcd_4bit_send_enable_signal@lcd^0,w,c
  2410   002530  A4D8               	btfss	status,2,c
  2411   002532  EF9D  F012         	goto	u4051
  2412   002536  EF9F  F012         	goto	u4050
  2413   00253A                     u4051:
  2414   00253A  EFA3  F012         	goto	l5444
  2415   00253E                     u4050:
  2416   00253E                     
  2417                           ;ECU_Layer/chr_lcd/chr_lcd.c: 317:         ret = (STD_ReturnType)0x00;
  2418   00253E  0E00               	movlw	0
  2419   002540  6E0C               	movwf	lcd_4bit_send_enable_signal@ret^0,c
  2420                           
  2421                           ;ECU_Layer/chr_lcd/chr_lcd.c: 318:     } else {
  2422   002542  EFB5  F012         	goto	l5450
  2423   002546                     l5444:
  2424   002546  280B               	incf	lcd_4bit_send_enable_signal@lcd^0,w,c
  2425   002548  6E03               	movwf	gpio_pin_write_logic@pin_config^0,c
  2426   00254A  0E01               	movlw	1
  2427   00254C  6E04               	movwf	gpio_pin_write_logic@logic^0,c
  2428   00254E  EC3F  F00E         	call	_gpio_pin_write_logic	;wreg free
  2429   002552                     
  2430                           ;ECU_Layer/chr_lcd/chr_lcd.c: 320:         _delay((unsigned long)((5)*(16000000UL/400000
      +                          0.0)));
  2431   002552  0E06               	movlw	6
  2432   002554                     u6857:
  2433   002554  2EE8               	decfsz	wreg,f,c
  2434   002556  D7FE               	bra	u6857
  2435   002558  F000 F000          	nop2	
  2436   00255C                     
  2437                           ;ECU_Layer/chr_lcd/chr_lcd.c: 321:         ret = gpio_pin_write_logic(&(lcd->lcd_en), GP
      +                          IO_LOW);
  2438   00255C  280B               	incf	lcd_4bit_send_enable_signal@lcd^0,w,c
  2439   00255E  6E03               	movwf	gpio_pin_write_logic@pin_config^0,c
  2440   002560  0E00               	movlw	0
  2441   002562  6E04               	movwf	gpio_pin_write_logic@logic^0,c
  2442   002564  EC3F  F00E         	call	_gpio_pin_write_logic	;wreg free
  2443   002568  6E0C               	movwf	lcd_4bit_send_enable_signal@ret^0,c
  2444   00256A                     l5450:
  2445                           
  2446                           ;ECU_Layer/chr_lcd/chr_lcd.c: 323:     return ret;
  2447   00256A  500C               	movf	lcd_4bit_send_enable_signal@ret^0,w,c
  2448   00256C  0012               	return		;funcret
  2449   00256E                     __end_of_lcd_4bit_send_enable_signal:
  2450                           	callstack 0
  2451                           
  2452 ;; *************** function _gpio_pin_initialization *****************
  2453 ;; Defined at:
  2454 ;;		line 132 in file "MCAL_Layer/GPIO/hal_gpio.c"
  2455 ;; Parameters:    Size  Location     Type
  2456 ;;  pin_config      1   10[COMRAM] PTR const struct .
  2457 ;;		 -> lcd_1$lcd_data(4), lcd_1(6), motor2$motor(2), motor2(2), 
  2458 ;;		 -> motor1$motor(2), motor1(2), relay_initialization@pin_obj(1), led_initialization@pin_obj(1), 
  2459 ;; Auto vars:     Size  Location     Type
  2460 ;;  ret             1   12[COMRAM] unsigned char 
  2461 ;; Return value:  Size  Location     Type
  2462 ;;                  1    wreg      unsigned char 
  2463 ;; Registers used:
  2464 ;;		wreg, fsr2l, fsr2h, status,2, status,0, prodl, prodh, cstack
  2465 ;; Tracked objects:
  2466 ;;		On entry : 0/0
  2467 ;;		On exit  : 0/0
  2468 ;;		Unchanged: 0/0
  2469 ;; Data sizes:     COMRAM   BANK0   BANK1   BANK2   BANK3   BANK4   BANK5   BANK6   BANK7   BANK8   BANK9  BANK10  BANK1
      +1  BANK12  BANK13  BANK14  BANK15
  2470 ;;      Params:         1       0       0       0       0       0       0       0       0       0       0       0       
      +0       0       0       0       0
  2471 ;;      Locals:         1       0       0       0       0       0       0       0       0       0       0       0       
      +0       0       0       0       0
  2472 ;;      Temps:          1       0       0       0       0       0       0       0       0       0       0       0       
      +0       0       0       0       0
  2473 ;;      Totals:         3       0       0       0       0       0       0       0       0       0       0       0       
      +0       0       0       0       0
  2474 ;;Total ram usage:        3 bytes
  2475 ;; Hardware stack levels used: 1
  2476 ;; Hardware stack levels required when called: 4
  2477 ;; This function calls:
  2478 ;;		_gpio_pin_direction_initializion
  2479 ;;		_gpio_pin_write_logic
  2480 ;; This function is called by:
  2481 ;;		_lcd_4bit_initialize
  2482 ;;		_motor_initialization
  2483 ;;		_relay_initialization
  2484 ;;		_seven_segment_initialize
  2485 ;;		_lcd_8bit_initialize
  2486 ;;		_keypad_initialization
  2487 ;;		_led_initialization
  2488 ;;		_CCP_Init
  2489 ;; This function uses a non-reentrant model
  2490 ;;
  2491                           
  2492                           	psect	text17
  2493   002430                     __ptext17:
  2494                           	callstack 0
  2495   002430                     _gpio_pin_initialization:
  2496                           	callstack 23
  2497   002430                     
  2498                           ;MCAL_Layer/GPIO/hal_gpio.c: 133:     STD_ReturnType ret = (STD_ReturnType)0x01;
  2499   002430  0E01               	movlw	1
  2500   002432  6E0D               	movwf	gpio_pin_initialization@ret^0,c
  2501                           
  2502                           ;MCAL_Layer/GPIO/hal_gpio.c: 134:     if ((((void*)0) == pin_config) || (pin_config->pin
      +                           > 8 - 1)) {
  2503   002434  500B               	movf	gpio_pin_initialization@pin_config^0,w,c
  2504   002436  B4D8               	btfsc	status,2,c
  2505   002438  EF20  F012         	goto	u4061
  2506   00243C  EF22  F012         	goto	u4060
  2507   002440                     u4061:
  2508   002440  EF32  F012         	goto	l5458
  2509   002444                     u4060:
  2510   002444  500B               	movf	gpio_pin_initialization@pin_config^0,w,c
  2511   002446  6ED9               	movwf	fsr2l,c
  2512   002448  6ADA               	clrf	fsr2h,c
  2513   00244A  30DF               	rrcf	223,w,c
  2514   00244C  32E8               	rrcf	wreg,f,c
  2515   00244E  32E8               	rrcf	wreg,f,c
  2516   002450  0B07               	andlw	7
  2517   002452  6E0C               	movwf	??_gpio_pin_initialization^0,c
  2518   002454  0E07               	movlw	7
  2519   002456  640C               	cpfsgt	??_gpio_pin_initialization^0,c
  2520   002458  EF30  F012         	goto	u4071
  2521   00245C  EF32  F012         	goto	u4070
  2522   002460                     u4071:
  2523   002460  EF36  F012         	goto	l5460
  2524   002464                     u4070:
  2525   002464                     l5458:
  2526                           
  2527                           ;MCAL_Layer/GPIO/hal_gpio.c: 135:         ret = (STD_ReturnType)0x00;
  2528   002464  0E00               	movlw	0
  2529   002466  6E0D               	movwf	gpio_pin_initialization@ret^0,c
  2530                           
  2531                           ;MCAL_Layer/GPIO/hal_gpio.c: 136:     } else {
  2532   002468  EF45  F012         	goto	l5462
  2533   00246C                     l5460:
  2534                           
  2535                           ;MCAL_Layer/GPIO/hal_gpio.c: 137:         gpio_pin_direction_initializion(pin_config);
  2536   00246C  C00B  F003         	movff	gpio_pin_initialization@pin_config,gpio_pin_direction_initializion@pin_config
  2537   002470  ECB6  F00D         	call	_gpio_pin_direction_initializion	;wreg free
  2538                           
  2539                           ;MCAL_Layer/GPIO/hal_gpio.c: 138:         gpio_pin_write_logic(pin_config, pin_config->l
      +                          ogic);
  2540   002474  C00B  F003         	movff	gpio_pin_initialization@pin_config,gpio_pin_write_logic@pin_config
  2541   002478  500B               	movf	gpio_pin_initialization@pin_config^0,w,c
  2542   00247A  6ED9               	movwf	fsr2l,c
  2543   00247C  6ADA               	clrf	fsr2h,c
  2544   00247E  0E00               	movlw	0
  2545   002480  BEDF               	btfsc	indf2,7,c
  2546   002482  0E01               	movlw	1
  2547   002484  6E04               	movwf	gpio_pin_write_logic@logic^0,c
  2548   002486  EC3F  F00E         	call	_gpio_pin_write_logic	;wreg free
  2549   00248A                     l5462:
  2550                           
  2551                           ;MCAL_Layer/GPIO/hal_gpio.c: 140:     return ret;
  2552   00248A  500D               	movf	gpio_pin_initialization@ret^0,w,c
  2553   00248C  0012               	return		;funcret
  2554   00248E                     __end_of_gpio_pin_initialization:
  2555                           	callstack 0
  2556                           
  2557 ;; *************** function _gpio_pin_write_logic *****************
  2558 ;; Defined at:
  2559 ;;		line 68 in file "MCAL_Layer/GPIO/hal_gpio.c"
  2560 ;; Parameters:    Size  Location     Type
  2561 ;;  pin_config      1    2[COMRAM] PTR const struct .
  2562 ;;		 -> lcd_1$lcd_data(4), lcd_1(6), motor2$motor(2), motor2(2), 
  2563 ;;		 -> motor1$motor(2), motor1(2), relay_turn_off@pin_obj(1), relay_turn_on@pin_obj(1), 
  2564 ;;		 -> relay_initialization@pin_obj(1), led_turn_off@pin_obj(1), led_turn_on@pin_obj(1), led_initialization@pin_obj(1),
      + 
  2565 ;;  logic           1    3[COMRAM] enum E3230
  2566 ;; Auto vars:     Size  Location     Type
  2567 ;;  ret             1    9[COMRAM] unsigned char 
  2568 ;; Return value:  Size  Location     Type
  2569 ;;                  1    wreg      unsigned char 
  2570 ;; Registers used:
  2571 ;;		wreg, fsr2l, fsr2h, status,2, status,0, prodl, prodh
  2572 ;; Tracked objects:
  2573 ;;		On entry : 0/0
  2574 ;;		On exit  : 0/0
  2575 ;;		Unchanged: 0/0
  2576 ;; Data sizes:     COMRAM   BANK0   BANK1   BANK2   BANK3   BANK4   BANK5   BANK6   BANK7   BANK8   BANK9  BANK10  BANK1
      +1  BANK12  BANK13  BANK14  BANK15
  2577 ;;      Params:         2       0       0       0       0       0       0       0       0       0       0       0       
      +0       0       0       0       0
  2578 ;;      Locals:         1       0       0       0       0       0       0       0       0       0       0       0       
      +0       0       0       0       0
  2579 ;;      Temps:          5       0       0       0       0       0       0       0       0       0       0       0       
      +0       0       0       0       0
  2580 ;;      Totals:         8       0       0       0       0       0       0       0       0       0       0       0       
      +0       0       0       0       0
  2581 ;;Total ram usage:        8 bytes
  2582 ;; Hardware stack levels used: 1
  2583 ;; Hardware stack levels required when called: 3
  2584 ;; This function calls:
  2585 ;;		Nothing
  2586 ;; This function is called by:
  2587 ;;		_lcd_4bit_send_command
  2588 ;;		_lcd_4bit_send_char_data
  2589 ;;		_lcd_send_4bit
  2590 ;;		_lcd_4bit_send_enable_signal
  2591 ;;		_motor_move_forward
  2592 ;;		_motor_move_backward
  2593 ;;		_motor_stop
  2594 ;;		_relay_turn_on
  2595 ;;		_relay_turn_off
  2596 ;;		_gpio_pin_initialization
  2597 ;;		_seven_segment_write_number
  2598 ;;		_lcd_8bit_send_command
  2599 ;;		_lcd_8bit_send_char_data
  2600 ;;		_lcd_8bit_send_enable_signal
  2601 ;;		_keypad_get_value
  2602 ;;		_led_turn_on
  2603 ;;		_led_turn_off
  2604 ;; This function uses a non-reentrant model
  2605 ;;
  2606                           
  2607                           	psect	text18
  2608   001C7E                     __ptext18:
  2609                           	callstack 0
  2610   001C7E                     _gpio_pin_write_logic:
  2611                           	callstack 26
  2612   001C7E                     
  2613                           ;MCAL_Layer/GPIO/hal_gpio.c: 69:     STD_ReturnType ret = (STD_ReturnType)0x01;
  2614   001C7E  0E01               	movlw	1
  2615   001C80  6E0A               	movwf	gpio_pin_write_logic@ret^0,c
  2616                           
  2617                           ;MCAL_Layer/GPIO/hal_gpio.c: 70:     if ((((void*)0) == pin_config) || (pin_config->pin 
      +                          > 8 - 1)) {
  2618   001C82  5003               	movf	gpio_pin_write_logic@pin_config^0,w,c
  2619   001C84  B4D8               	btfsc	status,2,c
  2620   001C86  EF47  F00E         	goto	u3951
  2621   001C8A  EF49  F00E         	goto	u3950
  2622   001C8E                     u3951:
  2623   001C8E  EF59  F00E         	goto	l5394
  2624   001C92                     u3950:
  2625   001C92  5003               	movf	gpio_pin_write_logic@pin_config^0,w,c
  2626   001C94  6ED9               	movwf	fsr2l,c
  2627   001C96  6ADA               	clrf	fsr2h,c
  2628   001C98  30DF               	rrcf	223,w,c
  2629   001C9A  32E8               	rrcf	wreg,f,c
  2630   001C9C  32E8               	rrcf	wreg,f,c
  2631   001C9E  0B07               	andlw	7
  2632   001CA0  6E05               	movwf	??_gpio_pin_write_logic^0,c
  2633   001CA2  0E07               	movlw	7
  2634   001CA4  6405               	cpfsgt	??_gpio_pin_write_logic^0,c
  2635   001CA6  EF57  F00E         	goto	u3961
  2636   001CAA  EF59  F00E         	goto	u3960
  2637   001CAE                     u3961:
  2638   001CAE  EFB0  F00E         	goto	l5402
  2639   001CB2                     u3960:
  2640   001CB2                     l5394:
  2641                           
  2642                           ;MCAL_Layer/GPIO/hal_gpio.c: 71:         ret = (STD_ReturnType)0x00;
  2643   001CB2  0E00               	movlw	0
  2644   001CB4  6E0A               	movwf	gpio_pin_write_logic@ret^0,c
  2645                           
  2646                           ;MCAL_Layer/GPIO/hal_gpio.c: 72:     } else {
  2647   001CB6  EFC5  F00E         	goto	l5404
  2648   001CBA                     l5396:
  2649                           
  2650                           ;MCAL_Layer/GPIO/hal_gpio.c: 75:                 (*lat_register[pin_config->port] &= ~(1
      +                           << pin_config->pin));
  2651   001CBA  5003               	movf	gpio_pin_write_logic@pin_config^0,w,c
  2652   001CBC  6ED9               	movwf	fsr2l,c
  2653   001CBE  6ADA               	clrf	fsr2h,c
  2654   001CC0  30DF               	rrcf	223,w,c
  2655   001CC2  32E8               	rrcf	wreg,f,c
  2656   001CC4  32E8               	rrcf	wreg,f,c
  2657   001CC6  0B07               	andlw	7
  2658   001CC8  6E05               	movwf	??_gpio_pin_write_logic^0,c
  2659   001CCA  0E01               	movlw	1
  2660   001CCC  6E06               	movwf	(??_gpio_pin_write_logic+1)^0,c
  2661   001CCE  2A05               	incf	??_gpio_pin_write_logic^0,f,c
  2662   001CD0  EF6C  F00E         	goto	u3974
  2663   001CD4                     u3975:
  2664   001CD4  90D8               	bcf	status,0,c
  2665   001CD6  3606               	rlcf	(??_gpio_pin_write_logic+1)^0,f,c
  2666   001CD8                     u3974:
  2667   001CD8  2E05               	decfsz	??_gpio_pin_write_logic^0,f,c
  2668   001CDA  EF6A  F00E         	goto	u3975
  2669   001CDE  5006               	movf	(??_gpio_pin_write_logic+1)^0,w,c
  2670   001CE0  0AFF               	xorlw	255
  2671   001CE2  6E07               	movwf	(??_gpio_pin_write_logic+2)^0,c
  2672   001CE4  5003               	movf	gpio_pin_write_logic@pin_config^0,w,c
  2673   001CE6  6ED9               	movwf	fsr2l,c
  2674   001CE8  6ADA               	clrf	fsr2h,c
  2675   001CEA  50DF               	movf	223,w,c
  2676   001CEC  0B07               	andlw	7
  2677   001CEE  0D02               	mullw	2
  2678   001CF0  50F3               	movf	243,w,c
  2679   001CF2  0FB7               	addlw	low _lat_register
  2680   001CF4  6ED9               	movwf	fsr2l,c
  2681   001CF6  6ADA               	clrf	fsr2h,c
  2682   001CF8  CFDE F008          	movff	postinc2,??_gpio_pin_write_logic+3
  2683   001CFC  CFDD F009          	movff	postdec2,??_gpio_pin_write_logic+4
  2684   001D00  C008  FFD9         	movff	??_gpio_pin_write_logic+3,fsr2l
  2685   001D04  C009  FFDA         	movff	??_gpio_pin_write_logic+4,fsr2h
  2686   001D08  5007               	movf	(??_gpio_pin_write_logic+2)^0,w,c
  2687   001D0A  16DF               	andwf	indf2,f,c
  2688                           
  2689                           ;MCAL_Layer/GPIO/hal_gpio.c: 76:                 break;
  2690   001D0C  EFC5  F00E         	goto	l5404
  2691   001D10                     l5398:
  2692                           
  2693                           ;MCAL_Layer/GPIO/hal_gpio.c: 78:                 (*lat_register[pin_config->port] |= (1 
      +                          << pin_config->pin));
  2694   001D10  5003               	movf	gpio_pin_write_logic@pin_config^0,w,c
  2695   001D12  6ED9               	movwf	fsr2l,c
  2696   001D14  6ADA               	clrf	fsr2h,c
  2697   001D16  30DF               	rrcf	223,w,c
  2698   001D18  32E8               	rrcf	wreg,f,c
  2699   001D1A  32E8               	rrcf	wreg,f,c
  2700   001D1C  0B07               	andlw	7
  2701   001D1E  6E05               	movwf	??_gpio_pin_write_logic^0,c
  2702   001D20  0E01               	movlw	1
  2703   001D22  6E06               	movwf	(??_gpio_pin_write_logic+1)^0,c
  2704   001D24  2A05               	incf	??_gpio_pin_write_logic^0,f,c
  2705   001D26  EF97  F00E         	goto	u3984
  2706   001D2A                     u3985:
  2707   001D2A  90D8               	bcf	status,0,c
  2708   001D2C  3606               	rlcf	(??_gpio_pin_write_logic+1)^0,f,c
  2709   001D2E                     u3984:
  2710   001D2E  2E05               	decfsz	??_gpio_pin_write_logic^0,f,c
  2711   001D30  EF95  F00E         	goto	u3985
  2712   001D34  5003               	movf	gpio_pin_write_logic@pin_config^0,w,c
  2713   001D36  6ED9               	movwf	fsr2l,c
  2714   001D38  6ADA               	clrf	fsr2h,c
  2715   001D3A  50DF               	movf	223,w,c
  2716   001D3C  0B07               	andlw	7
  2717   001D3E  0D02               	mullw	2
  2718   001D40  50F3               	movf	243,w,c
  2719   001D42  0FB7               	addlw	low _lat_register
  2720   001D44  6ED9               	movwf	fsr2l,c
  2721   001D46  6ADA               	clrf	fsr2h,c
  2722   001D48  CFDE F007          	movff	postinc2,??_gpio_pin_write_logic+2
  2723   001D4C  CFDD F008          	movff	postdec2,??_gpio_pin_write_logic+3
  2724   001D50  C007  FFD9         	movff	??_gpio_pin_write_logic+2,fsr2l
  2725   001D54  C008  FFDA         	movff	??_gpio_pin_write_logic+3,fsr2h
  2726   001D58  5006               	movf	(??_gpio_pin_write_logic+1)^0,w,c
  2727   001D5A  12DF               	iorwf	indf2,f,c
  2728                           
  2729                           ;MCAL_Layer/GPIO/hal_gpio.c: 79:                 break;
  2730   001D5C  EFC5  F00E         	goto	l5404
  2731   001D60                     l5402:
  2732   001D60  5004               	movf	gpio_pin_write_logic@logic^0,w,c
  2733   001D62  6E05               	movwf	??_gpio_pin_write_logic^0,c
  2734   001D64  6A06               	clrf	(??_gpio_pin_write_logic+1)^0,c
  2735                           
  2736                           ; Switch on 2 bytes has been partitioned into a top level switch of size 1, and 1 sub-sw
      +                          itches
  2737                           ; Switch size 1, requested type "simple"
  2738                           ; Number of cases is 1, Range of values is 0 to 0
  2739                           ; switch strategies available:
  2740                           ; Name         Instructions Cycles
  2741                           ; simple_byte            4     3 (average)
  2742                           ;	Chosen strategy is simple_byte
  2743   001D66  5006               	movf	(??_gpio_pin_write_logic+1)^0,w,c
  2744   001D68  0A00               	xorlw	0	; case 0
  2745   001D6A  B4D8               	btfsc	status,2,c
  2746   001D6C  EFBA  F00E         	goto	l7564
  2747   001D70  EF59  F00E         	goto	l5394
  2748   001D74                     l7564:
  2749                           
  2750                           ; Switch size 1, requested type "simple"
  2751                           ; Number of cases is 2, Range of values is 0 to 1
  2752                           ; switch strategies available:
  2753                           ; Name         Instructions Cycles
  2754                           ; simple_byte            7     4 (average)
  2755                           ;	Chosen strategy is simple_byte
  2756   001D74  5005               	movf	??_gpio_pin_write_logic^0,w,c
  2757   001D76  0A00               	xorlw	0	; case 0
  2758   001D78  B4D8               	btfsc	status,2,c
  2759   001D7A  EF5D  F00E         	goto	l5396
  2760   001D7E  0A01               	xorlw	1	; case 1
  2761   001D80  B4D8               	btfsc	status,2,c
  2762   001D82  EF88  F00E         	goto	l5398
  2763   001D86  EF59  F00E         	goto	l5394
  2764   001D8A                     l5404:
  2765                           
  2766                           ;MCAL_Layer/GPIO/hal_gpio.c: 84:     return ret;
  2767   001D8A  500A               	movf	gpio_pin_write_logic@ret^0,w,c
  2768   001D8C  0012               	return		;funcret
  2769   001D8E                     __end_of_gpio_pin_write_logic:
  2770                           	callstack 0
  2771                           
  2772 ;; *************** function _gpio_pin_direction_initializion *****************
  2773 ;; Defined at:
  2774 ;;		line 23 in file "MCAL_Layer/GPIO/hal_gpio.c"
  2775 ;; Parameters:    Size  Location     Type
  2776 ;;  pin_config      1    2[COMRAM] PTR const struct .
  2777 ;;		 -> lcd_1$lcd_data(4), lcd_1(6), motor2$motor(2), motor2(2), 
  2778 ;;		 -> motor1$motor(2), motor1(2), relay_initialization@pin_obj(1), led_initialization@pin_obj(1), 
  2779 ;; Auto vars:     Size  Location     Type
  2780 ;;  ret             1    8[COMRAM] unsigned char 
  2781 ;; Return value:  Size  Location     Type
  2782 ;;                  1    wreg      unsigned char 
  2783 ;; Registers used:
  2784 ;;		wreg, fsr2l, fsr2h, status,2, status,0, prodl, prodh
  2785 ;; Tracked objects:
  2786 ;;		On entry : 0/0
  2787 ;;		On exit  : 0/0
  2788 ;;		Unchanged: 0/0
  2789 ;; Data sizes:     COMRAM   BANK0   BANK1   BANK2   BANK3   BANK4   BANK5   BANK6   BANK7   BANK8   BANK9  BANK10  BANK1
      +1  BANK12  BANK13  BANK14  BANK15
  2790 ;;      Params:         1       0       0       0       0       0       0       0       0       0       0       0       
      +0       0       0       0       0
  2791 ;;      Locals:         1       0       0       0       0       0       0       0       0       0       0       0       
      +0       0       0       0       0
  2792 ;;      Temps:          5       0       0       0       0       0       0       0       0       0       0       0       
      +0       0       0       0       0
  2793 ;;      Totals:         7       0       0       0       0       0       0       0       0       0       0       0       
      +0       0       0       0       0
  2794 ;;Total ram usage:        7 bytes
  2795 ;; Hardware stack levels used: 1
  2796 ;; Hardware stack levels required when called: 3
  2797 ;; This function calls:
  2798 ;;		Nothing
  2799 ;; This function is called by:
  2800 ;;		_gpio_pin_initialization
  2801 ;;		_button_initialization
  2802 ;;		_interrupt_intx_pin_init
  2803 ;;		_interrupt_RBx_pin_init
  2804 ;; This function uses a non-reentrant model
  2805 ;;
  2806                           
  2807                           	psect	text19
  2808   001B6C                     __ptext19:
  2809                           	callstack 0
  2810   001B6C                     _gpio_pin_direction_initializion:
  2811                           	callstack 23
  2812   001B6C                     
  2813                           ;MCAL_Layer/GPIO/hal_gpio.c: 24:     STD_ReturnType ret = (STD_ReturnType)0x01;
  2814   001B6C  0E01               	movlw	1
  2815   001B6E  6E09               	movwf	gpio_pin_direction_initializion@ret^0,c
  2816                           
  2817                           ;MCAL_Layer/GPIO/hal_gpio.c: 25:     if ((((void*)0) == pin_config) || (pin_config->pin 
      +                          > 8 - 1)) {
  2818   001B70  5003               	movf	gpio_pin_direction_initializion@pin_config^0,w,c
  2819   001B72  B4D8               	btfsc	status,2,c
  2820   001B74  EFBE  F00D         	goto	u3991
  2821   001B78  EFC0  F00D         	goto	u3990
  2822   001B7C                     u3991:
  2823   001B7C  EFD0  F00D         	goto	l5416
  2824   001B80                     u3990:
  2825   001B80  5003               	movf	gpio_pin_direction_initializion@pin_config^0,w,c
  2826   001B82  6ED9               	movwf	fsr2l,c
  2827   001B84  6ADA               	clrf	fsr2h,c
  2828   001B86  30DF               	rrcf	223,w,c
  2829   001B88  32E8               	rrcf	wreg,f,c
  2830   001B8A  32E8               	rrcf	wreg,f,c
  2831   001B8C  0B07               	andlw	7
  2832   001B8E  6E04               	movwf	??_gpio_pin_direction_initializion^0,c
  2833   001B90  0E07               	movlw	7
  2834   001B92  6404               	cpfsgt	??_gpio_pin_direction_initializion^0,c
  2835   001B94  EFCE  F00D         	goto	u4001
  2836   001B98  EFD0  F00D         	goto	u4000
  2837   001B9C                     u4001:
  2838   001B9C  EF27  F00E         	goto	l5424
  2839   001BA0                     u4000:
  2840   001BA0                     l5416:
  2841                           
  2842                           ;MCAL_Layer/GPIO/hal_gpio.c: 26:         ret = (STD_ReturnType)0x00;
  2843   001BA0  0E00               	movlw	0
  2844   001BA2  6E09               	movwf	gpio_pin_direction_initializion@ret^0,c
  2845                           
  2846                           ;MCAL_Layer/GPIO/hal_gpio.c: 27:     } else {
  2847   001BA4  EF3D  F00E         	goto	l5426
  2848   001BA8                     l5418:
  2849                           
  2850                           ;MCAL_Layer/GPIO/hal_gpio.c: 30:                 (*tris_register[pin_config->port] &= ~(
      +                          1 << pin_config->pin));
  2851   001BA8  5003               	movf	gpio_pin_direction_initializion@pin_config^0,w,c
  2852   001BAA  6ED9               	movwf	fsr2l,c
  2853   001BAC  6ADA               	clrf	fsr2h,c
  2854   001BAE  30DF               	rrcf	223,w,c
  2855   001BB0  32E8               	rrcf	wreg,f,c
  2856   001BB2  32E8               	rrcf	wreg,f,c
  2857   001BB4  0B07               	andlw	7
  2858   001BB6  6E04               	movwf	??_gpio_pin_direction_initializion^0,c
  2859   001BB8  0E01               	movlw	1
  2860   001BBA  6E05               	movwf	(??_gpio_pin_direction_initializion+1)^0,c
  2861   001BBC  2A04               	incf	??_gpio_pin_direction_initializion^0,f,c
  2862   001BBE  EFE3  F00D         	goto	u4014
  2863   001BC2                     u4015:
  2864   001BC2  90D8               	bcf	status,0,c
  2865   001BC4  3605               	rlcf	(??_gpio_pin_direction_initializion+1)^0,f,c
  2866   001BC6                     u4014:
  2867   001BC6  2E04               	decfsz	??_gpio_pin_direction_initializion^0,f,c
  2868   001BC8  EFE1  F00D         	goto	u4015
  2869   001BCC  5005               	movf	(??_gpio_pin_direction_initializion+1)^0,w,c
  2870   001BCE  0AFF               	xorlw	255
  2871   001BD0  6E06               	movwf	(??_gpio_pin_direction_initializion+2)^0,c
  2872   001BD2  5003               	movf	gpio_pin_direction_initializion@pin_config^0,w,c
  2873   001BD4  6ED9               	movwf	fsr2l,c
  2874   001BD6  6ADA               	clrf	fsr2h,c
  2875   001BD8  50DF               	movf	223,w,c
  2876   001BDA  0B07               	andlw	7
  2877   001BDC  0D02               	mullw	2
  2878   001BDE  50F3               	movf	243,w,c
  2879   001BE0  0FC1               	addlw	low _tris_register
  2880   001BE2  6ED9               	movwf	fsr2l,c
  2881   001BE4  6ADA               	clrf	fsr2h,c
  2882   001BE6  CFDE F007          	movff	postinc2,??_gpio_pin_direction_initializion+3
  2883   001BEA  CFDD F008          	movff	postdec2,??_gpio_pin_direction_initializion+4
  2884   001BEE  C007  FFD9         	movff	??_gpio_pin_direction_initializion+3,fsr2l
  2885   001BF2  C008  FFDA         	movff	??_gpio_pin_direction_initializion+4,fsr2h
  2886   001BF6  5006               	movf	(??_gpio_pin_direction_initializion+2)^0,w,c
  2887   001BF8  16DF               	andwf	indf2,f,c
  2888                           
  2889                           ;MCAL_Layer/GPIO/hal_gpio.c: 31:                 break;
  2890   001BFA  EF3D  F00E         	goto	l5426
  2891   001BFE                     l5420:
  2892                           
  2893                           ;MCAL_Layer/GPIO/hal_gpio.c: 33:                 (*tris_register[pin_config->port] |= (1
      +                           << pin_config->pin));
  2894   001BFE  5003               	movf	gpio_pin_direction_initializion@pin_config^0,w,c
  2895   001C00  6ED9               	movwf	fsr2l,c
  2896   001C02  6ADA               	clrf	fsr2h,c
  2897   001C04  30DF               	rrcf	223,w,c
  2898   001C06  32E8               	rrcf	wreg,f,c
  2899   001C08  32E8               	rrcf	wreg,f,c
  2900   001C0A  0B07               	andlw	7
  2901   001C0C  6E04               	movwf	??_gpio_pin_direction_initializion^0,c
  2902   001C0E  0E01               	movlw	1
  2903   001C10  6E05               	movwf	(??_gpio_pin_direction_initializion+1)^0,c
  2904   001C12  2A04               	incf	??_gpio_pin_direction_initializion^0,f,c
  2905   001C14  EF0E  F00E         	goto	u4024
  2906   001C18                     u4025:
  2907   001C18  90D8               	bcf	status,0,c
  2908   001C1A  3605               	rlcf	(??_gpio_pin_direction_initializion+1)^0,f,c
  2909   001C1C                     u4024:
  2910   001C1C  2E04               	decfsz	??_gpio_pin_direction_initializion^0,f,c
  2911   001C1E  EF0C  F00E         	goto	u4025
  2912   001C22  5003               	movf	gpio_pin_direction_initializion@pin_config^0,w,c
  2913   001C24  6ED9               	movwf	fsr2l,c
  2914   001C26  6ADA               	clrf	fsr2h,c
  2915   001C28  50DF               	movf	223,w,c
  2916   001C2A  0B07               	andlw	7
  2917   001C2C  0D02               	mullw	2
  2918   001C2E  50F3               	movf	243,w,c
  2919   001C30  0FC1               	addlw	low _tris_register
  2920   001C32  6ED9               	movwf	fsr2l,c
  2921   001C34  6ADA               	clrf	fsr2h,c
  2922   001C36  CFDE F006          	movff	postinc2,??_gpio_pin_direction_initializion+2
  2923   001C3A  CFDD F007          	movff	postdec2,??_gpio_pin_direction_initializion+3
  2924   001C3E  C006  FFD9         	movff	??_gpio_pin_direction_initializion+2,fsr2l
  2925   001C42  C007  FFDA         	movff	??_gpio_pin_direction_initializion+3,fsr2h
  2926   001C46  5005               	movf	(??_gpio_pin_direction_initializion+1)^0,w,c
  2927   001C48  12DF               	iorwf	indf2,f,c
  2928                           
  2929                           ;MCAL_Layer/GPIO/hal_gpio.c: 34:                 break;
  2930   001C4A  EF3D  F00E         	goto	l5426
  2931   001C4E                     l5424:
  2932   001C4E  5003               	movf	gpio_pin_direction_initializion@pin_config^0,w,c
  2933   001C50  6ED9               	movwf	fsr2l,c
  2934   001C52  6ADA               	clrf	fsr2h,c
  2935   001C54  BCDF               	btfsc	indf2,6,c
  2936   001C56  EF2F  F00E         	goto	u4031
  2937   001C5A  EF32  F00E         	goto	u4030
  2938   001C5E                     u4031:
  2939   001C5E  0E01               	movlw	1
  2940   001C60  EF33  F00E         	goto	u4036
  2941   001C64                     u4030:
  2942   001C64  0E00               	movlw	0
  2943   001C66                     u4036:
  2944                           
  2945                           ; Switch size 1, requested type "simple"
  2946                           ; Number of cases is 2, Range of values is 0 to 1
  2947                           ; switch strategies available:
  2948                           ; Name         Instructions Cycles
  2949                           ; simple_byte            7     4 (average)
  2950                           ;	Chosen strategy is simple_byte
  2951   001C66  0A00               	xorlw	0	; case 0
  2952   001C68  B4D8               	btfsc	status,2,c
  2953   001C6A  EFD4  F00D         	goto	l5418
  2954   001C6E  0A01               	xorlw	1	; case 1
  2955   001C70  B4D8               	btfsc	status,2,c
  2956   001C72  EFFF  F00D         	goto	l5420
  2957   001C76  EFD0  F00D         	goto	l5416
  2958   001C7A                     l5426:
  2959                           
  2960                           ;MCAL_Layer/GPIO/hal_gpio.c: 38:     return ret;
  2961   001C7A  5009               	movf	gpio_pin_direction_initializion@ret^0,w,c
  2962   001C7C  0012               	return		;funcret
  2963   001C7E                     __end_of_gpio_pin_direction_initializion:
  2964                           	callstack 0
  2965                           
  2966 ;; *************** function _MSSP_I2C_Init *****************
  2967 ;; Defined at:
  2968 ;;		line 26 in file "MCAL_Layer/I2C/hal_i2c.c"
  2969 ;; Parameters:    Size  Location     Type
  2970 ;;  i2c_obj         1   69[COMRAM] PTR const struct .
  2971 ;;		 -> mssp_i2c2(16), 
  2972 ;; Auto vars:     Size  Location     Type
  2973 ;;  ret             1    0        unsigned char 
  2974 ;; Return value:  Size  Location     Type
  2975 ;;                  1    wreg      unsigned char 
  2976 ;; Registers used:
  2977 ;;		wreg, fsr2l, fsr2h, status,2, status,0, cstack
  2978 ;; Tracked objects:
  2979 ;;		On entry : 0/0
  2980 ;;		On exit  : 0/0
  2981 ;;		Unchanged: 0/0
  2982 ;; Data sizes:     COMRAM   BANK0   BANK1   BANK2   BANK3   BANK4   BANK5   BANK6   BANK7   BANK8   BANK9  BANK10  BANK1
      +1  BANK12  BANK13  BANK14  BANK15
  2983 ;;      Params:         1       0       0       0       0       0       0       0       0       0       0       0       
      +0       0       0       0       0
  2984 ;;      Locals:         0       0       0       0       0       0       0       0       0       0       0       0       
      +0       0       0       0       0
  2985 ;;      Temps:          1       0       0       0       0       0       0       0       0       0       0       0       
      +0       0       0       0       0
  2986 ;;      Totals:         2       0       0       0       0       0       0       0       0       0       0       0       
      +0       0       0       0       0
  2987 ;;Total ram usage:        2 bytes
  2988 ;; Hardware stack levels used: 1
  2989 ;; Hardware stack levels required when called: 5
  2990 ;; This function calls:
  2991 ;;		_I2C_MASTER_MODE_CLOCK_CONFIG
  2992 ;;		_I2C_Slave_Mode_Config
  2993 ;;		_MSSP_I2C_Interrupt_config
  2994 ;;		_MSSP_I2C_MODE_GPIO_CFG
  2995 ;; This function is called by:
  2996 ;;		_application_initialize
  2997 ;; This function uses a non-reentrant model
  2998 ;;
  2999                           
  3000                           	psect	text20
  3001   001A42                     __ptext20:
  3002                           	callstack 0
  3003   001A42                     _MSSP_I2C_Init:
  3004                           	callstack 24
  3005   001A42                     
  3006                           ;MCAL_Layer/I2C/hal_i2c.c: 28:     if (i2c_obj == ((void*)0)) {
  3007   001A42  5046               	movf	MSSP_I2C_Init@i2c_obj^0,w,c
  3008   001A44  A4D8               	btfss	status,2,c
  3009   001A46  EF27  F00D         	goto	u4991
  3010   001A4A  EF29  F00D         	goto	u4990
  3011   001A4E                     u4991:
  3012   001A4E  EF2B  F00D         	goto	l991
  3013   001A52                     u4990:
  3014   001A52                     
  3015                           ;MCAL_Layer/I2C/hal_i2c.c: 30:     } else {
  3016   001A52  EFB5  F00D         	goto	l1008
  3017   001A56                     l991:
  3018                           
  3019                           ;MCAL_Layer/I2C/hal_i2c.c: 32:         (SSPCON1bits.SSPEN = 0);
  3020   001A56  9AC6               	bcf	198,5,c	;volatile
  3021   001A58                     
  3022                           ;MCAL_Layer/I2C/hal_i2c.c: 34:         if (i2c_obj->i2c_config.i2c_mode == 1) {
  3023   001A58  5046               	movf	MSSP_I2C_Init@i2c_obj^0,w,c
  3024   001A5A  6ED9               	movwf	fsr2l,c
  3025   001A5C  6ADA               	clrf	fsr2h,c
  3026   001A5E  0E04               	movlw	4
  3027   001A60  26D9               	addwf	fsr2l,f,c
  3028   001A62  04DE               	decf	postinc2,w,c
  3029   001A64  A4D8               	btfss	status,2,c
  3030   001A66  EF37  F00D         	goto	u5001
  3031   001A6A  EF39  F00D         	goto	u5000
  3032   001A6E                     u5001:
  3033   001A6E  EF3F  F00D         	goto	l6066
  3034   001A72                     u5000:
  3035   001A72                     
  3036                           ;MCAL_Layer/I2C/hal_i2c.c: 35:             I2C_MASTER_MODE_CLOCK_CONFIG(i2c_obj);
  3037   001A72  C046  F044         	movff	MSSP_I2C_Init@i2c_obj,I2C_MASTER_MODE_CLOCK_CONFIG@i2c_obj
  3038   001A76  EC2D  F010         	call	_I2C_MASTER_MODE_CLOCK_CONFIG	;wreg free
  3039                           
  3040                           ;MCAL_Layer/I2C/hal_i2c.c: 36:         } else if (i2c_obj->i2c_config.i2c_mode == 0) {
  3041   001A7A  EF76  F00D         	goto	l6080
  3042   001A7E                     l6066:
  3043   001A7E  5046               	movf	MSSP_I2C_Init@i2c_obj^0,w,c
  3044   001A80  6ED9               	movwf	fsr2l,c
  3045   001A82  6ADA               	clrf	fsr2h,c
  3046   001A84  0E04               	movlw	4
  3047   001A86  26D9               	addwf	fsr2l,f,c
  3048   001A88  50DF               	movf	indf2,w,c
  3049   001A8A  A4D8               	btfss	status,2,c
  3050   001A8C  EF4A  F00D         	goto	u5011
  3051   001A90  EF4C  F00D         	goto	u5010
  3052   001A94                     u5011:
  3053   001A94  EF76  F00D         	goto	l6080
  3054   001A98                     u5010:
  3055   001A98                     
  3056                           ;MCAL_Layer/I2C/hal_i2c.c: 38:             if (i2c_obj->i2c_config.i2c_generel_call == 1
      +                          ) {
  3057   001A98  5046               	movf	MSSP_I2C_Init@i2c_obj^0,w,c
  3058   001A9A  6ED9               	movwf	fsr2l,c
  3059   001A9C  6ADA               	clrf	fsr2h,c
  3060   001A9E  0E06               	movlw	6
  3061   001AA0  26D9               	addwf	fsr2l,f,c
  3062   001AA2  A4DF               	btfss	indf2,2,c
  3063   001AA4  EF56  F00D         	goto	u5021
  3064   001AA8  EF58  F00D         	goto	u5020
  3065   001AAC                     u5021:
  3066   001AAC  EF5B  F00D         	goto	l6072
  3067   001AB0                     u5020:
  3068   001AB0                     
  3069                           ;MCAL_Layer/I2C/hal_i2c.c: 39:                 (SSPCON2bits.GCEN = 1);
  3070   001AB0  8EC5               	bsf	197,7,c	;volatile
  3071                           
  3072                           ;MCAL_Layer/I2C/hal_i2c.c: 40:             } else if (i2c_obj->i2c_config.i2c_generel_ca
      +                          ll == 0) {
  3073   001AB2  EF68  F00D         	goto	l997
  3074   001AB6                     l6072:
  3075   001AB6  5046               	movf	MSSP_I2C_Init@i2c_obj^0,w,c
  3076   001AB8  6ED9               	movwf	fsr2l,c
  3077   001ABA  6ADA               	clrf	fsr2h,c
  3078   001ABC  0E06               	movlw	6
  3079   001ABE  26D9               	addwf	fsr2l,f,c
  3080   001AC0  B4DF               	btfsc	indf2,2,c
  3081   001AC2  EF65  F00D         	goto	u5031
  3082   001AC6  EF67  F00D         	goto	u5030
  3083   001ACA                     u5031:
  3084   001ACA  EF68  F00D         	goto	l997
  3085   001ACE                     u5030:
  3086   001ACE                     
  3087                           ;MCAL_Layer/I2C/hal_i2c.c: 41:                 (SSPCON2bits.GCEN = 0);
  3088   001ACE  9EC5               	bcf	197,7,c	;volatile
  3089   001AD0                     l997:
  3090                           
  3091                           ;MCAL_Layer/I2C/hal_i2c.c: 46:             SSPCON1bits.WCOL = 0;
  3092   001AD0  9EC6               	bcf	198,7,c	;volatile
  3093                           
  3094                           ;MCAL_Layer/I2C/hal_i2c.c: 48:             SSPCON1bits.SSPOV = 0;
  3095   001AD2  9CC6               	bcf	198,6,c	;volatile
  3096                           
  3097                           ;MCAL_Layer/I2C/hal_i2c.c: 50:             SSPCON1bits.CKP = 1;
  3098   001AD4  88C6               	bsf	198,4,c	;volatile
  3099   001AD6                     
  3100                           ;MCAL_Layer/I2C/hal_i2c.c: 52:             SSPADD = i2c_obj->i2c_config.i2c_slave_addres
      +                          s;
  3101   001AD6  5046               	movf	MSSP_I2C_Init@i2c_obj^0,w,c
  3102   001AD8  6ED9               	movwf	fsr2l,c
  3103   001ADA  6ADA               	clrf	fsr2h,c
  3104   001ADC  0E07               	movlw	7
  3105   001ADE  26D9               	addwf	fsr2l,f,c
  3106   001AE0  50DF               	movf	indf2,w,c
  3107   001AE2  6EC8               	movwf	200,c	;volatile
  3108   001AE4                     
  3109                           ;MCAL_Layer/I2C/hal_i2c.c: 54:             I2C_Slave_Mode_Config(i2c_obj);
  3110   001AE4  C046  F003         	movff	MSSP_I2C_Init@i2c_obj,I2C_Slave_Mode_Config@i2c_obj
  3111   001AE8  EC63  F013         	call	_I2C_Slave_Mode_Config	;wreg free
  3112   001AEC                     l6080:
  3113                           
  3114                           ;MCAL_Layer/I2C/hal_i2c.c: 57:         MSSP_I2C_MODE_GPIO_CFG();
  3115   001AEC  EC7A  F013         	call	_MSSP_I2C_MODE_GPIO_CFG	;wreg free
  3116   001AF0                     
  3117                           ;MCAL_Layer/I2C/hal_i2c.c: 59:         if (i2c_obj->i2c_config.i2c_slew_rate == 0) {
  3118   001AF0  5046               	movf	MSSP_I2C_Init@i2c_obj^0,w,c
  3119   001AF2  6ED9               	movwf	fsr2l,c
  3120   001AF4  6ADA               	clrf	fsr2h,c
  3121   001AF6  0E06               	movlw	6
  3122   001AF8  26D9               	addwf	fsr2l,f,c
  3123   001AFA  B0DF               	btfsc	indf2,0,c
  3124   001AFC  EF82  F00D         	goto	u5041
  3125   001B00  EF84  F00D         	goto	u5040
  3126   001B04                     u5041:
  3127   001B04  EF87  F00D         	goto	l6086
  3128   001B08                     u5040:
  3129   001B08                     
  3130                           ;MCAL_Layer/I2C/hal_i2c.c: 60:             (SSPSTATbits.SMP = 0);
  3131   001B08  9EC7               	bcf	199,7,c	;volatile
  3132                           
  3133                           ;MCAL_Layer/I2C/hal_i2c.c: 61:         } else if (i2c_obj->i2c_config.i2c_slew_rate == 1
      +                          ) {
  3134   001B0A  EF94  F00D         	goto	l6090
  3135   001B0E                     l6086:
  3136   001B0E  5046               	movf	MSSP_I2C_Init@i2c_obj^0,w,c
  3137   001B10  6ED9               	movwf	fsr2l,c
  3138   001B12  6ADA               	clrf	fsr2h,c
  3139   001B14  0E06               	movlw	6
  3140   001B16  26D9               	addwf	fsr2l,f,c
  3141   001B18  A0DF               	btfss	indf2,0,c
  3142   001B1A  EF91  F00D         	goto	u5051
  3143   001B1E  EF93  F00D         	goto	u5050
  3144   001B22                     u5051:
  3145   001B22  EF94  F00D         	goto	l6090
  3146   001B26                     u5050:
  3147   001B26                     
  3148                           ;MCAL_Layer/I2C/hal_i2c.c: 62:             (SSPSTATbits.SMP = 1);
  3149   001B26  8EC7               	bsf	199,7,c	;volatile
  3150   001B28                     l6090:
  3151                           
  3152                           ;MCAL_Layer/I2C/hal_i2c.c: 67:         if (i2c_obj->i2c_config.i2c_smbus == 1) {
  3153   001B28  5046               	movf	MSSP_I2C_Init@i2c_obj^0,w,c
  3154   001B2A  6ED9               	movwf	fsr2l,c
  3155   001B2C  6ADA               	clrf	fsr2h,c
  3156   001B2E  0E06               	movlw	6
  3157   001B30  26D9               	addwf	fsr2l,f,c
  3158   001B32  A2DF               	btfss	indf2,1,c
  3159   001B34  EF9E  F00D         	goto	u5061
  3160   001B38  EFA0  F00D         	goto	u5060
  3161   001B3C                     u5061:
  3162   001B3C  EFA3  F00D         	goto	l6094
  3163   001B40                     u5060:
  3164   001B40                     
  3165                           ;MCAL_Layer/I2C/hal_i2c.c: 68:             (SSPSTATbits.CKE = 1);
  3166   001B40  8CC7               	bsf	199,6,c	;volatile
  3167                           
  3168                           ;MCAL_Layer/I2C/hal_i2c.c: 69:         } else if (i2c_obj->i2c_config.i2c_smbus == 0) {
  3169   001B42  EFB0  F00D         	goto	l6098
  3170   001B46                     l6094:
  3171   001B46  5046               	movf	MSSP_I2C_Init@i2c_obj^0,w,c
  3172   001B48  6ED9               	movwf	fsr2l,c
  3173   001B4A  6ADA               	clrf	fsr2h,c
  3174   001B4C  0E06               	movlw	6
  3175   001B4E  26D9               	addwf	fsr2l,f,c
  3176   001B50  B2DF               	btfsc	indf2,1,c
  3177   001B52  EFAD  F00D         	goto	u5071
  3178   001B56  EFAF  F00D         	goto	u5070
  3179   001B5A                     u5071:
  3180   001B5A  EFB0  F00D         	goto	l6098
  3181   001B5E                     u5070:
  3182   001B5E                     
  3183                           ;MCAL_Layer/I2C/hal_i2c.c: 70:             (SSPSTATbits.CKE = 0);
  3184   001B5E  9CC7               	bcf	199,6,c	;volatile
  3185   001B60                     l6098:
  3186                           
  3187                           ;MCAL_Layer/I2C/hal_i2c.c: 75:         MSSP_I2C_Interrupt_config(i2c_obj);
  3188   001B60  C046  F003         	movff	MSSP_I2C_Init@i2c_obj,MSSP_I2C_Interrupt_config@i2c_obj
  3189   001B64  EC75  F012         	call	_MSSP_I2C_Interrupt_config	;wreg free
  3190   001B68                     
  3191                           ;MCAL_Layer/I2C/hal_i2c.c: 77:         (SSPCON1bits.SSPEN = 1);
  3192   001B68  8AC6               	bsf	198,5,c	;volatile
  3193   001B6A                     l1008:
  3194   001B6A  0012               	return		;funcret
  3195   001B6C                     __end_of_MSSP_I2C_Init:
  3196                           	callstack 0
  3197                           
  3198 ;; *************** function _MSSP_I2C_MODE_GPIO_CFG *****************
  3199 ;; Defined at:
  3200 ;;		line 275 in file "MCAL_Layer/I2C/hal_i2c.c"
  3201 ;; Parameters:    Size  Location     Type
  3202 ;;		None
  3203 ;; Auto vars:     Size  Location     Type
  3204 ;;		None
  3205 ;; Return value:  Size  Location     Type
  3206 ;;                  1    wreg      void 
  3207 ;; Registers used:
  3208 ;;		status,2, status,0
  3209 ;; Tracked objects:
  3210 ;;		On entry : 0/0
  3211 ;;		On exit  : 0/0
  3212 ;;		Unchanged: 0/0
  3213 ;; Data sizes:     COMRAM   BANK0   BANK1   BANK2   BANK3   BANK4   BANK5   BANK6   BANK7   BANK8   BANK9  BANK10  BANK1
      +1  BANK12  BANK13  BANK14  BANK15
  3214 ;;      Params:         0       0       0       0       0       0       0       0       0       0       0       0       
      +0       0       0       0       0
  3215 ;;      Locals:         0       0       0       0       0       0       0       0       0       0       0       0       
      +0       0       0       0       0
  3216 ;;      Temps:          0       0       0       0       0       0       0       0       0       0       0       0       
      +0       0       0       0       0
  3217 ;;      Totals:         0       0       0       0       0       0       0       0       0       0       0       0       
      +0       0       0       0       0
  3218 ;;Total ram usage:        0 bytes
  3219 ;; Hardware stack levels used: 1
  3220 ;; Hardware stack levels required when called: 3
  3221 ;; This function calls:
  3222 ;;		Nothing
  3223 ;; This function is called by:
  3224 ;;		_MSSP_I2C_Init
  3225 ;; This function uses a non-reentrant model
  3226 ;;
  3227                           
  3228                           	psect	text21
  3229   0026F4                     __ptext21:
  3230                           	callstack 0
  3231   0026F4                     _MSSP_I2C_MODE_GPIO_CFG:
  3232                           	callstack 25
  3233   0026F4                     
  3234                           ;MCAL_Layer/I2C/hal_i2c.c: 276:     (TRISC |= (1 << 0x3));
  3235   0026F4  8694               	bsf	148,3,c	;volatile
  3236                           
  3237                           ;MCAL_Layer/I2C/hal_i2c.c: 277:     (TRISC |= (1 << 0x4));
  3238   0026F6  8894               	bsf	148,4,c	;volatile
  3239   0026F8  0012               	return		;funcret
  3240   0026FA                     __end_of_MSSP_I2C_MODE_GPIO_CFG:
  3241                           	callstack 0
  3242                           
  3243 ;; *************** function _MSSP_I2C_Interrupt_config *****************
  3244 ;; Defined at:
  3245 ;;		line 302 in file "MCAL_Layer/I2C/hal_i2c.c"
  3246 ;; Parameters:    Size  Location     Type
  3247 ;;  i2c_obj         1    2[COMRAM] PTR const struct .
  3248 ;;		 -> mssp_i2c2(16), 
  3249 ;; Auto vars:     Size  Location     Type
  3250 ;;		None
  3251 ;; Return value:  Size  Location     Type
  3252 ;;                  1    wreg      void 
  3253 ;; Registers used:
  3254 ;;		wreg, fsr2l, fsr2h, status,2, status,0
  3255 ;; Tracked objects:
  3256 ;;		On entry : 0/0
  3257 ;;		On exit  : 0/0
  3258 ;;		Unchanged: 0/0
  3259 ;; Data sizes:     COMRAM   BANK0   BANK1   BANK2   BANK3   BANK4   BANK5   BANK6   BANK7   BANK8   BANK9  BANK10  BANK1
      +1  BANK12  BANK13  BANK14  BANK15
  3260 ;;      Params:         1       0       0       0       0       0       0       0       0       0       0       0       
      +0       0       0       0       0
  3261 ;;      Locals:         0       0       0       0       0       0       0       0       0       0       0       0       
      +0       0       0       0       0
  3262 ;;      Temps:          0       0       0       0       0       0       0       0       0       0       0       0       
      +0       0       0       0       0
  3263 ;;      Totals:         1       0       0       0       0       0       0       0       0       0       0       0       
      +0       0       0       0       0
  3264 ;;Total ram usage:        1 bytes
  3265 ;; Hardware stack levels used: 1
  3266 ;; Hardware stack levels required when called: 3
  3267 ;; This function calls:
  3268 ;;		Nothing
  3269 ;; This function is called by:
  3270 ;;		_MSSP_I2C_Init
  3271 ;; This function uses a non-reentrant model
  3272 ;;
  3273                           
  3274                           	psect	text22
  3275   0024EA                     __ptext22:
  3276                           	callstack 0
  3277   0024EA                     _MSSP_I2C_Interrupt_config:
  3278                           	callstack 25
  3279   0024EA                     
  3280                           ;MCAL_Layer/I2C/hal_i2c.c: 304:     (PIE1bits.SSPIE = 1);
  3281   0024EA  869D               	bsf	157,3,c	;volatile
  3282                           
  3283                           ;MCAL_Layer/I2C/hal_i2c.c: 305:     (PIR1bits.SSPIF = 0);
  3284   0024EC  969E               	bcf	158,3,c	;volatile
  3285                           
  3286                           ;MCAL_Layer/I2C/hal_i2c.c: 306:     (PIE2bits.BCLIE = 1);
  3287   0024EE  86A0               	bsf	160,3,c	;volatile
  3288                           
  3289                           ;MCAL_Layer/I2C/hal_i2c.c: 307:     (PIR2bits.BCLIF = 0);
  3290   0024F0  96A1               	bcf	161,3,c	;volatile
  3291                           
  3292                           ;MCAL_Layer/I2C/hal_i2c.c: 327:     (INTCONbits.GIE = 1);
  3293   0024F2  8EF2               	bsf	242,7,c	;volatile
  3294                           
  3295                           ;MCAL_Layer/I2C/hal_i2c.c: 328:     (INTCONbits.PEIE = 1);
  3296   0024F4  8CF2               	bsf	242,6,c	;volatile
  3297   0024F6                     
  3298                           ;MCAL_Layer/I2C/hal_i2c.c: 330:     I2C_Default_Interrupt_Handler = i2c_obj->I2C_Default
      +                          InterruptHandler;
  3299   0024F6  5003               	movf	MSSP_I2C_Interrupt_config@i2c_obj^0,w,c
  3300   0024F8  6ED9               	movwf	fsr2l,c
  3301   0024FA  6ADA               	clrf	fsr2h,c
  3302   0024FC  0E0C               	movlw	12
  3303   0024FE  26D9               	addwf	fsr2l,f,c
  3304   002500  CFDE F048          	movff	postinc2,_I2C_Default_Interrupt_Handler
  3305   002504  CFDD F049          	movff	postdec2,_I2C_Default_Interrupt_Handler+1
  3306                           
  3307                           ;MCAL_Layer/I2C/hal_i2c.c: 331:     I2C_Report_Write_Collision_Interrupt_Handler = i2c_o
      +                          bj->I2C_Report_Write_Collision;
  3308   002508  5003               	movf	MSSP_I2C_Interrupt_config@i2c_obj^0,w,c
  3309   00250A  6ED9               	movwf	fsr2l,c
  3310   00250C  6ADA               	clrf	fsr2h,c
  3311   00250E  0E0A               	movlw	10
  3312   002510  26D9               	addwf	fsr2l,f,c
  3313   002512  CFDE F09B          	movff	postinc2,_I2C_Report_Write_Collision_Interrupt_Handler
  3314   002516  CFDD F09C          	movff	postdec2,_I2C_Report_Write_Collision_Interrupt_Handler+1
  3315                           
  3316                           ;MCAL_Layer/I2C/hal_i2c.c: 332:     I2C_Report_Recieve_Overflow_Interrupt_Handler = i2c_
      +                          obj->I2C_Report_Recieve_Overflow;
  3317   00251A  5003               	movf	MSSP_I2C_Interrupt_config@i2c_obj^0,w,c
  3318   00251C  6ED9               	movwf	fsr2l,c
  3319   00251E  6ADA               	clrf	fsr2h,c
  3320   002520  0E0E               	movlw	14
  3321   002522  26D9               	addwf	fsr2l,f,c
  3322   002524  CFDE F099          	movff	postinc2,_I2C_Report_Recieve_Overflow_Interrupt_Handler
  3323   002528  CFDD F09A          	movff	postdec2,_I2C_Report_Recieve_Overflow_Interrupt_Handler+1
  3324   00252C  0012               	return		;funcret
  3325   00252E                     __end_of_MSSP_I2C_Interrupt_config:
  3326                           	callstack 0
  3327                           
  3328 ;; *************** function _I2C_Slave_Mode_Config *****************
  3329 ;; Defined at:
  3330 ;;		line 288 in file "MCAL_Layer/I2C/hal_i2c.c"
  3331 ;; Parameters:    Size  Location     Type
  3332 ;;  i2c_obj         1    2[COMRAM] PTR const struct .
  3333 ;;		 -> mssp_i2c2(16), 
  3334 ;; Auto vars:     Size  Location     Type
  3335 ;;		None
  3336 ;; Return value:  Size  Location     Type
  3337 ;;                  1    wreg      void 
  3338 ;; Registers used:
  3339 ;;		wreg, fsr2l, fsr2h, status,2, status,0
  3340 ;; Tracked objects:
  3341 ;;		On entry : 0/0
  3342 ;;		On exit  : 0/0
  3343 ;;		Unchanged: 0/0
  3344 ;; Data sizes:     COMRAM   BANK0   BANK1   BANK2   BANK3   BANK4   BANK5   BANK6   BANK7   BANK8   BANK9  BANK10  BANK1
      +1  BANK12  BANK13  BANK14  BANK15
  3345 ;;      Params:         1       0       0       0       0       0       0       0       0       0       0       0       
      +0       0       0       0       0
  3346 ;;      Locals:         0       0       0       0       0       0       0       0       0       0       0       0       
      +0       0       0       0       0
  3347 ;;      Temps:          1       0       0       0       0       0       0       0       0       0       0       0       
      +0       0       0       0       0
  3348 ;;      Totals:         2       0       0       0       0       0       0       0       0       0       0       0       
      +0       0       0       0       0
  3349 ;;Total ram usage:        2 bytes
  3350 ;; Hardware stack levels used: 1
  3351 ;; Hardware stack levels required when called: 3
  3352 ;; This function calls:
  3353 ;;		Nothing
  3354 ;; This function is called by:
  3355 ;;		_MSSP_I2C_Init
  3356 ;; This function uses a non-reentrant model
  3357 ;;
  3358                           
  3359                           	psect	text23
  3360   0026C6                     __ptext23:
  3361                           	callstack 0
  3362   0026C6                     _I2C_Slave_Mode_Config:
  3363                           	callstack 25
  3364   0026C6                     
  3365                           ;MCAL_Layer/I2C/hal_i2c.c: 289:     SSPCON1bits.SSPM = i2c_obj->i2c_config.i2c_mode_conf
      +                          ig;
  3366   0026C6  5003               	movf	I2C_Slave_Mode_Config@i2c_obj^0,w,c
  3367   0026C8  6ED9               	movwf	fsr2l,c
  3368   0026CA  6ADA               	clrf	fsr2h,c
  3369   0026CC  0E05               	movlw	5
  3370   0026CE  26D9               	addwf	fsr2l,f,c
  3371   0026D0  50DF               	movf	indf2,w,c
  3372   0026D2  6E04               	movwf	??_I2C_Slave_Mode_Config^0,c
  3373   0026D4  50C6               	movf	198,w,c	;volatile
  3374   0026D6  1804               	xorwf	??_I2C_Slave_Mode_Config^0,w,c
  3375   0026D8  0BF0               	andlw	-16
  3376   0026DA  1804               	xorwf	??_I2C_Slave_Mode_Config^0,w,c
  3377   0026DC  6EC6               	movwf	198,c	;volatile
  3378   0026DE  0012               	return		;funcret
  3379   0026E0                     __end_of_I2C_Slave_Mode_Config:
  3380                           	callstack 0
  3381                           
  3382 ;; *************** function _I2C_MASTER_MODE_CLOCK_CONFIG *****************
  3383 ;; Defined at:
  3384 ;;		line 263 in file "MCAL_Layer/I2C/hal_i2c.c"
  3385 ;; Parameters:    Size  Location     Type
  3386 ;;  i2c_obj         1   67[COMRAM] PTR const struct .
  3387 ;;		 -> mssp_i2c2(16), 
  3388 ;; Auto vars:     Size  Location     Type
  3389 ;;		None
  3390 ;; Return value:  Size  Location     Type
  3391 ;;                  1    wreg      void 
  3392 ;; Registers used:
  3393 ;;		wreg, fsr2l, fsr2h, status,2, status,0, cstack
  3394 ;; Tracked objects:
  3395 ;;		On entry : 0/0
  3396 ;;		On exit  : 0/0
  3397 ;;		Unchanged: 0/0
  3398 ;; Data sizes:     COMRAM   BANK0   BANK1   BANK2   BANK3   BANK4   BANK5   BANK6   BANK7   BANK8   BANK9  BANK10  BANK1
      +1  BANK12  BANK13  BANK14  BANK15
  3399 ;;      Params:         1       0       0       0       0       0       0       0       0       0       0       0       
      +0       0       0       0       0
  3400 ;;      Locals:         0       0       0       0       0       0       0       0       0       0       0       0       
      +0       0       0       0       0
  3401 ;;      Temps:          1       0       0       0       0       0       0       0       0       0       0       0       
      +0       0       0       0       0
  3402 ;;      Totals:         2       0       0       0       0       0       0       0       0       0       0       0       
      +0       0       0       0       0
  3403 ;;Total ram usage:        2 bytes
  3404 ;; Hardware stack levels used: 1
  3405 ;; Hardware stack levels required when called: 4
  3406 ;; This function calls:
  3407 ;;		___fladd
  3408 ;;		___fldiv
  3409 ;;		___fltol
  3410 ;;		___xxtofl
  3411 ;; This function is called by:
  3412 ;;		_MSSP_I2C_Init
  3413 ;; This function uses a non-reentrant model
  3414 ;;
  3415                           
  3416                           	psect	text24
  3417   00205A                     __ptext24:
  3418                           	callstack 0
  3419   00205A                     _I2C_MASTER_MODE_CLOCK_CONFIG:
  3420                           	callstack 24
  3421   00205A                     
  3422                           ;MCAL_Layer/I2C/hal_i2c.c: 264:     SSPCON1bits.SSPM = i2c_obj->i2c_config.i2c_mode_conf
      +                          ig;
  3423   00205A  5044               	movf	I2C_MASTER_MODE_CLOCK_CONFIG@i2c_obj^0,w,c
  3424   00205C  6ED9               	movwf	fsr2l,c
  3425   00205E  6ADA               	clrf	fsr2h,c
  3426   002060  0E05               	movlw	5
  3427   002062  26D9               	addwf	fsr2l,f,c
  3428   002064  50DF               	movf	indf2,w,c
  3429   002066  6E45               	movwf	??_I2C_MASTER_MODE_CLOCK_CONFIG^0,c
  3430   002068  50C6               	movf	198,w,c	;volatile
  3431   00206A  1845               	xorwf	??_I2C_MASTER_MODE_CLOCK_CONFIG^0,w,c
  3432   00206C  0BF0               	andlw	-16
  3433   00206E  1845               	xorwf	??_I2C_MASTER_MODE_CLOCK_CONFIG^0,w,c
  3434   002070  6EC6               	movwf	198,c	;volatile
  3435   002072                     
  3436                           ;MCAL_Layer/I2C/hal_i2c.c: 265:     SSPADD = (uint8) (((16000000UL / 4.0) / i2c_obj->clo
      +                          ck) - 1);
  3437   002072  0E00               	movlw	0
  3438   002074  6E2E               	movwf	___fladd@a^0,c
  3439   002076  0E00               	movlw	0
  3440   002078  6E2F               	movwf	(___fladd@a+1)^0,c
  3441   00207A  0E80               	movlw	128
  3442   00207C  6E30               	movwf	(___fladd@a+2)^0,c
  3443   00207E  0EBF               	movlw	191
  3444   002080  6E31               	movwf	(___fladd@a+3)^0,c
  3445   002082  5044               	movf	I2C_MASTER_MODE_CLOCK_CONFIG@i2c_obj^0,w,c
  3446   002084  6ED9               	movwf	fsr2l,c
  3447   002086  6ADA               	clrf	fsr2h,c
  3448   002088  CFDE F003          	movff	postinc2,___xxtofl@val
  3449   00208C  CFDE F004          	movff	postinc2,___xxtofl@val+1
  3450   002090  CFDE F005          	movff	postinc2,___xxtofl@val+2
  3451   002094  CFDE F006          	movff	postinc2,___xxtofl@val+3
  3452   002098  0E00               	movlw	0
  3453   00209A  EC47  F00C         	call	___xxtofl
  3454   00209E  C003  F015         	movff	?___xxtofl,___fldiv@a
  3455   0020A2  C004  F016         	movff	?___xxtofl+1,___fldiv@a+1
  3456   0020A6  C005  F017         	movff	?___xxtofl+2,___fldiv@a+2
  3457   0020AA  C006  F018         	movff	?___xxtofl+3,___fldiv@a+3
  3458   0020AE  0E00               	movlw	0
  3459   0020B0  6E11               	movwf	___fldiv@b^0,c
  3460   0020B2  0E24               	movlw	36
  3461   0020B4  6E12               	movwf	(___fldiv@b+1)^0,c
  3462   0020B6  0E74               	movlw	116
  3463   0020B8  6E13               	movwf	(___fldiv@b+2)^0,c
  3464   0020BA  0E4A               	movlw	74
  3465   0020BC  6E14               	movwf	(___fldiv@b+3)^0,c
  3466   0020BE  EC7A  F00A         	call	___fldiv	;wreg free
  3467   0020C2  C011  F02A         	movff	?___fldiv,___fladd@b
  3468   0020C6  C012  F02B         	movff	?___fldiv+1,___fladd@b+1
  3469   0020CA  C013  F02C         	movff	?___fldiv+2,___fladd@b+2
  3470   0020CE  C014  F02D         	movff	?___fldiv+3,___fladd@b+3
  3471   0020D2  EC1A  F008         	call	___fladd	;wreg free
  3472   0020D6  C02A  F03A         	movff	?___fladd,___fltol@f1
  3473   0020DA  C02B  F03B         	movff	?___fladd+1,___fltol@f1+1
  3474   0020DE  C02C  F03C         	movff	?___fladd+2,___fltol@f1+2
  3475   0020E2  C02D  F03D         	movff	?___fladd+3,___fltol@f1+3
  3476   0020E6  ECC7  F00E         	call	___fltol	;wreg free
  3477   0020EA  503A               	movf	?___fltol^0,w,c
  3478   0020EC  6EC8               	movwf	200,c	;volatile
  3479   0020EE  0012               	return		;funcret
  3480   0020F0                     __end_of_I2C_MASTER_MODE_CLOCK_CONFIG:
  3481                           	callstack 0
  3482                           
  3483 ;; *************** function ___xxtofl *****************
  3484 ;; Defined at:
  3485 ;;		line 10 in file "C:\Program Files\Microchip\xc8\v2.46\pic\sources\c99\common\xxtofl.c"
  3486 ;; Parameters:    Size  Location     Type
  3487 ;;  sign            1    wreg     unsigned char 
  3488 ;;  val             4    2[COMRAM] long 
  3489 ;; Auto vars:     Size  Location     Type
  3490 ;;  sign            1   10[COMRAM] unsigned char 
  3491 ;;  arg             4   12[COMRAM] unsigned long 
  3492 ;;  exp             1   11[COMRAM] unsigned char 
  3493 ;; Return value:  Size  Location     Type
  3494 ;;                  4    2[COMRAM] unsigned char 
  3495 ;; Registers used:
  3496 ;;		wreg, status,2, status,0
  3497 ;; Tracked objects:
  3498 ;;		On entry : 0/0
  3499 ;;		On exit  : 0/0
  3500 ;;		Unchanged: 0/0
  3501 ;; Data sizes:     COMRAM   BANK0   BANK1   BANK2   BANK3   BANK4   BANK5   BANK6   BANK7   BANK8   BANK9  BANK10  BANK1
      +1  BANK12  BANK13  BANK14  BANK15
  3502 ;;      Params:         4       0       0       0       0       0       0       0       0       0       0       0       
      +0       0       0       0       0
  3503 ;;      Locals:         6       0       0       0       0       0       0       0       0       0       0       0       
      +0       0       0       0       0
  3504 ;;      Temps:          4       0       0       0       0       0       0       0       0       0       0       0       
      +0       0       0       0       0
  3505 ;;      Totals:        14       0       0       0       0       0       0       0       0       0       0       0       
      +0       0       0       0       0
  3506 ;;Total ram usage:       14 bytes
  3507 ;; Hardware stack levels used: 1
  3508 ;; Hardware stack levels required when called: 3
  3509 ;; This function calls:
  3510 ;;		Nothing
  3511 ;; This function is called by:
  3512 ;;		_I2C_MASTER_MODE_CLOCK_CONFIG
  3513 ;;		_EUSART_Baud_Rate_Calculation
  3514 ;; This function uses a non-reentrant model
  3515 ;;
  3516                           
  3517                           	psect	text25
  3518   00188E                     __ptext25:
  3519                           	callstack 0
  3520   00188E                     ___xxtofl:
  3521                           	callstack 24
  3522                           
  3523                           ;incstack = 0
  3524                           ;___xxtofl@sign stored from wreg
  3525   00188E  6E0B               	movwf	___xxtofl@sign^0,c
  3526   001890  500B               	movf	___xxtofl@sign^0,w,c
  3527   001892  B4D8               	btfsc	status,2,c
  3528   001894  EF4E  F00C         	goto	u4781
  3529   001898  EF50  F00C         	goto	u4780
  3530   00189C                     u4781:
  3531   00189C  EF72  F00C         	goto	l2347
  3532   0018A0                     u4780:
  3533   0018A0  BE06               	btfsc	(___xxtofl@val+3)^0,7,c
  3534   0018A2  EF57  F00C         	goto	u4790
  3535   0018A6  EF55  F00C         	goto	u4791
  3536   0018AA                     u4791:
  3537   0018AA  EF72  F00C         	goto	l2347
  3538   0018AE                     u4790:
  3539   0018AE  C003  F007         	movff	___xxtofl@val,??___xxtofl
  3540   0018B2  C004  F008         	movff	___xxtofl@val+1,??___xxtofl+1
  3541   0018B6  C005  F009         	movff	___xxtofl@val+2,??___xxtofl+2
  3542   0018BA  C006  F00A         	movff	___xxtofl@val+3,??___xxtofl+3
  3543   0018BE  1E07               	comf	??___xxtofl^0,f,c
  3544   0018C0  1E08               	comf	(??___xxtofl+1)^0,f,c
  3545   0018C2  1E09               	comf	(??___xxtofl+2)^0,f,c
  3546   0018C4  1E0A               	comf	(??___xxtofl+3)^0,f,c
  3547   0018C6  2A07               	incf	??___xxtofl^0,f,c
  3548   0018C8  0E00               	movlw	0
  3549   0018CA  2208               	addwfc	(??___xxtofl+1)^0,f,c
  3550   0018CC  2209               	addwfc	(??___xxtofl+2)^0,f,c
  3551   0018CE  220A               	addwfc	(??___xxtofl+3)^0,f,c
  3552   0018D0  C007  F00D         	movff	??___xxtofl,___xxtofl@arg
  3553   0018D4  C008  F00E         	movff	??___xxtofl+1,___xxtofl@arg+1
  3554   0018D8  C009  F00F         	movff	??___xxtofl+2,___xxtofl@arg+2
  3555   0018DC  C00A  F010         	movff	??___xxtofl+3,___xxtofl@arg+3
  3556   0018E0  EF7A  F00C         	goto	l5868
  3557   0018E4                     l2347:
  3558   0018E4  C003  F00D         	movff	___xxtofl@val,___xxtofl@arg
  3559   0018E8  C004  F00E         	movff	___xxtofl@val+1,___xxtofl@arg+1
  3560   0018EC  C005  F00F         	movff	___xxtofl@val+2,___xxtofl@arg+2
  3561   0018F0  C006  F010         	movff	___xxtofl@val+3,___xxtofl@arg+3
  3562   0018F4                     l5868:
  3563   0018F4  5003               	movf	___xxtofl@val^0,w,c
  3564   0018F6  1004               	iorwf	(___xxtofl@val+1)^0,w,c
  3565   0018F8  1005               	iorwf	(___xxtofl@val+2)^0,w,c
  3566   0018FA  1006               	iorwf	(___xxtofl@val+3)^0,w,c
  3567   0018FC  A4D8               	btfss	status,2,c
  3568   0018FE  EF83  F00C         	goto	u4801
  3569   001902  EF85  F00C         	goto	u4800
  3570   001906                     u4801:
  3571   001906  EF8F  F00C         	goto	l5874
  3572   00190A                     u4800:
  3573   00190A  0E00               	movlw	0
  3574   00190C  6E03               	movwf	?___xxtofl^0,c
  3575   00190E  0E00               	movlw	0
  3576   001910  6E04               	movwf	(?___xxtofl+1)^0,c
  3577   001912  0E00               	movlw	0
  3578   001914  6E05               	movwf	(?___xxtofl+2)^0,c
  3579   001916  0E00               	movlw	0
  3580   001918  6E06               	movwf	(?___xxtofl+3)^0,c
  3581   00191A  EF20  F00D         	goto	l2350
  3582   00191E                     l5874:
  3583   00191E  0E96               	movlw	150
  3584   001920  6E0C               	movwf	___xxtofl@exp^0,c
  3585   001922  EF99  F00C         	goto	l5878
  3586   001926                     l5876:
  3587   001926  2A0C               	incf	___xxtofl@exp^0,f,c
  3588   001928  90D8               	bcf	status,0,c
  3589   00192A  3210               	rrcf	(___xxtofl@arg+3)^0,f,c
  3590   00192C  320F               	rrcf	(___xxtofl@arg+2)^0,f,c
  3591   00192E  320E               	rrcf	(___xxtofl@arg+1)^0,f,c
  3592   001930  320D               	rrcf	___xxtofl@arg^0,f,c
  3593   001932                     l5878:
  3594   001932  0E00               	movlw	0
  3595   001934  140D               	andwf	___xxtofl@arg^0,w,c
  3596   001936  6E07               	movwf	??___xxtofl^0,c
  3597   001938  0E00               	movlw	0
  3598   00193A  140E               	andwf	(___xxtofl@arg+1)^0,w,c
  3599   00193C  6E08               	movwf	(??___xxtofl+1)^0,c
  3600   00193E  0E00               	movlw	0
  3601   001940  140F               	andwf	(___xxtofl@arg+2)^0,w,c
  3602   001942  6E09               	movwf	(??___xxtofl+2)^0,c
  3603   001944  0EFE               	movlw	254
  3604   001946  1410               	andwf	(___xxtofl@arg+3)^0,w,c
  3605   001948  6E0A               	movwf	(??___xxtofl+3)^0,c
  3606   00194A  5007               	movf	??___xxtofl^0,w,c
  3607   00194C  1008               	iorwf	(??___xxtofl+1)^0,w,c
  3608   00194E  1009               	iorwf	(??___xxtofl+2)^0,w,c
  3609   001950  100A               	iorwf	(??___xxtofl+3)^0,w,c
  3610   001952  A4D8               	btfss	status,2,c
  3611   001954  EFAE  F00C         	goto	u4811
  3612   001958  EFB0  F00C         	goto	u4810
  3613   00195C                     u4811:
  3614   00195C  EF93  F00C         	goto	l5876
  3615   001960                     u4810:
  3616   001960  EFBE  F00C         	goto	l2354
  3617   001964                     l5880:
  3618   001964  2A0C               	incf	___xxtofl@exp^0,f,c
  3619   001966  0E01               	movlw	1
  3620   001968  260D               	addwf	___xxtofl@arg^0,f,c
  3621   00196A  0E00               	movlw	0
  3622   00196C  220E               	addwfc	(___xxtofl@arg+1)^0,f,c
  3623   00196E  220F               	addwfc	(___xxtofl@arg+2)^0,f,c
  3624   001970  2210               	addwfc	(___xxtofl@arg+3)^0,f,c
  3625   001972  90D8               	bcf	status,0,c
  3626   001974  3210               	rrcf	(___xxtofl@arg+3)^0,f,c
  3627   001976  320F               	rrcf	(___xxtofl@arg+2)^0,f,c
  3628   001978  320E               	rrcf	(___xxtofl@arg+1)^0,f,c
  3629   00197A  320D               	rrcf	___xxtofl@arg^0,f,c
  3630   00197C                     l2354:
  3631   00197C  0E00               	movlw	0
  3632   00197E  140D               	andwf	___xxtofl@arg^0,w,c
  3633   001980  6E07               	movwf	??___xxtofl^0,c
  3634   001982  0E00               	movlw	0
  3635   001984  140E               	andwf	(___xxtofl@arg+1)^0,w,c
  3636   001986  6E08               	movwf	(??___xxtofl+1)^0,c
  3637   001988  0E00               	movlw	0
  3638   00198A  140F               	andwf	(___xxtofl@arg+2)^0,w,c
  3639   00198C  6E09               	movwf	(??___xxtofl+2)^0,c
  3640   00198E  0EFF               	movlw	255
  3641   001990  1410               	andwf	(___xxtofl@arg+3)^0,w,c
  3642   001992  6E0A               	movwf	(??___xxtofl+3)^0,c
  3643   001994  5007               	movf	??___xxtofl^0,w,c
  3644   001996  1008               	iorwf	(??___xxtofl+1)^0,w,c
  3645   001998  1009               	iorwf	(??___xxtofl+2)^0,w,c
  3646   00199A  100A               	iorwf	(??___xxtofl+3)^0,w,c
  3647   00199C  A4D8               	btfss	status,2,c
  3648   00199E  EFD3  F00C         	goto	u4821
  3649   0019A2  EFD5  F00C         	goto	u4820
  3650   0019A6                     u4821:
  3651   0019A6  EFB2  F00C         	goto	l5880
  3652   0019AA                     u4820:
  3653   0019AA  EFDD  F00C         	goto	l5888
  3654   0019AE                     l5886:
  3655   0019AE  060C               	decf	___xxtofl@exp^0,f,c
  3656   0019B0  90D8               	bcf	status,0,c
  3657   0019B2  360D               	rlcf	___xxtofl@arg^0,f,c
  3658   0019B4  360E               	rlcf	(___xxtofl@arg+1)^0,f,c
  3659   0019B6  360F               	rlcf	(___xxtofl@arg+2)^0,f,c
  3660   0019B8  3610               	rlcf	(___xxtofl@arg+3)^0,f,c
  3661   0019BA                     l5888:
  3662   0019BA  BE0F               	btfsc	(___xxtofl@arg+2)^0,7,c
  3663   0019BC  EFE2  F00C         	goto	u4831
  3664   0019C0  EFE4  F00C         	goto	u4830
  3665   0019C4                     u4831:
  3666   0019C4  EFEC  F00C         	goto	l2361
  3667   0019C8                     u4830:
  3668   0019C8  0E02               	movlw	2
  3669   0019CA  600C               	cpfslt	___xxtofl@exp^0,c
  3670   0019CC  EFEA  F00C         	goto	u4841
  3671   0019D0  EFEC  F00C         	goto	u4840
  3672   0019D4                     u4841:
  3673   0019D4  EFD7  F00C         	goto	l5886
  3674   0019D8                     u4840:
  3675   0019D8                     l2361:
  3676   0019D8  B00C               	btfsc	___xxtofl@exp^0,0,c
  3677   0019DA  EFF1  F00C         	goto	u4851
  3678   0019DE  EFF3  F00C         	goto	u4850
  3679   0019E2                     u4851:
  3680   0019E2  EFF4  F00C         	goto	l5894
  3681   0019E6                     u4850:
  3682   0019E6  9E0F               	bcf	(___xxtofl@arg+2)^0,7,c
  3683   0019E8                     l5894:
  3684   0019E8  90D8               	bcf	status,0,c
  3685   0019EA  320C               	rrcf	___xxtofl@exp^0,f,c
  3686   0019EC  C00C  F007         	movff	___xxtofl@exp,??___xxtofl
  3687   0019F0  6A08               	clrf	(??___xxtofl+1)^0,c
  3688   0019F2  6A09               	clrf	(??___xxtofl+2)^0,c
  3689   0019F4  6A0A               	clrf	(??___xxtofl+3)^0,c
  3690   0019F6  C007  F00A         	movff	??___xxtofl,??___xxtofl+3
  3691   0019FA  6A09               	clrf	(??___xxtofl+2)^0,c
  3692   0019FC  6A08               	clrf	(??___xxtofl+1)^0,c
  3693   0019FE  6A07               	clrf	??___xxtofl^0,c
  3694   001A00  5007               	movf	??___xxtofl^0,w,c
  3695   001A02  120D               	iorwf	___xxtofl@arg^0,f,c
  3696   001A04  5008               	movf	(??___xxtofl+1)^0,w,c
  3697   001A06  120E               	iorwf	(___xxtofl@arg+1)^0,f,c
  3698   001A08  5009               	movf	(??___xxtofl+2)^0,w,c
  3699   001A0A  120F               	iorwf	(___xxtofl@arg+2)^0,f,c
  3700   001A0C  500A               	movf	(??___xxtofl+3)^0,w,c
  3701   001A0E  1210               	iorwf	(___xxtofl@arg+3)^0,f,c
  3702   001A10  500B               	movf	___xxtofl@sign^0,w,c
  3703   001A12  B4D8               	btfsc	status,2,c
  3704   001A14  EF0E  F00D         	goto	u4861
  3705   001A18  EF10  F00D         	goto	u4860
  3706   001A1C                     u4861:
  3707   001A1C  EF18  F00D         	goto	l5904
  3708   001A20                     u4860:
  3709   001A20  BE06               	btfsc	(___xxtofl@val+3)^0,7,c
  3710   001A22  EF17  F00D         	goto	u4870
  3711   001A26  EF15  F00D         	goto	u4871
  3712   001A2A                     u4871:
  3713   001A2A  EF18  F00D         	goto	l5904
  3714   001A2E                     u4870:
  3715   001A2E  8E10               	bsf	(___xxtofl@arg+3)^0,7,c
  3716   001A30                     l5904:
  3717   001A30  C00D  F003         	movff	___xxtofl@arg,?___xxtofl
  3718   001A34  C00E  F004         	movff	___xxtofl@arg+1,?___xxtofl+1
  3719   001A38  C00F  F005         	movff	___xxtofl@arg+2,?___xxtofl+2
  3720   001A3C  C010  F006         	movff	___xxtofl@arg+3,?___xxtofl+3
  3721   001A40                     l2350:
  3722   001A40  0012               	return		;funcret
  3723   001A42                     __end_of___xxtofl:
  3724                           	callstack 0
  3725                           
  3726 ;; *************** function ___fltol *****************
  3727 ;; Defined at:
  3728 ;;		line 43 in file "C:\Program Files\Microchip\xc8\v2.46\pic\sources\c99\common\fltol.c"
  3729 ;; Parameters:    Size  Location     Type
  3730 ;;  f1              4   57[COMRAM] unsigned char 
  3731 ;; Auto vars:     Size  Location     Type
  3732 ;;  exp1            1   66[COMRAM] unsigned char 
  3733 ;;  sign1           1   65[COMRAM] unsigned char 
  3734 ;; Return value:  Size  Location     Type
  3735 ;;                  4   57[COMRAM] long 
  3736 ;; Registers used:
  3737 ;;		wreg, status,2, status,0
  3738 ;; Tracked objects:
  3739 ;;		On entry : 0/0
  3740 ;;		On exit  : 0/0
  3741 ;;		Unchanged: 0/0
  3742 ;; Data sizes:     COMRAM   BANK0   BANK1   BANK2   BANK3   BANK4   BANK5   BANK6   BANK7   BANK8   BANK9  BANK10  BANK1
      +1  BANK12  BANK13  BANK14  BANK15
  3743 ;;      Params:         4       0       0       0       0       0       0       0       0       0       0       0       
      +0       0       0       0       0
  3744 ;;      Locals:         2       0       0       0       0       0       0       0       0       0       0       0       
      +0       0       0       0       0
  3745 ;;      Temps:          4       0       0       0       0       0       0       0       0       0       0       0       
      +0       0       0       0       0
  3746 ;;      Totals:        10       0       0       0       0       0       0       0       0       0       0       0       
      +0       0       0       0       0
  3747 ;;Total ram usage:       10 bytes
  3748 ;; Hardware stack levels used: 1
  3749 ;; Hardware stack levels required when called: 3
  3750 ;; This function calls:
  3751 ;;		Nothing
  3752 ;; This function is called by:
  3753 ;;		_I2C_MASTER_MODE_CLOCK_CONFIG
  3754 ;;		_EUSART_Baud_Rate_Calculation
  3755 ;; This function uses a non-reentrant model
  3756 ;;
  3757                           
  3758                           	psect	text26
  3759   001D8E                     __ptext26:
  3760                           	callstack 0
  3761   001D8E                     ___fltol:
  3762                           	callstack 24
  3763   001D8E  343C               	rlcf	(___fltol@f1+2)^0,w,c
  3764   001D90  343D               	rlcf	(___fltol@f1+3)^0,w,c
  3765   001D92  6E43               	movwf	___fltol@exp1^0,c
  3766   001D94  5043               	movf	___fltol@exp1^0,w,c
  3767   001D96  A4D8               	btfss	status,2,c
  3768   001D98  EFD0  F00E         	goto	u4711
  3769   001D9C  EFD2  F00E         	goto	u4710
  3770   001DA0                     u4711:
  3771   001DA0  EFDC  F00E         	goto	l5824
  3772   001DA4                     u4710:
  3773   001DA4                     l5820:
  3774   001DA4  0E00               	movlw	0
  3775   001DA6  6E3A               	movwf	?___fltol^0,c
  3776   001DA8  0E00               	movlw	0
  3777   001DAA  6E3B               	movwf	(?___fltol+1)^0,c
  3778   001DAC  0E00               	movlw	0
  3779   001DAE  6E3C               	movwf	(?___fltol+2)^0,c
  3780   001DB0  0E00               	movlw	0
  3781   001DB2  6E3D               	movwf	(?___fltol+3)^0,c
  3782   001DB4  EF49  F00F         	goto	l1989
  3783   001DB8                     l5824:
  3784   001DB8  C03A  F03E         	movff	___fltol@f1,??___fltol
  3785   001DBC  C03B  F03F         	movff	___fltol@f1+1,??___fltol+1
  3786   001DC0  C03C  F040         	movff	___fltol@f1+2,??___fltol+2
  3787   001DC4  C03D  F041         	movff	___fltol@f1+3,??___fltol+3
  3788   001DC8  0E20               	movlw	32
  3789   001DCA  EFEC  F00E         	goto	u4720
  3790   001DCE                     u4725:
  3791   001DCE  90D8               	bcf	status,0,c
  3792   001DD0  3241               	rrcf	(??___fltol+3)^0,f,c
  3793   001DD2  3240               	rrcf	(??___fltol+2)^0,f,c
  3794   001DD4  323F               	rrcf	(??___fltol+1)^0,f,c
  3795   001DD6  323E               	rrcf	??___fltol^0,f,c
  3796   001DD8                     u4720:
  3797   001DD8  2EE8               	decfsz	wreg,f,c
  3798   001DDA  EFE7  F00E         	goto	u4725
  3799   001DDE  503E               	movf	??___fltol^0,w,c
  3800   001DE0  6E42               	movwf	___fltol@sign1^0,c
  3801   001DE2  8E3C               	bsf	(___fltol@f1+2)^0,7,c
  3802   001DE4  0EFF               	movlw	255
  3803   001DE6  163A               	andwf	___fltol@f1^0,f,c
  3804   001DE8  0EFF               	movlw	255
  3805   001DEA  163B               	andwf	(___fltol@f1+1)^0,f,c
  3806   001DEC  0EFF               	movlw	255
  3807   001DEE  163C               	andwf	(___fltol@f1+2)^0,f,c
  3808   001DF0  0E00               	movlw	0
  3809   001DF2  163D               	andwf	(___fltol@f1+3)^0,f,c
  3810   001DF4  0E96               	movlw	150
  3811   001DF6  5E43               	subwf	___fltol@exp1^0,f,c
  3812   001DF8  BE43               	btfsc	___fltol@exp1^0,7,c
  3813   001DFA  EF03  F00F         	goto	u4730
  3814   001DFE  EF01  F00F         	goto	u4731
  3815   001E02                     u4731:
  3816   001E02  EF19  F00F         	goto	l5844
  3817   001E06                     u4730:
  3818   001E06  5043               	movf	___fltol@exp1^0,w,c
  3819   001E08  0A80               	xorlw	128
  3820   001E0A  0F97               	addlw	151
  3821   001E0C  B0D8               	btfsc	status,0,c
  3822   001E0E  EF0B  F00F         	goto	u4741
  3823   001E12  EF0D  F00F         	goto	u4740
  3824   001E16                     u4741:
  3825   001E16  EF0F  F00F         	goto	l5840
  3826   001E1A                     u4740:
  3827   001E1A  EFD2  F00E         	goto	l5820
  3828   001E1E                     l5840:
  3829   001E1E  90D8               	bcf	status,0,c
  3830   001E20  323D               	rrcf	(___fltol@f1+3)^0,f,c
  3831   001E22  323C               	rrcf	(___fltol@f1+2)^0,f,c
  3832   001E24  323B               	rrcf	(___fltol@f1+1)^0,f,c
  3833   001E26  323A               	rrcf	___fltol@f1^0,f,c
  3834   001E28  3E43               	incfsz	___fltol@exp1^0,f,c
  3835   001E2A  EF0F  F00F         	goto	l5840
  3836   001E2E  EF31  F00F         	goto	l5854
  3837   001E32                     l5844:
  3838   001E32  0E1F               	movlw	31
  3839   001E34  6443               	cpfsgt	___fltol@exp1^0,c
  3840   001E36  EF1F  F00F         	goto	u4751
  3841   001E3A  EF21  F00F         	goto	u4750
  3842   001E3E                     u4751:
  3843   001E3E  EF29  F00F         	goto	l5852
  3844   001E42                     u4750:
  3845   001E42  EFD2  F00E         	goto	l5820
  3846   001E46                     l5850:
  3847   001E46  90D8               	bcf	status,0,c
  3848   001E48  363A               	rlcf	___fltol@f1^0,f,c
  3849   001E4A  363B               	rlcf	(___fltol@f1+1)^0,f,c
  3850   001E4C  363C               	rlcf	(___fltol@f1+2)^0,f,c
  3851   001E4E  363D               	rlcf	(___fltol@f1+3)^0,f,c
  3852   001E50  0643               	decf	___fltol@exp1^0,f,c
  3853   001E52                     l5852:
  3854   001E52  5043               	movf	___fltol@exp1^0,w,c
  3855   001E54  A4D8               	btfss	status,2,c
  3856   001E56  EF2F  F00F         	goto	u4761
  3857   001E5A  EF31  F00F         	goto	u4760
  3858   001E5E                     u4761:
  3859   001E5E  EF23  F00F         	goto	l5850
  3860   001E62                     u4760:
  3861   001E62                     l5854:
  3862   001E62  5042               	movf	___fltol@sign1^0,w,c
  3863   001E64  B4D8               	btfsc	status,2,c
  3864   001E66  EF37  F00F         	goto	u4771
  3865   001E6A  EF39  F00F         	goto	u4770
  3866   001E6E                     u4771:
  3867   001E6E  EF41  F00F         	goto	l5858
  3868   001E72                     u4770:
  3869   001E72  1E3D               	comf	(___fltol@f1+3)^0,f,c
  3870   001E74  1E3C               	comf	(___fltol@f1+2)^0,f,c
  3871   001E76  1E3B               	comf	(___fltol@f1+1)^0,f,c
  3872   001E78  6C3A               	negf	___fltol@f1^0,c
  3873   001E7A  0E00               	movlw	0
  3874   001E7C  223B               	addwfc	(___fltol@f1+1)^0,f,c
  3875   001E7E  223C               	addwfc	(___fltol@f1+2)^0,f,c
  3876   001E80  223D               	addwfc	(___fltol@f1+3)^0,f,c
  3877   001E82                     l5858:
  3878   001E82  C03A  F03A         	movff	___fltol@f1,?___fltol
  3879   001E86  C03B  F03B         	movff	___fltol@f1+1,?___fltol+1
  3880   001E8A  C03C  F03C         	movff	___fltol@f1+2,?___fltol+2
  3881   001E8E  C03D  F03D         	movff	___fltol@f1+3,?___fltol+3
  3882   001E92                     l1989:
  3883   001E92  0012               	return		;funcret
  3884   001E94                     __end_of___fltol:
  3885                           	callstack 0
  3886                           
  3887 ;; *************** function ___fldiv *****************
  3888 ;; Defined at:
  3889 ;;		line 11 in file "C:\Program Files\Microchip\xc8\v2.46\pic\sources\c99\common\sprcdiv.c"
  3890 ;; Parameters:    Size  Location     Type
  3891 ;;  b               4   16[COMRAM] long 
  3892 ;;  a               4   20[COMRAM] long 
  3893 ;; Auto vars:     Size  Location     Type
  3894 ;;  grs             4   35[COMRAM] unsigned long 
  3895 ;;  rem             4   28[COMRAM] unsigned long 
  3896 ;;  new_exp         2   33[COMRAM] short 
  3897 ;;  aexp            1   40[COMRAM] unsigned char 
  3898 ;;  bexp            1   39[COMRAM] unsigned char 
  3899 ;;  sign            1   32[COMRAM] unsigned char 
  3900 ;; Return value:  Size  Location     Type
  3901 ;;                  4   16[COMRAM] unsigned char 
  3902 ;; Registers used:
  3903 ;;		wreg, status,2, status,0
  3904 ;; Tracked objects:
  3905 ;;		On entry : 0/0
  3906 ;;		On exit  : 0/0
  3907 ;;		Unchanged: 0/0
  3908 ;; Data sizes:     COMRAM   BANK0   BANK1   BANK2   BANK3   BANK4   BANK5   BANK6   BANK7   BANK8   BANK9  BANK10  BANK1
      +1  BANK12  BANK13  BANK14  BANK15
  3909 ;;      Params:         8       0       0       0       0       0       0       0       0       0       0       0       
      +0       0       0       0       0
  3910 ;;      Locals:        13       0       0       0       0       0       0       0       0       0       0       0       
      +0       0       0       0       0
  3911 ;;      Temps:          4       0       0       0       0       0       0       0       0       0       0       0       
      +0       0       0       0       0
  3912 ;;      Totals:        25       0       0       0       0       0       0       0       0       0       0       0       
      +0       0       0       0       0
  3913 ;;Total ram usage:       25 bytes
  3914 ;; Hardware stack levels used: 1
  3915 ;; Hardware stack levels required when called: 3
  3916 ;; This function calls:
  3917 ;;		Nothing
  3918 ;; This function is called by:
  3919 ;;		_I2C_MASTER_MODE_CLOCK_CONFIG
  3920 ;;		_EUSART_Baud_Rate_Calculation
  3921 ;; This function uses a non-reentrant model
  3922 ;;
  3923                           
  3924                           	psect	text27
  3925   0014F4                     __ptext27:
  3926                           	callstack 0
  3927   0014F4                     ___fldiv:
  3928                           	callstack 24
  3929   0014F4  5014               	movf	(___fldiv@b+3)^0,w,c
  3930   0014F6  0B80               	andlw	128
  3931   0014F8  6E21               	movwf	___fldiv@sign^0,c
  3932   0014FA  5014               	movf	(___fldiv@b+3)^0,w,c
  3933   0014FC  2414               	addwf	(___fldiv@b+3)^0,w,c
  3934   0014FE  6E28               	movwf	___fldiv@bexp^0,c
  3935   001500  AE13               	btfss	(___fldiv@b+2)^0,7,c
  3936   001502  EF85  F00A         	goto	u4481
  3937   001506  EF87  F00A         	goto	u4480
  3938   00150A                     u4481:
  3939   00150A  EF88  F00A         	goto	l5686
  3940   00150E                     u4480:
  3941   00150E  8028               	bsf	___fldiv@bexp^0,0,c
  3942   001510                     l5686:
  3943   001510  5028               	movf	___fldiv@bexp^0,w,c
  3944   001512  B4D8               	btfsc	status,2,c
  3945   001514  EF8E  F00A         	goto	u4491
  3946   001518  EF90  F00A         	goto	u4490
  3947   00151C                     u4491:
  3948   00151C  EFA5  F00A         	goto	l5696
  3949   001520                     u4490:
  3950   001520  2828               	incf	___fldiv@bexp^0,w,c
  3951   001522  A4D8               	btfss	status,2,c
  3952   001524  EF96  F00A         	goto	u4501
  3953   001528  EF98  F00A         	goto	u4500
  3954   00152C                     u4501:
  3955   00152C  EFA0  F00A         	goto	l5692
  3956   001530                     u4500:
  3957   001530  0E00               	movlw	0
  3958   001532  6E11               	movwf	___fldiv@b^0,c
  3959   001534  0E00               	movlw	0
  3960   001536  6E12               	movwf	(___fldiv@b+1)^0,c
  3961   001538  0E00               	movlw	0
  3962   00153A  6E13               	movwf	(___fldiv@b+2)^0,c
  3963   00153C  0E00               	movlw	0
  3964   00153E  6E14               	movwf	(___fldiv@b+3)^0,c
  3965   001540                     l5692:
  3966   001540  8E13               	bsf	(___fldiv@b+2)^0,7,c
  3967   001542  0E00               	movlw	0
  3968   001544  6E14               	movwf	(___fldiv@b+3)^0,c
  3969   001546  EFAD  F00A         	goto	l5698
  3970   00154A                     l5696:
  3971   00154A  0E00               	movlw	0
  3972   00154C  6E11               	movwf	___fldiv@b^0,c
  3973   00154E  0E00               	movlw	0
  3974   001550  6E12               	movwf	(___fldiv@b+1)^0,c
  3975   001552  0E00               	movlw	0
  3976   001554  6E13               	movwf	(___fldiv@b+2)^0,c
  3977   001556  0E00               	movlw	0
  3978   001558  6E14               	movwf	(___fldiv@b+3)^0,c
  3979   00155A                     l5698:
  3980   00155A  5018               	movf	(___fldiv@a+3)^0,w,c
  3981   00155C  0B80               	andlw	128
  3982   00155E  1A21               	xorwf	___fldiv@sign^0,f,c
  3983   001560  5018               	movf	(___fldiv@a+3)^0,w,c
  3984   001562  2418               	addwf	(___fldiv@a+3)^0,w,c
  3985   001564  6E29               	movwf	___fldiv@aexp^0,c
  3986   001566  AE17               	btfss	(___fldiv@a+2)^0,7,c
  3987   001568  EFB8  F00A         	goto	u4511
  3988   00156C  EFBA  F00A         	goto	u4510
  3989   001570                     u4511:
  3990   001570  EFBB  F00A         	goto	l5706
  3991   001574                     u4510:
  3992   001574  8029               	bsf	___fldiv@aexp^0,0,c
  3993   001576                     l5706:
  3994   001576  5029               	movf	___fldiv@aexp^0,w,c
  3995   001578  B4D8               	btfsc	status,2,c
  3996   00157A  EFC1  F00A         	goto	u4521
  3997   00157E  EFC3  F00A         	goto	u4520
  3998   001582                     u4521:
  3999   001582  EFD8  F00A         	goto	l5716
  4000   001586                     u4520:
  4001   001586  2829               	incf	___fldiv@aexp^0,w,c
  4002   001588  A4D8               	btfss	status,2,c
  4003   00158A  EFC9  F00A         	goto	u4531
  4004   00158E  EFCB  F00A         	goto	u4530
  4005   001592                     u4531:
  4006   001592  EFD3  F00A         	goto	l5712
  4007   001596                     u4530:
  4008   001596  0E00               	movlw	0
  4009   001598  6E15               	movwf	___fldiv@a^0,c
  4010   00159A  0E00               	movlw	0
  4011   00159C  6E16               	movwf	(___fldiv@a+1)^0,c
  4012   00159E  0E00               	movlw	0
  4013   0015A0  6E17               	movwf	(___fldiv@a+2)^0,c
  4014   0015A2  0E00               	movlw	0
  4015   0015A4  6E18               	movwf	(___fldiv@a+3)^0,c
  4016   0015A6                     l5712:
  4017   0015A6  8E17               	bsf	(___fldiv@a+2)^0,7,c
  4018   0015A8  0E00               	movlw	0
  4019   0015AA  6E18               	movwf	(___fldiv@a+3)^0,c
  4020   0015AC  EFE0  F00A         	goto	l5718
  4021   0015B0                     l5716:
  4022   0015B0  0E00               	movlw	0
  4023   0015B2  6E15               	movwf	___fldiv@a^0,c
  4024   0015B4  0E00               	movlw	0
  4025   0015B6  6E16               	movwf	(___fldiv@a+1)^0,c
  4026   0015B8  0E00               	movlw	0
  4027   0015BA  6E17               	movwf	(___fldiv@a+2)^0,c
  4028   0015BC  0E00               	movlw	0
  4029   0015BE  6E18               	movwf	(___fldiv@a+3)^0,c
  4030   0015C0                     l5718:
  4031   0015C0  5015               	movf	___fldiv@a^0,w,c
  4032   0015C2  1016               	iorwf	(___fldiv@a+1)^0,w,c
  4033   0015C4  1017               	iorwf	(___fldiv@a+2)^0,w,c
  4034   0015C6  1018               	iorwf	(___fldiv@a+3)^0,w,c
  4035   0015C8  A4D8               	btfss	status,2,c
  4036   0015CA  EFE9  F00A         	goto	u4541
  4037   0015CE  EFEB  F00A         	goto	u4540
  4038   0015D2                     u4541:
  4039   0015D2  EF03  F00B         	goto	l5730
  4040   0015D6                     u4540:
  4041   0015D6  0E00               	movlw	0
  4042   0015D8  6E11               	movwf	___fldiv@b^0,c
  4043   0015DA  0E00               	movlw	0
  4044   0015DC  6E12               	movwf	(___fldiv@b+1)^0,c
  4045   0015DE  0E00               	movlw	0
  4046   0015E0  6E13               	movwf	(___fldiv@b+2)^0,c
  4047   0015E2  0E00               	movlw	0
  4048   0015E4  6E14               	movwf	(___fldiv@b+3)^0,c
  4049   0015E6  0E80               	movlw	128
  4050   0015E8  1213               	iorwf	(___fldiv@b+2)^0,f,c
  4051   0015EA  0E7F               	movlw	127
  4052   0015EC  1214               	iorwf	(___fldiv@b+3)^0,f,c
  4053   0015EE                     l5724:
  4054   0015EE  5021               	movf	___fldiv@sign^0,w,c
  4055   0015F0  1214               	iorwf	(___fldiv@b+3)^0,f,c
  4056   0015F2  C011  F011         	movff	___fldiv@b,?___fldiv
  4057   0015F6  C012  F012         	movff	___fldiv@b+1,?___fldiv+1
  4058   0015FA  C013  F013         	movff	___fldiv@b+2,?___fldiv+2
  4059   0015FE  C014  F014         	movff	___fldiv@b+3,?___fldiv+3
  4060   001602  EF46  F00C         	goto	l2274
  4061   001606                     l5730:
  4062   001606  5028               	movf	___fldiv@bexp^0,w,c
  4063   001608  A4D8               	btfss	status,2,c
  4064   00160A  EF09  F00B         	goto	u4551
  4065   00160E  EF0B  F00B         	goto	u4550
  4066   001612                     u4551:
  4067   001612  EF15  F00B         	goto	l5738
  4068   001616                     u4550:
  4069   001616  0E00               	movlw	0
  4070   001618  6E11               	movwf	?___fldiv^0,c
  4071   00161A  0E00               	movlw	0
  4072   00161C  6E12               	movwf	(?___fldiv+1)^0,c
  4073   00161E  0E00               	movlw	0
  4074   001620  6E13               	movwf	(?___fldiv+2)^0,c
  4075   001622  0E00               	movlw	0
  4076   001624  6E14               	movwf	(?___fldiv+3)^0,c
  4077   001626  EF46  F00C         	goto	l2274
  4078   00162A                     l5738:
  4079   00162A  5029               	movf	___fldiv@aexp^0,w,c
  4080   00162C  C028  F019         	movff	___fldiv@bexp,??___fldiv
  4081   001630  6A1A               	clrf	(??___fldiv+1)^0,c
  4082   001632  5E19               	subwf	??___fldiv^0,f,c
  4083   001634  0E00               	movlw	0
  4084   001636  5A1A               	subwfb	(??___fldiv+1)^0,f,c
  4085   001638  0E7F               	movlw	127
  4086   00163A  2419               	addwf	??___fldiv^0,w,c
  4087   00163C  6E22               	movwf	___fldiv@new_exp^0,c
  4088   00163E  0E00               	movlw	0
  4089   001640  201A               	addwfc	(??___fldiv+1)^0,w,c
  4090   001642  6E23               	movwf	(___fldiv@new_exp+1)^0,c
  4091   001644  C011  F01D         	movff	___fldiv@b,___fldiv@rem
  4092   001648  C012  F01E         	movff	___fldiv@b+1,___fldiv@rem+1
  4093   00164C  C013  F01F         	movff	___fldiv@b+2,___fldiv@rem+2
  4094   001650  C014  F020         	movff	___fldiv@b+3,___fldiv@rem+3
  4095   001654  0E00               	movlw	0
  4096   001656  6E11               	movwf	___fldiv@b^0,c
  4097   001658  0E00               	movlw	0
  4098   00165A  6E12               	movwf	(___fldiv@b+1)^0,c
  4099   00165C  0E00               	movlw	0
  4100   00165E  6E13               	movwf	(___fldiv@b+2)^0,c
  4101   001660  0E00               	movlw	0
  4102   001662  6E14               	movwf	(___fldiv@b+3)^0,c
  4103   001664  0E00               	movlw	0
  4104   001666  6E24               	movwf	___fldiv@grs^0,c
  4105   001668  0E00               	movlw	0
  4106   00166A  6E25               	movwf	(___fldiv@grs+1)^0,c
  4107   00166C  0E00               	movlw	0
  4108   00166E  6E26               	movwf	(___fldiv@grs+2)^0,c
  4109   001670  0E00               	movlw	0
  4110   001672  6E27               	movwf	(___fldiv@grs+3)^0,c
  4111   001674  0E00               	movlw	0
  4112   001676  6E29               	movwf	___fldiv@aexp^0,c
  4113   001678  EF76  F00B         	goto	l2276
  4114   00167C                     l5748:
  4115   00167C  5029               	movf	___fldiv@aexp^0,w,c
  4116   00167E  B4D8               	btfsc	status,2,c
  4117   001680  EF44  F00B         	goto	u4561
  4118   001684  EF46  F00B         	goto	u4560
  4119   001688                     u4561:
  4120   001688  EF5D  F00B         	goto	l5756
  4121   00168C                     u4560:
  4122   00168C  90D8               	bcf	status,0,c
  4123   00168E  361D               	rlcf	___fldiv@rem^0,f,c
  4124   001690  361E               	rlcf	(___fldiv@rem+1)^0,f,c
  4125   001692  361F               	rlcf	(___fldiv@rem+2)^0,f,c
  4126   001694  3620               	rlcf	(___fldiv@rem+3)^0,f,c
  4127   001696  90D8               	bcf	status,0,c
  4128   001698  3611               	rlcf	___fldiv@b^0,f,c
  4129   00169A  3612               	rlcf	(___fldiv@b+1)^0,f,c
  4130   00169C  3613               	rlcf	(___fldiv@b+2)^0,f,c
  4131   00169E  3614               	rlcf	(___fldiv@b+3)^0,f,c
  4132   0016A0  AE27               	btfss	(___fldiv@grs+3)^0,7,c
  4133   0016A2  EF55  F00B         	goto	u4571
  4134   0016A6  EF57  F00B         	goto	u4570
  4135   0016AA                     u4571:
  4136   0016AA  EF58  F00B         	goto	l2279
  4137   0016AE                     u4570:
  4138   0016AE  8011               	bsf	___fldiv@b^0,0,c
  4139   0016B0                     l2279:
  4140   0016B0  90D8               	bcf	status,0,c
  4141   0016B2  3624               	rlcf	___fldiv@grs^0,f,c
  4142   0016B4  3625               	rlcf	(___fldiv@grs+1)^0,f,c
  4143   0016B6  3626               	rlcf	(___fldiv@grs+2)^0,f,c
  4144   0016B8  3627               	rlcf	(___fldiv@grs+3)^0,f,c
  4145   0016BA                     l5756:
  4146   0016BA  5015               	movf	___fldiv@a^0,w,c
  4147   0016BC  5C1D               	subwf	___fldiv@rem^0,w,c
  4148   0016BE  5016               	movf	(___fldiv@a+1)^0,w,c
  4149   0016C0  581E               	subwfb	(___fldiv@rem+1)^0,w,c
  4150   0016C2  5017               	movf	(___fldiv@a+2)^0,w,c
  4151   0016C4  581F               	subwfb	(___fldiv@rem+2)^0,w,c
  4152   0016C6  5018               	movf	(___fldiv@a+3)^0,w,c
  4153   0016C8  5820               	subwfb	(___fldiv@rem+3)^0,w,c
  4154   0016CA  A0D8               	btfss	status,0,c
  4155   0016CC  EF6A  F00B         	goto	u4581
  4156   0016D0  EF6C  F00B         	goto	u4580
  4157   0016D4                     u4581:
  4158   0016D4  EF75  F00B         	goto	l5762
  4159   0016D8                     u4580:
  4160   0016D8  8C27               	bsf	(___fldiv@grs+3)^0,6,c
  4161   0016DA  5015               	movf	___fldiv@a^0,w,c
  4162   0016DC  5E1D               	subwf	___fldiv@rem^0,f,c
  4163   0016DE  5016               	movf	(___fldiv@a+1)^0,w,c
  4164   0016E0  5A1E               	subwfb	(___fldiv@rem+1)^0,f,c
  4165   0016E2  5017               	movf	(___fldiv@a+2)^0,w,c
  4166   0016E4  5A1F               	subwfb	(___fldiv@rem+2)^0,f,c
  4167   0016E6  5018               	movf	(___fldiv@a+3)^0,w,c
  4168   0016E8  5A20               	subwfb	(___fldiv@rem+3)^0,f,c
  4169   0016EA                     l5762:
  4170   0016EA  2A29               	incf	___fldiv@aexp^0,f,c
  4171   0016EC                     l2276:
  4172   0016EC  0E19               	movlw	25
  4173   0016EE  6429               	cpfsgt	___fldiv@aexp^0,c
  4174   0016F0  EF7C  F00B         	goto	u4591
  4175   0016F4  EF7E  F00B         	goto	u4590
  4176   0016F8                     u4591:
  4177   0016F8  EF3E  F00B         	goto	l5748
  4178   0016FC                     u4590:
  4179   0016FC  501D               	movf	___fldiv@rem^0,w,c
  4180   0016FE  101E               	iorwf	(___fldiv@rem+1)^0,w,c
  4181   001700  101F               	iorwf	(___fldiv@rem+2)^0,w,c
  4182   001702  1020               	iorwf	(___fldiv@rem+3)^0,w,c
  4183   001704  B4D8               	btfsc	status,2,c
  4184   001706  EF87  F00B         	goto	u4601
  4185   00170A  EF89  F00B         	goto	u4600
  4186   00170E                     u4601:
  4187   00170E  EFA1  F00B         	goto	l5774
  4188   001712                     u4600:
  4189   001712  8024               	bsf	___fldiv@grs^0,0,c
  4190   001714  EFA1  F00B         	goto	l5774
  4191   001718                     l5768:
  4192   001718  90D8               	bcf	status,0,c
  4193   00171A  3611               	rlcf	___fldiv@b^0,f,c
  4194   00171C  3612               	rlcf	(___fldiv@b+1)^0,f,c
  4195   00171E  3613               	rlcf	(___fldiv@b+2)^0,f,c
  4196   001720  3614               	rlcf	(___fldiv@b+3)^0,f,c
  4197   001722  AE27               	btfss	(___fldiv@grs+3)^0,7,c
  4198   001724  EF96  F00B         	goto	u4611
  4199   001728  EF98  F00B         	goto	u4610
  4200   00172C                     u4611:
  4201   00172C  EF99  F00B         	goto	l2285
  4202   001730                     u4610:
  4203   001730  8011               	bsf	___fldiv@b^0,0,c
  4204   001732                     l2285:
  4205   001732  90D8               	bcf	status,0,c
  4206   001734  3624               	rlcf	___fldiv@grs^0,f,c
  4207   001736  3625               	rlcf	(___fldiv@grs+1)^0,f,c
  4208   001738  3626               	rlcf	(___fldiv@grs+2)^0,f,c
  4209   00173A  3627               	rlcf	(___fldiv@grs+3)^0,f,c
  4210   00173C  0622               	decf	___fldiv@new_exp^0,f,c
  4211   00173E  A0D8               	btfss	status,0,c
  4212   001740  0623               	decf	(___fldiv@new_exp+1)^0,f,c
  4213   001742                     l5774:
  4214   001742  AE13               	btfss	(___fldiv@b+2)^0,7,c
  4215   001744  EFA6  F00B         	goto	u4621
  4216   001748  EFA8  F00B         	goto	u4620
  4217   00174C                     u4621:
  4218   00174C  EF8C  F00B         	goto	l5768
  4219   001750                     u4620:
  4220   001750  0E00               	movlw	0
  4221   001752  6E29               	movwf	___fldiv@aexp^0,c
  4222   001754  AE27               	btfss	(___fldiv@grs+3)^0,7,c
  4223   001756  EFAF  F00B         	goto	u4631
  4224   00175A  EFB1  F00B         	goto	u4630
  4225   00175E                     u4631:
  4226   00175E  EFD5  F00B         	goto	l2287
  4227   001762                     u4630:
  4228   001762  0EFF               	movlw	255
  4229   001764  1424               	andwf	___fldiv@grs^0,w,c
  4230   001766  6E19               	movwf	??___fldiv^0,c
  4231   001768  0EFF               	movlw	255
  4232   00176A  1425               	andwf	(___fldiv@grs+1)^0,w,c
  4233   00176C  6E1A               	movwf	(??___fldiv+1)^0,c
  4234   00176E  0EFF               	movlw	255
  4235   001770  1426               	andwf	(___fldiv@grs+2)^0,w,c
  4236   001772  6E1B               	movwf	(??___fldiv+2)^0,c
  4237   001774  0E7F               	movlw	127
  4238   001776  1427               	andwf	(___fldiv@grs+3)^0,w,c
  4239   001778  6E1C               	movwf	(??___fldiv+3)^0,c
  4240   00177A  5019               	movf	??___fldiv^0,w,c
  4241   00177C  101A               	iorwf	(??___fldiv+1)^0,w,c
  4242   00177E  101B               	iorwf	(??___fldiv+2)^0,w,c
  4243   001780  101C               	iorwf	(??___fldiv+3)^0,w,c
  4244   001782  B4D8               	btfsc	status,2,c
  4245   001784  EFC6  F00B         	goto	u4641
  4246   001788  EFC8  F00B         	goto	u4640
  4247   00178C                     u4641:
  4248   00178C  EFCC  F00B         	goto	l2288
  4249   001790                     u4640:
  4250   001790                     l5782:
  4251   001790  0E01               	movlw	1
  4252   001792  6E29               	movwf	___fldiv@aexp^0,c
  4253   001794  EFD5  F00B         	goto	l2287
  4254   001798                     l2288:
  4255   001798  A011               	btfss	___fldiv@b^0,0,c
  4256   00179A  EFD1  F00B         	goto	u4651
  4257   00179E  EFD3  F00B         	goto	u4650
  4258   0017A2                     u4651:
  4259   0017A2  EFD5  F00B         	goto	l2287
  4260   0017A6                     u4650:
  4261   0017A6  EFC8  F00B         	goto	l5782
  4262   0017AA                     l2287:
  4263   0017AA  5029               	movf	___fldiv@aexp^0,w,c
  4264   0017AC  B4D8               	btfsc	status,2,c
  4265   0017AE  EFDB  F00B         	goto	u4661
  4266   0017B2  EFDD  F00B         	goto	u4660
  4267   0017B6                     u4661:
  4268   0017B6  EF01  F00C         	goto	l5794
  4269   0017BA                     u4660:
  4270   0017BA  0E01               	movlw	1
  4271   0017BC  2611               	addwf	___fldiv@b^0,f,c
  4272   0017BE  0E00               	movlw	0
  4273   0017C0  2212               	addwfc	(___fldiv@b+1)^0,f,c
  4274   0017C2  2213               	addwfc	(___fldiv@b+2)^0,f,c
  4275   0017C4  2214               	addwfc	(___fldiv@b+3)^0,f,c
  4276   0017C6  A014               	btfss	(___fldiv@b+3)^0,0,c
  4277   0017C8  EFE8  F00B         	goto	u4671
  4278   0017CC  EFEA  F00B         	goto	u4670
  4279   0017D0                     u4671:
  4280   0017D0  EF01  F00C         	goto	l5794
  4281   0017D4                     u4670:
  4282   0017D4  C011  F019         	movff	___fldiv@b,??___fldiv
  4283   0017D8  C012  F01A         	movff	___fldiv@b+1,??___fldiv+1
  4284   0017DC  C013  F01B         	movff	___fldiv@b+2,??___fldiv+2
  4285   0017E0  C014  F01C         	movff	___fldiv@b+3,??___fldiv+3
  4286   0017E4  341C               	rlcf	(??___fldiv+3)^0,w,c
  4287   0017E6  321C               	rrcf	(??___fldiv+3)^0,f,c
  4288   0017E8  321B               	rrcf	(??___fldiv+2)^0,f,c
  4289   0017EA  321A               	rrcf	(??___fldiv+1)^0,f,c
  4290   0017EC  3219               	rrcf	??___fldiv^0,f,c
  4291   0017EE  C019  F011         	movff	??___fldiv,___fldiv@b
  4292   0017F2  C01A  F012         	movff	??___fldiv+1,___fldiv@b+1
  4293   0017F6  C01B  F013         	movff	??___fldiv+2,___fldiv@b+2
  4294   0017FA  C01C  F014         	movff	??___fldiv+3,___fldiv@b+3
  4295   0017FE  4A22               	infsnz	___fldiv@new_exp^0,f,c
  4296   001800  2A23               	incf	(___fldiv@new_exp+1)^0,f,c
  4297   001802                     l5794:
  4298   001802  BE23               	btfsc	(___fldiv@new_exp+1)^0,7,c
  4299   001804  EF0C  F00C         	goto	u4681
  4300   001808  5023               	movf	(___fldiv@new_exp+1)^0,w,c
  4301   00180A  E108               	bnz	u4680
  4302   00180C  2822               	incf	___fldiv@new_exp^0,w,c
  4303   00180E  A0D8               	btfss	status,0,c
  4304   001810  EF0C  F00C         	goto	u4681
  4305   001814  EF0E  F00C         	goto	u4680
  4306   001818                     u4681:
  4307   001818  EF19  F00C         	goto	l5798
  4308   00181C                     u4680:
  4309   00181C  0E00               	movlw	0
  4310   00181E  6E23               	movwf	(___fldiv@new_exp+1)^0,c
  4311   001820  6822               	setf	___fldiv@new_exp^0,c
  4312   001822  0E00               	movlw	0
  4313   001824  6E11               	movwf	___fldiv@b^0,c
  4314   001826  0E00               	movlw	0
  4315   001828  6E12               	movwf	(___fldiv@b+1)^0,c
  4316   00182A  0E00               	movlw	0
  4317   00182C  6E13               	movwf	(___fldiv@b+2)^0,c
  4318   00182E  0E00               	movlw	0
  4319   001830  6E14               	movwf	(___fldiv@b+3)^0,c
  4320   001832                     l5798:
  4321   001832  BE23               	btfsc	(___fldiv@new_exp+1)^0,7,c
  4322   001834  EF26  F00C         	goto	u4690
  4323   001838  5023               	movf	(___fldiv@new_exp+1)^0,w,c
  4324   00183A  E106               	bnz	u4691
  4325   00183C  0422               	decf	___fldiv@new_exp^0,w,c
  4326   00183E  B0D8               	btfsc	status,0,c
  4327   001840  EF24  F00C         	goto	u4691
  4328   001844  EF26  F00C         	goto	u4690
  4329   001848                     u4691:
  4330   001848  EF34  F00C         	goto	l5802
  4331   00184C                     u4690:
  4332   00184C  0E00               	movlw	0
  4333   00184E  6E23               	movwf	(___fldiv@new_exp+1)^0,c
  4334   001850  0E00               	movlw	0
  4335   001852  6E22               	movwf	___fldiv@new_exp^0,c
  4336   001854  0E00               	movlw	0
  4337   001856  6E11               	movwf	___fldiv@b^0,c
  4338   001858  0E00               	movlw	0
  4339   00185A  6E12               	movwf	(___fldiv@b+1)^0,c
  4340   00185C  0E00               	movlw	0
  4341   00185E  6E13               	movwf	(___fldiv@b+2)^0,c
  4342   001860  0E00               	movlw	0
  4343   001862  6E14               	movwf	(___fldiv@b+3)^0,c
  4344   001864  0E00               	movlw	0
  4345   001866  6E21               	movwf	___fldiv@sign^0,c
  4346   001868                     l5802:
  4347   001868  C022  F028         	movff	___fldiv@new_exp,___fldiv@bexp
  4348   00186C  A028               	btfss	___fldiv@bexp^0,0,c
  4349   00186E  EF3B  F00C         	goto	u4701
  4350   001872  EF3D  F00C         	goto	u4700
  4351   001876                     u4701:
  4352   001876  EF40  F00C         	goto	l5808
  4353   00187A                     u4700:
  4354   00187A  8E13               	bsf	(___fldiv@b+2)^0,7,c
  4355   00187C  EF41  F00C         	goto	l5810
  4356   001880                     l5808:
  4357   001880  9E13               	bcf	(___fldiv@b+2)^0,7,c
  4358   001882                     l5810:
  4359   001882  90D8               	bcf	status,0,c
  4360   001884  3028               	rrcf	___fldiv@bexp^0,w,c
  4361   001886  6E14               	movwf	(___fldiv@b+3)^0,c
  4362   001888  EFF7  F00A         	goto	l5724
  4363   00188C                     l2274:
  4364   00188C  0012               	return		;funcret
  4365   00188E                     __end_of___fldiv:
  4366                           	callstack 0
  4367                           
  4368 ;; *************** function ___fladd *****************
  4369 ;; Defined at:
  4370 ;;		line 10 in file "C:\Program Files\Microchip\xc8\v2.46\pic\sources\c99\common\sprcadd.c"
  4371 ;; Parameters:    Size  Location     Type
  4372 ;;  b               4   41[COMRAM] unsigned char 
  4373 ;;  a               4   45[COMRAM] unsigned char 
  4374 ;; Auto vars:     Size  Location     Type
  4375 ;;  grs             1   56[COMRAM] unsigned char 
  4376 ;;  bexp            1   55[COMRAM] unsigned char 
  4377 ;;  aexp            1   54[COMRAM] unsigned char 
  4378 ;;  signs           1   53[COMRAM] unsigned char 
  4379 ;; Return value:  Size  Location     Type
  4380 ;;                  4   41[COMRAM] unsigned char 
  4381 ;; Registers used:
  4382 ;;		wreg, status,2, status,0
  4383 ;; Tracked objects:
  4384 ;;		On entry : 0/0
  4385 ;;		On exit  : 0/0
  4386 ;;		Unchanged: 0/0
  4387 ;; Data sizes:     COMRAM   BANK0   BANK1   BANK2   BANK3   BANK4   BANK5   BANK6   BANK7   BANK8   BANK9  BANK10  BANK1
      +1  BANK12  BANK13  BANK14  BANK15
  4388 ;;      Params:         8       0       0       0       0       0       0       0       0       0       0       0       
      +0       0       0       0       0
  4389 ;;      Locals:         4       0       0       0       0       0       0       0       0       0       0       0       
      +0       0       0       0       0
  4390 ;;      Temps:          4       0       0       0       0       0       0       0       0       0       0       0       
      +0       0       0       0       0
  4391 ;;      Totals:        16       0       0       0       0       0       0       0       0       0       0       0       
      +0       0       0       0       0
  4392 ;;Total ram usage:       16 bytes
  4393 ;; Hardware stack levels used: 1
  4394 ;; Hardware stack levels required when called: 3
  4395 ;; This function calls:
  4396 ;;		Nothing
  4397 ;; This function is called by:
  4398 ;;		_I2C_MASTER_MODE_CLOCK_CONFIG
  4399 ;;		_EUSART_Baud_Rate_Calculation
  4400 ;; This function uses a non-reentrant model
  4401 ;;
  4402                           
  4403                           	psect	text28
  4404   001034                     __ptext28:
  4405                           	callstack 0
  4406   001034                     ___fladd:
  4407                           	callstack 24
  4408   001034  502D               	movf	(___fladd@b+3)^0,w,c
  4409   001036  0B80               	andlw	128
  4410   001038  6E36               	movwf	___fladd@signs^0,c
  4411   00103A  502D               	movf	(___fladd@b+3)^0,w,c
  4412   00103C  242D               	addwf	(___fladd@b+3)^0,w,c
  4413   00103E  6E38               	movwf	___fladd@bexp^0,c
  4414   001040  AE2C               	btfss	(___fladd@b+2)^0,7,c
  4415   001042  EF25  F008         	goto	u4091
  4416   001046  EF27  F008         	goto	u4090
  4417   00104A                     u4091:
  4418   00104A  EF28  F008         	goto	l5484
  4419   00104E                     u4090:
  4420   00104E  8038               	bsf	___fladd@bexp^0,0,c
  4421   001050                     l5484:
  4422   001050  5038               	movf	___fladd@bexp^0,w,c
  4423   001052  B4D8               	btfsc	status,2,c
  4424   001054  EF2E  F008         	goto	u4101
  4425   001058  EF30  F008         	goto	u4100
  4426   00105C                     u4101:
  4427   00105C  EF45  F008         	goto	l5494
  4428   001060                     u4100:
  4429   001060  2838               	incf	___fladd@bexp^0,w,c
  4430   001062  A4D8               	btfss	status,2,c
  4431   001064  EF36  F008         	goto	u4111
  4432   001068  EF38  F008         	goto	u4110
  4433   00106C                     u4111:
  4434   00106C  EF40  F008         	goto	l5490
  4435   001070                     u4110:
  4436   001070  0E00               	movlw	0
  4437   001072  6E2A               	movwf	___fladd@b^0,c
  4438   001074  0E00               	movlw	0
  4439   001076  6E2B               	movwf	(___fladd@b+1)^0,c
  4440   001078  0E00               	movlw	0
  4441   00107A  6E2C               	movwf	(___fladd@b+2)^0,c
  4442   00107C  0E00               	movlw	0
  4443   00107E  6E2D               	movwf	(___fladd@b+3)^0,c
  4444   001080                     l5490:
  4445   001080  8E2C               	bsf	(___fladd@b+2)^0,7,c
  4446   001082  0E00               	movlw	0
  4447   001084  6E2D               	movwf	(___fladd@b+3)^0,c
  4448   001086  EF4D  F008         	goto	l5496
  4449   00108A                     l5494:
  4450   00108A  0E00               	movlw	0
  4451   00108C  6E2A               	movwf	___fladd@b^0,c
  4452   00108E  0E00               	movlw	0
  4453   001090  6E2B               	movwf	(___fladd@b+1)^0,c
  4454   001092  0E00               	movlw	0
  4455   001094  6E2C               	movwf	(___fladd@b+2)^0,c
  4456   001096  0E00               	movlw	0
  4457   001098  6E2D               	movwf	(___fladd@b+3)^0,c
  4458   00109A                     l5496:
  4459   00109A  5031               	movf	(___fladd@a+3)^0,w,c
  4460   00109C  0B80               	andlw	128
  4461   00109E  6E37               	movwf	___fladd@aexp^0,c
  4462   0010A0  5036               	movf	___fladd@signs^0,w,c
  4463   0010A2  1837               	xorwf	___fladd@aexp^0,w,c
  4464   0010A4  B4D8               	btfsc	status,2,c
  4465   0010A6  EF57  F008         	goto	u4121
  4466   0010AA  EF59  F008         	goto	u4120
  4467   0010AE                     u4121:
  4468   0010AE  EF5A  F008         	goto	l5502
  4469   0010B2                     u4120:
  4470   0010B2  8C36               	bsf	___fladd@signs^0,6,c
  4471   0010B4                     l5502:
  4472   0010B4  5031               	movf	(___fladd@a+3)^0,w,c
  4473   0010B6  2431               	addwf	(___fladd@a+3)^0,w,c
  4474   0010B8  6E37               	movwf	___fladd@aexp^0,c
  4475   0010BA  AE30               	btfss	(___fladd@a+2)^0,7,c
  4476   0010BC  EF62  F008         	goto	u4131
  4477   0010C0  EF64  F008         	goto	u4130
  4478   0010C4                     u4131:
  4479   0010C4  EF65  F008         	goto	l5508
  4480   0010C8                     u4130:
  4481   0010C8  8037               	bsf	___fladd@aexp^0,0,c
  4482   0010CA                     l5508:
  4483   0010CA  5037               	movf	___fladd@aexp^0,w,c
  4484   0010CC  B4D8               	btfsc	status,2,c
  4485   0010CE  EF6B  F008         	goto	u4141
  4486   0010D2  EF6D  F008         	goto	u4140
  4487   0010D6                     u4141:
  4488   0010D6  EF82  F008         	goto	l5518
  4489   0010DA                     u4140:
  4490   0010DA  2837               	incf	___fladd@aexp^0,w,c
  4491   0010DC  A4D8               	btfss	status,2,c
  4492   0010DE  EF73  F008         	goto	u4151
  4493   0010E2  EF75  F008         	goto	u4150
  4494   0010E6                     u4151:
  4495   0010E6  EF7D  F008         	goto	l5514
  4496   0010EA                     u4150:
  4497   0010EA  0E00               	movlw	0
  4498   0010EC  6E2E               	movwf	___fladd@a^0,c
  4499   0010EE  0E00               	movlw	0
  4500   0010F0  6E2F               	movwf	(___fladd@a+1)^0,c
  4501   0010F2  0E00               	movlw	0
  4502   0010F4  6E30               	movwf	(___fladd@a+2)^0,c
  4503   0010F6  0E00               	movlw	0
  4504   0010F8  6E31               	movwf	(___fladd@a+3)^0,c
  4505   0010FA                     l5514:
  4506   0010FA  8E30               	bsf	(___fladd@a+2)^0,7,c
  4507   0010FC  0E00               	movlw	0
  4508   0010FE  6E31               	movwf	(___fladd@a+3)^0,c
  4509   001100  EF8A  F008         	goto	l5520
  4510   001104                     l5518:
  4511   001104  0E00               	movlw	0
  4512   001106  6E2E               	movwf	___fladd@a^0,c
  4513   001108  0E00               	movlw	0
  4514   00110A  6E2F               	movwf	(___fladd@a+1)^0,c
  4515   00110C  0E00               	movlw	0
  4516   00110E  6E30               	movwf	(___fladd@a+2)^0,c
  4517   001110  0E00               	movlw	0
  4518   001112  6E31               	movwf	(___fladd@a+3)^0,c
  4519   001114                     l5520:
  4520   001114  5038               	movf	___fladd@bexp^0,w,c
  4521   001116  5C37               	subwf	___fladd@aexp^0,w,c
  4522   001118  B0D8               	btfsc	status,0,c
  4523   00111A  EF91  F008         	goto	u4161
  4524   00111E  EF93  F008         	goto	u4160
  4525   001122                     u4161:
  4526   001122  EFBA  F008         	goto	l5556
  4527   001126                     u4160:
  4528   001126  AC36               	btfss	___fladd@signs^0,6,c
  4529   001128  EF98  F008         	goto	u4171
  4530   00112C  EF9A  F008         	goto	u4170
  4531   001130                     u4171:
  4532   001130  EF9C  F008         	goto	l5526
  4533   001134                     u4170:
  4534   001134  0E80               	movlw	128
  4535   001136  1A36               	xorwf	___fladd@signs^0,f,c
  4536   001138                     l5526:
  4537   001138  C038  F039         	movff	___fladd@bexp,___fladd@grs
  4538   00113C  C037  F038         	movff	___fladd@aexp,___fladd@bexp
  4539   001140  C039  F037         	movff	___fladd@grs,___fladd@aexp
  4540   001144  C02A  F039         	movff	___fladd@b,___fladd@grs
  4541   001148  C02E  F02A         	movff	___fladd@a,___fladd@b
  4542   00114C  C039  F02E         	movff	___fladd@grs,___fladd@a
  4543   001150  C02B  F039         	movff	___fladd@b+1,___fladd@grs
  4544   001154  C02F  F02B         	movff	___fladd@a+1,___fladd@b+1
  4545   001158  C039  F02F         	movff	___fladd@grs,___fladd@a+1
  4546   00115C  C02C  F039         	movff	___fladd@b+2,___fladd@grs
  4547   001160  C030  F02C         	movff	___fladd@a+2,___fladd@b+2
  4548   001164  C039  F030         	movff	___fladd@grs,___fladd@a+2
  4549   001168  C02D  F039         	movff	___fladd@b+3,___fladd@grs
  4550   00116C  C031  F02D         	movff	___fladd@a+3,___fladd@b+3
  4551   001170  C039  F031         	movff	___fladd@grs,___fladd@a+3
  4552   001174                     l5556:
  4553   001174  0E00               	movlw	0
  4554   001176  6E39               	movwf	___fladd@grs^0,c
  4555   001178  5038               	movf	___fladd@bexp^0,w,c
  4556   00117A  C037  F032         	movff	___fladd@aexp,??___fladd
  4557   00117E  6A33               	clrf	(??___fladd+1)^0,c
  4558   001180  5E32               	subwf	??___fladd^0,f,c
  4559   001182  0E00               	movlw	0
  4560   001184  5A33               	subwfb	(??___fladd+1)^0,f,c
  4561   001186  BE33               	btfsc	(??___fladd+1)^0,7,c
  4562   001188  EFCF  F008         	goto	u4181
  4563   00118C  5033               	movf	(??___fladd+1)^0,w,c
  4564   00118E  E109               	bnz	u4180
  4565   001190  0E1A               	movlw	26
  4566   001192  5C32               	subwf	??___fladd^0,w,c
  4567   001194  A0D8               	btfss	status,0,c
  4568   001196  EFCF  F008         	goto	u4181
  4569   00119A  EFD1  F008         	goto	u4180
  4570   00119E                     u4181:
  4571   00119E  EF08  F009         	goto	l2221
  4572   0011A2                     u4180:
  4573   0011A2  502A               	movf	___fladd@b^0,w,c
  4574   0011A4  102B               	iorwf	(___fladd@b+1)^0,w,c
  4575   0011A6  102C               	iorwf	(___fladd@b+2)^0,w,c
  4576   0011A8  102D               	iorwf	(___fladd@b+3)^0,w,c
  4577   0011AA  A4D8               	btfss	status,2,c
  4578   0011AC  EFDA  F008         	goto	u4191
  4579   0011B0  EFDD  F008         	goto	u4190
  4580   0011B4                     u4191:
  4581   0011B4  0E01               	movlw	1
  4582   0011B6  EFDE  F008         	goto	u4200
  4583   0011BA                     u4190:
  4584   0011BA  0E00               	movlw	0
  4585   0011BC                     u4200:
  4586   0011BC  6E39               	movwf	___fladd@grs^0,c
  4587   0011BE  0E00               	movlw	0
  4588   0011C0  6E2A               	movwf	___fladd@b^0,c
  4589   0011C2  0E00               	movlw	0
  4590   0011C4  6E2B               	movwf	(___fladd@b+1)^0,c
  4591   0011C6  0E00               	movlw	0
  4592   0011C8  6E2C               	movwf	(___fladd@b+2)^0,c
  4593   0011CA  0E00               	movlw	0
  4594   0011CC  6E2D               	movwf	(___fladd@b+3)^0,c
  4595   0011CE  C037  F038         	movff	___fladd@aexp,___fladd@bexp
  4596   0011D2  EF11  F009         	goto	l2220
  4597   0011D6                     l2222:
  4598   0011D6  A039               	btfss	___fladd@grs^0,0,c
  4599   0011D8  EFF0  F008         	goto	u4211
  4600   0011DC  EFF2  F008         	goto	u4210
  4601   0011E0                     u4211:
  4602   0011E0  EFF8  F008         	goto	l5568
  4603   0011E4                     u4210:
  4604   0011E4  90D8               	bcf	status,0,c
  4605   0011E6  3039               	rrcf	___fladd@grs^0,w,c
  4606   0011E8  0901               	iorlw	1
  4607   0011EA  6E39               	movwf	___fladd@grs^0,c
  4608   0011EC  EFFA  F008         	goto	l5570
  4609   0011F0                     l5568:
  4610   0011F0  90D8               	bcf	status,0,c
  4611   0011F2  3239               	rrcf	___fladd@grs^0,f,c
  4612   0011F4                     l5570:
  4613   0011F4  A02A               	btfss	___fladd@b^0,0,c
  4614   0011F6  EFFF  F008         	goto	u4221
  4615   0011FA  EF01  F009         	goto	u4220
  4616   0011FE                     u4221:
  4617   0011FE  EF02  F009         	goto	l5574
  4618   001202                     u4220:
  4619   001202  8E39               	bsf	___fladd@grs^0,7,c
  4620   001204                     l5574:
  4621   001204  342D               	rlcf	(___fladd@b+3)^0,w,c
  4622   001206  322D               	rrcf	(___fladd@b+3)^0,f,c
  4623   001208  322C               	rrcf	(___fladd@b+2)^0,f,c
  4624   00120A  322B               	rrcf	(___fladd@b+1)^0,f,c
  4625   00120C  322A               	rrcf	___fladd@b^0,f,c
  4626   00120E  2A38               	incf	___fladd@bexp^0,f,c
  4627   001210                     l2221:
  4628   001210  5037               	movf	___fladd@aexp^0,w,c
  4629   001212  5C38               	subwf	___fladd@bexp^0,w,c
  4630   001214  A0D8               	btfss	status,0,c
  4631   001216  EF0F  F009         	goto	u4231
  4632   00121A  EF11  F009         	goto	u4230
  4633   00121E                     u4231:
  4634   00121E  EFEB  F008         	goto	l2222
  4635   001222                     u4230:
  4636   001222                     l2220:
  4637   001222  BC36               	btfsc	___fladd@signs^0,6,c
  4638   001224  EF16  F009         	goto	u4241
  4639   001228  EF18  F009         	goto	u4240
  4640   00122C                     u4241:
  4641   00122C  EF58  F009         	goto	l5602
  4642   001230                     u4240:
  4643   001230  5038               	movf	___fladd@bexp^0,w,c
  4644   001232  A4D8               	btfss	status,2,c
  4645   001234  EF1E  F009         	goto	u4251
  4646   001238  EF20  F009         	goto	u4250
  4647   00123C                     u4251:
  4648   00123C  EF2A  F009         	goto	l5584
  4649   001240                     u4250:
  4650   001240  0E00               	movlw	0
  4651   001242  6E2A               	movwf	?___fladd^0,c
  4652   001244  0E00               	movlw	0
  4653   001246  6E2B               	movwf	(?___fladd+1)^0,c
  4654   001248  0E00               	movlw	0
  4655   00124A  6E2C               	movwf	(?___fladd+2)^0,c
  4656   00124C  0E00               	movlw	0
  4657   00124E  6E2D               	movwf	(?___fladd+3)^0,c
  4658   001250  EF79  F00A         	goto	l2229
  4659   001254                     l5584:
  4660   001254  502E               	movf	___fladd@a^0,w,c
  4661   001256  262A               	addwf	___fladd@b^0,f,c
  4662   001258  502F               	movf	(___fladd@a+1)^0,w,c
  4663   00125A  222B               	addwfc	(___fladd@b+1)^0,f,c
  4664   00125C  5030               	movf	(___fladd@a+2)^0,w,c
  4665   00125E  222C               	addwfc	(___fladd@b+2)^0,f,c
  4666   001260  5031               	movf	(___fladd@a+3)^0,w,c
  4667   001262  222D               	addwfc	(___fladd@b+3)^0,f,c
  4668   001264  A02D               	btfss	(___fladd@b+3)^0,0,c
  4669   001266  EF37  F009         	goto	u4261
  4670   00126A  EF39  F009         	goto	u4260
  4671   00126E                     u4261:
  4672   00126E  EFE5  F009         	goto	l5638
  4673   001272                     u4260:
  4674   001272  A039               	btfss	___fladd@grs^0,0,c
  4675   001274  EF3E  F009         	goto	u4271
  4676   001278  EF40  F009         	goto	u4270
  4677   00127C                     u4271:
  4678   00127C  EF46  F009         	goto	l5592
  4679   001280                     u4270:
  4680   001280  90D8               	bcf	status,0,c
  4681   001282  3039               	rrcf	___fladd@grs^0,w,c
  4682   001284  0901               	iorlw	1
  4683   001286  6E39               	movwf	___fladd@grs^0,c
  4684   001288  EF48  F009         	goto	l5594
  4685   00128C                     l5592:
  4686   00128C  90D8               	bcf	status,0,c
  4687   00128E  3239               	rrcf	___fladd@grs^0,f,c
  4688   001290                     l5594:
  4689   001290  A02A               	btfss	___fladd@b^0,0,c
  4690   001292  EF4D  F009         	goto	u4281
  4691   001296  EF4F  F009         	goto	u4280
  4692   00129A                     u4281:
  4693   00129A  EF50  F009         	goto	l5598
  4694   00129E                     u4280:
  4695   00129E  8E39               	bsf	___fladd@grs^0,7,c
  4696   0012A0                     l5598:
  4697   0012A0  342D               	rlcf	(___fladd@b+3)^0,w,c
  4698   0012A2  322D               	rrcf	(___fladd@b+3)^0,f,c
  4699   0012A4  322C               	rrcf	(___fladd@b+2)^0,f,c
  4700   0012A6  322B               	rrcf	(___fladd@b+1)^0,f,c
  4701   0012A8  322A               	rrcf	___fladd@b^0,f,c
  4702   0012AA  2A38               	incf	___fladd@bexp^0,f,c
  4703   0012AC  EFE5  F009         	goto	l5638
  4704   0012B0                     l5602:
  4705   0012B0  502E               	movf	___fladd@a^0,w,c
  4706   0012B2  5C2A               	subwf	___fladd@b^0,w,c
  4707   0012B4  502F               	movf	(___fladd@a+1)^0,w,c
  4708   0012B6  582B               	subwfb	(___fladd@b+1)^0,w,c
  4709   0012B8  5030               	movf	(___fladd@a+2)^0,w,c
  4710   0012BA  582C               	subwfb	(___fladd@b+2)^0,w,c
  4711   0012BC  502D               	movf	(___fladd@b+3)^0,w,c
  4712   0012BE  0A80               	xorlw	128
  4713   0012C0  6E32               	movwf	??___fladd^0,c
  4714   0012C2  5031               	movf	(___fladd@a+3)^0,w,c
  4715   0012C4  0A80               	xorlw	128
  4716   0012C6  5832               	subwfb	??___fladd^0,w,c
  4717   0012C8  B0D8               	btfsc	status,0,c
  4718   0012CA  EF69  F009         	goto	u4291
  4719   0012CE  EF6B  F009         	goto	u4290
  4720   0012D2                     u4291:
  4721   0012D2  EF96  F009         	goto	l5612
  4722   0012D6                     u4290:
  4723   0012D6  502A               	movf	___fladd@b^0,w,c
  4724   0012D8  5C2E               	subwf	___fladd@a^0,w,c
  4725   0012DA  6E32               	movwf	??___fladd^0,c
  4726   0012DC  502B               	movf	(___fladd@b+1)^0,w,c
  4727   0012DE  582F               	subwfb	(___fladd@a+1)^0,w,c
  4728   0012E0  6E33               	movwf	(??___fladd+1)^0,c
  4729   0012E2  502C               	movf	(___fladd@b+2)^0,w,c
  4730   0012E4  5830               	subwfb	(___fladd@a+2)^0,w,c
  4731   0012E6  6E34               	movwf	(??___fladd+2)^0,c
  4732   0012E8  502D               	movf	(___fladd@b+3)^0,w,c
  4733   0012EA  5831               	subwfb	(___fladd@a+3)^0,w,c
  4734   0012EC  6E35               	movwf	(??___fladd+3)^0,c
  4735   0012EE  0EFF               	movlw	255
  4736   0012F0  2432               	addwf	??___fladd^0,w,c
  4737   0012F2  6E2A               	movwf	___fladd@b^0,c
  4738   0012F4  0EFF               	movlw	255
  4739   0012F6  2033               	addwfc	(??___fladd+1)^0,w,c
  4740   0012F8  6E2B               	movwf	(___fladd@b+1)^0,c
  4741   0012FA  0EFF               	movlw	255
  4742   0012FC  2034               	addwfc	(??___fladd+2)^0,w,c
  4743   0012FE  6E2C               	movwf	(___fladd@b+2)^0,c
  4744   001300  0EFF               	movlw	255
  4745   001302  2035               	addwfc	(??___fladd+3)^0,w,c
  4746   001304  6E2D               	movwf	(___fladd@b+3)^0,c
  4747   001306  0E80               	movlw	128
  4748   001308  1A36               	xorwf	___fladd@signs^0,f,c
  4749   00130A  6C39               	negf	___fladd@grs^0,c
  4750   00130C  5039               	movf	___fladd@grs^0,w,c
  4751   00130E  A4D8               	btfss	status,2,c
  4752   001310  EF8C  F009         	goto	u4301
  4753   001314  EF8E  F009         	goto	u4300
  4754   001318                     u4301:
  4755   001318  EF9E  F009         	goto	l2237
  4756   00131C                     u4300:
  4757   00131C  0E01               	movlw	1
  4758   00131E  262A               	addwf	___fladd@b^0,f,c
  4759   001320  0E00               	movlw	0
  4760   001322  222B               	addwfc	(___fladd@b+1)^0,f,c
  4761   001324  222C               	addwfc	(___fladd@b+2)^0,f,c
  4762   001326  222D               	addwfc	(___fladd@b+3)^0,f,c
  4763   001328  EF9E  F009         	goto	l2237
  4764   00132C                     l5612:
  4765   00132C  502E               	movf	___fladd@a^0,w,c
  4766   00132E  5E2A               	subwf	___fladd@b^0,f,c
  4767   001330  502F               	movf	(___fladd@a+1)^0,w,c
  4768   001332  5A2B               	subwfb	(___fladd@b+1)^0,f,c
  4769   001334  5030               	movf	(___fladd@a+2)^0,w,c
  4770   001336  5A2C               	subwfb	(___fladd@b+2)^0,f,c
  4771   001338  5031               	movf	(___fladd@a+3)^0,w,c
  4772   00133A  5A2D               	subwfb	(___fladd@b+3)^0,f,c
  4773   00133C                     l2237:
  4774   00133C  502A               	movf	___fladd@b^0,w,c
  4775   00133E  102B               	iorwf	(___fladd@b+1)^0,w,c
  4776   001340  102C               	iorwf	(___fladd@b+2)^0,w,c
  4777   001342  102D               	iorwf	(___fladd@b+3)^0,w,c
  4778   001344  A4D8               	btfss	status,2,c
  4779   001346  EFA7  F009         	goto	u4311
  4780   00134A  EFA9  F009         	goto	u4310
  4781   00134E                     u4311:
  4782   00134E  EFDE  F009         	goto	l5636
  4783   001352                     u4310:
  4784   001352  5039               	movf	___fladd@grs^0,w,c
  4785   001354  A4D8               	btfss	status,2,c
  4786   001356  EFAF  F009         	goto	u4321
  4787   00135A  EFB1  F009         	goto	u4320
  4788   00135E                     u4321:
  4789   00135E  EFDE  F009         	goto	l5636
  4790   001362                     u4320:
  4791   001362  0E00               	movlw	0
  4792   001364  6E2A               	movwf	?___fladd^0,c
  4793   001366  0E00               	movlw	0
  4794   001368  6E2B               	movwf	(?___fladd+1)^0,c
  4795   00136A  0E00               	movlw	0
  4796   00136C  6E2C               	movwf	(?___fladd+2)^0,c
  4797   00136E  0E00               	movlw	0
  4798   001370  6E2D               	movwf	(?___fladd+3)^0,c
  4799   001372  EF79  F00A         	goto	l2229
  4800   001376                     l5620:
  4801   001376  90D8               	bcf	status,0,c
  4802   001378  362A               	rlcf	___fladd@b^0,f,c
  4803   00137A  362B               	rlcf	(___fladd@b+1)^0,f,c
  4804   00137C  362C               	rlcf	(___fladd@b+2)^0,f,c
  4805   00137E  362D               	rlcf	(___fladd@b+3)^0,f,c
  4806   001380  AE39               	btfss	___fladd@grs^0,7,c
  4807   001382  EFC5  F009         	goto	u4331
  4808   001386  EFC7  F009         	goto	u4330
  4809   00138A                     u4331:
  4810   00138A  EFC8  F009         	goto	l5626
  4811   00138E                     u4330:
  4812   00138E  802A               	bsf	___fladd@b^0,0,c
  4813   001390                     l5626:
  4814   001390  A039               	btfss	___fladd@grs^0,0,c
  4815   001392  EFCD  F009         	goto	u4341
  4816   001396  EFCF  F009         	goto	u4340
  4817   00139A                     u4341:
  4818   00139A  EFD3  F009         	goto	l5630
  4819   00139E                     u4340:
  4820   00139E  80D8               	bsf	status,0,c
  4821   0013A0  3639               	rlcf	___fladd@grs^0,f,c
  4822   0013A2  EFD5  F009         	goto	l5632
  4823   0013A6                     l5630:
  4824   0013A6  90D8               	bcf	status,0,c
  4825   0013A8  3639               	rlcf	___fladd@grs^0,f,c
  4826   0013AA                     l5632:
  4827   0013AA  5038               	movf	___fladd@bexp^0,w,c
  4828   0013AC  B4D8               	btfsc	status,2,c
  4829   0013AE  EFDB  F009         	goto	u4351
  4830   0013B2  EFDD  F009         	goto	u4350
  4831   0013B6                     u4351:
  4832   0013B6  EFDE  F009         	goto	l5636
  4833   0013BA                     u4350:
  4834   0013BA  0638               	decf	___fladd@bexp^0,f,c
  4835   0013BC                     l5636:
  4836   0013BC  AE2C               	btfss	(___fladd@b+2)^0,7,c
  4837   0013BE  EFE3  F009         	goto	u4361
  4838   0013C2  EFE5  F009         	goto	u4360
  4839   0013C6                     u4361:
  4840   0013C6  EFBB  F009         	goto	l5620
  4841   0013CA                     u4360:
  4842   0013CA                     l5638:
  4843   0013CA  0E00               	movlw	0
  4844   0013CC  6E37               	movwf	___fladd@aexp^0,c
  4845   0013CE  AE39               	btfss	___fladd@grs^0,7,c
  4846   0013D0  EFEC  F009         	goto	u4371
  4847   0013D4  EFEE  F009         	goto	u4370
  4848   0013D8                     u4371:
  4849   0013D8  EF06  F00A         	goto	l2246
  4850   0013DC                     u4370:
  4851   0013DC  C039  F032         	movff	___fladd@grs,??___fladd
  4852   0013E0  0E7F               	movlw	127
  4853   0013E2  1632               	andwf	??___fladd^0,f,c
  4854   0013E4  B4D8               	btfsc	status,2,c
  4855   0013E6  EFF7  F009         	goto	u4381
  4856   0013EA  EFF9  F009         	goto	u4380
  4857   0013EE                     u4381:
  4858   0013EE  EFFD  F009         	goto	l2247
  4859   0013F2                     u4380:
  4860   0013F2                     l5644:
  4861   0013F2  0E01               	movlw	1
  4862   0013F4  6E37               	movwf	___fladd@aexp^0,c
  4863   0013F6  EF06  F00A         	goto	l2246
  4864   0013FA                     l2247:
  4865   0013FA  A02A               	btfss	___fladd@b^0,0,c
  4866   0013FC  EF02  F00A         	goto	u4391
  4867   001400  EF04  F00A         	goto	u4390
  4868   001404                     u4391:
  4869   001404  EF06  F00A         	goto	l2246
  4870   001408                     u4390:
  4871   001408  EFF9  F009         	goto	l5644
  4872   00140C                     l2246:
  4873   00140C  5037               	movf	___fladd@aexp^0,w,c
  4874   00140E  B4D8               	btfsc	status,2,c
  4875   001410  EF0C  F00A         	goto	u4401
  4876   001414  EF0E  F00A         	goto	u4400
  4877   001418                     u4401:
  4878   001418  EF39  F00A         	goto	l5656
  4879   00141C                     u4400:
  4880   00141C  0E01               	movlw	1
  4881   00141E  262A               	addwf	___fladd@b^0,f,c
  4882   001420  0E00               	movlw	0
  4883   001422  222B               	addwfc	(___fladd@b+1)^0,f,c
  4884   001424  222C               	addwfc	(___fladd@b+2)^0,f,c
  4885   001426  222D               	addwfc	(___fladd@b+3)^0,f,c
  4886   001428  A02D               	btfss	(___fladd@b+3)^0,0,c
  4887   00142A  EF19  F00A         	goto	u4411
  4888   00142E  EF1B  F00A         	goto	u4410
  4889   001432                     u4411:
  4890   001432  EF39  F00A         	goto	l5656
  4891   001436                     u4410:
  4892   001436  C02A  F032         	movff	___fladd@b,??___fladd
  4893   00143A  C02B  F033         	movff	___fladd@b+1,??___fladd+1
  4894   00143E  C02C  F034         	movff	___fladd@b+2,??___fladd+2
  4895   001442  C02D  F035         	movff	___fladd@b+3,??___fladd+3
  4896   001446  3435               	rlcf	(??___fladd+3)^0,w,c
  4897   001448  3235               	rrcf	(??___fladd+3)^0,f,c
  4898   00144A  3234               	rrcf	(??___fladd+2)^0,f,c
  4899   00144C  3233               	rrcf	(??___fladd+1)^0,f,c
  4900   00144E  3232               	rrcf	??___fladd^0,f,c
  4901   001450  C032  F02A         	movff	??___fladd,___fladd@b
  4902   001454  C033  F02B         	movff	??___fladd+1,___fladd@b+1
  4903   001458  C034  F02C         	movff	??___fladd+2,___fladd@b+2
  4904   00145C  C035  F02D         	movff	??___fladd+3,___fladd@b+3
  4905   001460  2838               	incf	___fladd@bexp^0,w,c
  4906   001462  B4D8               	btfsc	status,2,c
  4907   001464  EF36  F00A         	goto	u4421
  4908   001468  EF38  F00A         	goto	u4420
  4909   00146C                     u4421:
  4910   00146C  EF39  F00A         	goto	l5656
  4911   001470                     u4420:
  4912   001470  2A38               	incf	___fladd@bexp^0,f,c
  4913   001472                     l5656:
  4914   001472  2838               	incf	___fladd@bexp^0,w,c
  4915   001474  B4D8               	btfsc	status,2,c
  4916   001476  EF3F  F00A         	goto	u4431
  4917   00147A  EF41  F00A         	goto	u4430
  4918   00147E                     u4431:
  4919   00147E  EF49  F00A         	goto	l5660
  4920   001482                     u4430:
  4921   001482  5038               	movf	___fladd@bexp^0,w,c
  4922   001484  A4D8               	btfss	status,2,c
  4923   001486  EF47  F00A         	goto	u4441
  4924   00148A  EF49  F00A         	goto	u4440
  4925   00148E                     u4441:
  4926   00148E  EF5B  F00A         	goto	l5664
  4927   001492                     u4440:
  4928   001492                     l5660:
  4929   001492  0E00               	movlw	0
  4930   001494  6E2A               	movwf	___fladd@b^0,c
  4931   001496  0E00               	movlw	0
  4932   001498  6E2B               	movwf	(___fladd@b+1)^0,c
  4933   00149A  0E00               	movlw	0
  4934   00149C  6E2C               	movwf	(___fladd@b+2)^0,c
  4935   00149E  0E00               	movlw	0
  4936   0014A0  6E2D               	movwf	(___fladd@b+3)^0,c
  4937   0014A2  5038               	movf	___fladd@bexp^0,w,c
  4938   0014A4  A4D8               	btfss	status,2,c
  4939   0014A6  EF57  F00A         	goto	u4451
  4940   0014AA  EF59  F00A         	goto	u4450
  4941   0014AE                     u4451:
  4942   0014AE  EF5B  F00A         	goto	l5664
  4943   0014B2                     u4450:
  4944   0014B2  0E00               	movlw	0
  4945   0014B4  6E36               	movwf	___fladd@signs^0,c
  4946   0014B6                     l5664:
  4947   0014B6  A038               	btfss	___fladd@bexp^0,0,c
  4948   0014B8  EF60  F00A         	goto	u4461
  4949   0014BC  EF62  F00A         	goto	u4460
  4950   0014C0                     u4461:
  4951   0014C0  EF65  F00A         	goto	l5668
  4952   0014C4                     u4460:
  4953   0014C4  8E2C               	bsf	(___fladd@b+2)^0,7,c
  4954   0014C6  EF66  F00A         	goto	l5670
  4955   0014CA                     l5668:
  4956   0014CA  9E2C               	bcf	(___fladd@b+2)^0,7,c
  4957   0014CC                     l5670:
  4958   0014CC  90D8               	bcf	status,0,c
  4959   0014CE  3038               	rrcf	___fladd@bexp^0,w,c
  4960   0014D0  6E2D               	movwf	(___fladd@b+3)^0,c
  4961   0014D2  AE36               	btfss	___fladd@signs^0,7,c
  4962   0014D4  EF6E  F00A         	goto	u4471
  4963   0014D8  EF70  F00A         	goto	u4470
  4964   0014DC                     u4471:
  4965   0014DC  EF71  F00A         	goto	l5676
  4966   0014E0                     u4470:
  4967   0014E0  8E2D               	bsf	(___fladd@b+3)^0,7,c
  4968   0014E2                     l5676:
  4969   0014E2  C02A  F02A         	movff	___fladd@b,?___fladd
  4970   0014E6  C02B  F02B         	movff	___fladd@b+1,?___fladd+1
  4971   0014EA  C02C  F02C         	movff	___fladd@b+2,?___fladd+2
  4972   0014EE  C02D  F02D         	movff	___fladd@b+3,?___fladd+3
  4973   0014F2                     l2229:
  4974   0014F2  0012               	return		;funcret
  4975   0014F4                     __end_of___fladd:
  4976                           	callstack 0
  4977                           
  4978 ;; *************** function _InterruptManager *****************
  4979 ;; Defined at:
  4980 ;;		line 26 in file "MCAL_Layer/interrupt/interrupt_manager.c"
  4981 ;; Parameters:    Size  Location     Type
  4982 ;;		None
  4983 ;; Auto vars:     Size  Location     Type
  4984 ;;		None
  4985 ;; Return value:  Size  Location     Type
  4986 ;;                  1    wreg      void 
  4987 ;; Registers used:
  4988 ;;		wreg, status,2, status,0, pcl, pclath, pclatu, tosl, cstack
  4989 ;; Tracked objects:
  4990 ;;		On entry : 0/0
  4991 ;;		On exit  : 0/0
  4992 ;;		Unchanged: 0/0
  4993 ;; Data sizes:     COMRAM   BANK0   BANK1   BANK2   BANK3   BANK4   BANK5   BANK6   BANK7   BANK8   BANK9  BANK10  BANK1
      +1  BANK12  BANK13  BANK14  BANK15
  4994 ;;      Params:         0       0       0       0       0       0       0       0       0       0       0       0       
      +0       0       0       0       0
  4995 ;;      Locals:         0       0       0       0       0       0       0       0       0       0       0       0       
      +0       0       0       0       0
  4996 ;;      Temps:          2       0       0       0       0       0       0       0       0       0       0       0       
      +0       0       0       0       0
  4997 ;;      Totals:         2       0       0       0       0       0       0       0       0       0       0       0       
      +0       0       0       0       0
  4998 ;;Total ram usage:        2 bytes
  4999 ;; Hardware stack levels used: 1
  5000 ;; Hardware stack levels required when called: 2
  5001 ;; This function calls:
  5002 ;;		_EUSART_RX_ISR
  5003 ;;		_EUSART_TX_ISR
  5004 ;;		_MSSP_I2C_BC_ISR
  5005 ;;		_MSSP_I2C_ISR
  5006 ;;		_TMR0_ISR
  5007 ;;		_TMR1_ISR
  5008 ;;		_TMR2_ISR
  5009 ;;		_TMR3_ISR
  5010 ;; This function is called by:
  5011 ;;		Interrupt level 2
  5012 ;; This function uses a non-reentrant model
  5013 ;;
  5014                           
  5015                           	psect	intcode
  5016   000008                     __pintcode:
  5017                           	callstack 0
  5018   000008                     _InterruptManager:
  5019                           	callstack 22
  5020                           
  5021                           ;incstack = 0
  5022   000008  825C               	bsf	int$flags,1,c	;set compiler interrupt flag (level 2)
  5023   00000A  CFFA F001          	movff	pclath,??_InterruptManager
  5024   00000E  CFFB F002          	movff	pclatu,??_InterruptManager+1
  5025   000012                     
  5026                           ;MCAL_Layer/interrupt/interrupt_manager.c: 50:     if ((1 == INTCONbits.TMR0IE) && (1 ==
      +                           INTCONbits.TMR0IF)) {
  5027   000012  AAF2               	btfss	242,5,c	;volatile
  5028   000014  EF0E  F000         	goto	i2u630_41
  5029   000018  EF10  F000         	goto	i2u630_40
  5030   00001C                     i2u630_41:
  5031   00001C  EF19  F000         	goto	i2l1351
  5032   000020                     i2u630_40:
  5033   000020  A4F2               	btfss	242,2,c	;volatile
  5034   000022  EF15  F000         	goto	i2u631_41
  5035   000026  EF17  F000         	goto	i2u631_40
  5036   00002A                     i2u631_41:
  5037   00002A  EF19  F000         	goto	i2l1351
  5038   00002E                     i2u631_40:
  5039   00002E                     
  5040                           ;MCAL_Layer/interrupt/interrupt_manager.c: 51:         TMR0_ISR();
  5041   00002E  EC83  F013         	call	_TMR0_ISR	;wreg free
  5042   000032                     i2l1351:
  5043                           
  5044                           ;MCAL_Layer/interrupt/interrupt_manager.c: 55:     if ((1 == PIE1bits.TMR1IE) && (1 == P
      +                          IR1bits.TMR1IF)) {
  5045   000032  A09D               	btfss	157,0,c	;volatile
  5046   000034  EF1E  F000         	goto	i2u632_41
  5047   000038  EF20  F000         	goto	i2u632_40
  5048   00003C                     i2u632_41:
  5049   00003C  EF29  F000         	goto	i2l1353
  5050   000040                     i2u632_40:
  5051   000040  A09E               	btfss	158,0,c	;volatile
  5052   000042  EF25  F000         	goto	i2u633_41
  5053   000046  EF27  F000         	goto	i2u633_40
  5054   00004A                     i2u633_41:
  5055   00004A  EF29  F000         	goto	i2l1353
  5056   00004E                     i2u633_40:
  5057   00004E                     
  5058                           ;MCAL_Layer/interrupt/interrupt_manager.c: 56:         TMR1_ISR();
  5059   00004E  EC81  F013         	call	_TMR1_ISR	;wreg free
  5060   000052                     i2l1353:
  5061                           
  5062                           ;MCAL_Layer/interrupt/interrupt_manager.c: 60:     if ((1 == PIE1bits.TMR2IE) && (1 == P
      +                          IR1bits.TMR2IF)) {
  5063   000052  A29D               	btfss	157,1,c	;volatile
  5064   000054  EF2E  F000         	goto	i2u634_41
  5065   000058  EF30  F000         	goto	i2u634_40
  5066   00005C                     i2u634_41:
  5067   00005C  EF39  F000         	goto	i2l1355
  5068   000060                     i2u634_40:
  5069   000060  A29E               	btfss	158,1,c	;volatile
  5070   000062  EF35  F000         	goto	i2u635_41
  5071   000066  EF37  F000         	goto	i2u635_40
  5072   00006A                     i2u635_41:
  5073   00006A  EF39  F000         	goto	i2l1355
  5074   00006E                     i2u635_40:
  5075   00006E                     
  5076                           ;MCAL_Layer/interrupt/interrupt_manager.c: 61:         TMR2_ISR();
  5077   00006E  EC7F  F013         	call	_TMR2_ISR	;wreg free
  5078   000072                     i2l1355:
  5079                           
  5080                           ;MCAL_Layer/interrupt/interrupt_manager.c: 65:     if ((1 == PIE2bits.TMR3IE) && (1 == P
      +                          IR2bits.TMR3IF)) {
  5081   000072  A2A0               	btfss	160,1,c	;volatile
  5082   000074  EF3E  F000         	goto	i2u636_41
  5083   000078  EF40  F000         	goto	i2u636_40
  5084   00007C                     i2u636_41:
  5085   00007C  EF49  F000         	goto	i2l1357
  5086   000080                     i2u636_40:
  5087   000080  A2A1               	btfss	161,1,c	;volatile
  5088   000082  EF45  F000         	goto	i2u637_41
  5089   000086  EF47  F000         	goto	i2u637_40
  5090   00008A                     i2u637_41:
  5091   00008A  EF49  F000         	goto	i2l1357
  5092   00008E                     i2u637_40:
  5093   00008E                     
  5094                           ;MCAL_Layer/interrupt/interrupt_manager.c: 66:         TMR3_ISR();
  5095   00008E  EC7D  F013         	call	_TMR3_ISR	;wreg free
  5096   000092                     i2l1357:
  5097                           
  5098                           ;MCAL_Layer/interrupt/interrupt_manager.c: 80:     if ((1 == PIE1bits.TXIE) && (1 == PIR
      +                          1bits.TXIF)) {
  5099   000092  A89D               	btfss	157,4,c	;volatile
  5100   000094  EF4E  F000         	goto	i2u638_41
  5101   000098  EF50  F000         	goto	i2u638_40
  5102   00009C                     i2u638_41:
  5103   00009C  EF59  F000         	goto	i2l1359
  5104   0000A0                     i2u638_40:
  5105   0000A0  A89E               	btfss	158,4,c	;volatile
  5106   0000A2  EF55  F000         	goto	i2u639_41
  5107   0000A6  EF57  F000         	goto	i2u639_40
  5108   0000AA                     i2u639_41:
  5109   0000AA  EF59  F000         	goto	i2l1359
  5110   0000AE                     i2u639_40:
  5111   0000AE                     
  5112                           ;MCAL_Layer/interrupt/interrupt_manager.c: 81:         EUSART_TX_ISR();
  5113   0000AE  EC87  F013         	call	_EUSART_TX_ISR	;wreg free
  5114   0000B2                     i2l1359:
  5115                           
  5116                           ;MCAL_Layer/interrupt/interrupt_manager.c: 85:     if ((1 == PIE1bits.RCIE) && (1 == PIR
      +                          1bits.RCIF)) {
  5117   0000B2  AA9D               	btfss	157,5,c	;volatile
  5118   0000B4  EF5E  F000         	goto	i2u640_41
  5119   0000B8  EF60  F000         	goto	i2u640_40
  5120   0000BC                     i2u640_41:
  5121   0000BC  EF69  F000         	goto	i2l1361
  5122   0000C0                     i2u640_40:
  5123   0000C0  AA9E               	btfss	158,5,c	;volatile
  5124   0000C2  EF65  F000         	goto	i2u641_41
  5125   0000C6  EF67  F000         	goto	i2u641_40
  5126   0000CA                     i2u641_41:
  5127   0000CA  EF69  F000         	goto	i2l1361
  5128   0000CE                     i2u641_40:
  5129   0000CE                     
  5130                           ;MCAL_Layer/interrupt/interrupt_manager.c: 86:         EUSART_RX_ISR();
  5131   0000CE  EC89  F013         	call	_EUSART_RX_ISR	;wreg free
  5132   0000D2                     i2l1361:
  5133                           
  5134                           ;MCAL_Layer/interrupt/interrupt_manager.c: 91:     if ((1 == PIE1bits.SSPIE) && (1 == PI
      +                          R1bits.SSPIF)) {
  5135   0000D2  A69D               	btfss	157,3,c	;volatile
  5136   0000D4  EF6E  F000         	goto	i2u642_41
  5137   0000D8  EF70  F000         	goto	i2u642_40
  5138   0000DC                     i2u642_41:
  5139   0000DC  EF79  F000         	goto	i2l1363
  5140   0000E0                     i2u642_40:
  5141   0000E0  A69E               	btfss	158,3,c	;volatile
  5142   0000E2  EF75  F000         	goto	i2u643_41
  5143   0000E6  EF77  F000         	goto	i2u643_40
  5144   0000EA                     i2u643_41:
  5145   0000EA  EF79  F000         	goto	i2l1363
  5146   0000EE                     i2u643_40:
  5147   0000EE                     
  5148                           ;MCAL_Layer/interrupt/interrupt_manager.c: 92:         MSSP_I2C_ISR();
  5149   0000EE  EC16  F013         	call	_MSSP_I2C_ISR	;wreg free
  5150   0000F2                     i2l1363:
  5151                           
  5152                           ;MCAL_Layer/interrupt/interrupt_manager.c: 96:     if ((1 == PIE2bits.BCLIE) && (1 == PI
      +                          R2bits.BCLIF)) {
  5153   0000F2  A6A0               	btfss	160,3,c	;volatile
  5154   0000F4  EF7E  F000         	goto	i2u644_41
  5155   0000F8  EF80  F000         	goto	i2u644_40
  5156   0000FC                     i2u644_41:
  5157   0000FC  EF89  F000         	goto	i2l1366
  5158   000100                     i2u644_40:
  5159   000100  A6A1               	btfss	161,3,c	;volatile
  5160   000102  EF85  F000         	goto	i2u645_41
  5161   000106  EF87  F000         	goto	i2u645_40
  5162   00010A                     i2u645_41:
  5163   00010A  EF89  F000         	goto	i2l1366
  5164   00010E                     i2u645_40:
  5165   00010E                     
  5166                           ;MCAL_Layer/interrupt/interrupt_manager.c: 97:         MSSP_I2C_BC_ISR();
  5167   00010E  EC85  F013         	call	_MSSP_I2C_BC_ISR	;wreg free
  5168   000112                     i2l1366:
  5169   000112  C002  FFFB         	movff	??_InterruptManager+1,pclatu
  5170   000116  C001  FFFA         	movff	??_InterruptManager,pclath
  5171   00011A  925C               	bcf	int$flags,1,c	;clear compiler interrupt flag (level 2)
  5172   00011C  0011               	retfie		f
  5173   00011E                     __end_of_InterruptManager:
  5174                           	callstack 0
  5175                           
  5176 ;; *************** function _TMR3_ISR *****************
  5177 ;; Defined at:
  5178 ;;		line 185 in file "MCAL_Layer/Timers/hal_timer3.c"
  5179 ;; Parameters:    Size  Location     Type
  5180 ;;		None
  5181 ;; Auto vars:     Size  Location     Type
  5182 ;;		None
  5183 ;; Return value:  Size  Location     Type
  5184 ;;                  1    wreg      void 
  5185 ;; Registers used:
  5186 ;;		None
  5187 ;; Tracked objects:
  5188 ;;		On entry : 0/0
  5189 ;;		On exit  : 0/0
  5190 ;;		Unchanged: 0/0
  5191 ;; Data sizes:     COMRAM   BANK0   BANK1   BANK2   BANK3   BANK4   BANK5   BANK6   BANK7   BANK8   BANK9  BANK10  BANK1
      +1  BANK12  BANK13  BANK14  BANK15
  5192 ;;      Params:         0       0       0       0       0       0       0       0       0       0       0       0       
      +0       0       0       0       0
  5193 ;;      Locals:         0       0       0       0       0       0       0       0       0       0       0       0       
      +0       0       0       0       0
  5194 ;;      Temps:          0       0       0       0       0       0       0       0       0       0       0       0       
      +0       0       0       0       0
  5195 ;;      Totals:         0       0       0       0       0       0       0       0       0       0       0       0       
      +0       0       0       0       0
  5196 ;;Total ram usage:        0 bytes
  5197 ;; Hardware stack levels used: 1
  5198 ;; This function calls:
  5199 ;;		Nothing
  5200 ;; This function is called by:
  5201 ;;		_InterruptManager
  5202 ;; This function uses a non-reentrant model
  5203 ;;
  5204                           
  5205                           	psect	text30
  5206   0026FA                     __ptext30:
  5207                           	callstack 0
  5208   0026FA                     _TMR3_ISR:
  5209                           	callstack 23
  5210   0026FA                     
  5211                           ;MCAL_Layer/Timers/hal_timer3.c: 186:     (PIR2bits.TMR3IF = 0);
  5212   0026FA  92A1               	bcf	161,1,c	;volatile
  5213   0026FC  0012               	return		;funcret
  5214   0026FE                     __end_of_TMR3_ISR:
  5215                           	callstack 0
  5216                           
  5217 ;; *************** function _TMR2_ISR *****************
  5218 ;; Defined at:
  5219 ;;		line 130 in file "MCAL_Layer/Timers/hal_timer2.c"
  5220 ;; Parameters:    Size  Location     Type
  5221 ;;		None
  5222 ;; Auto vars:     Size  Location     Type
  5223 ;;		None
  5224 ;; Return value:  Size  Location     Type
  5225 ;;                  1    wreg      void 
  5226 ;; Registers used:
  5227 ;;		None
  5228 ;; Tracked objects:
  5229 ;;		On entry : 0/0
  5230 ;;		On exit  : 0/0
  5231 ;;		Unchanged: 0/0
  5232 ;; Data sizes:     COMRAM   BANK0   BANK1   BANK2   BANK3   BANK4   BANK5   BANK6   BANK7   BANK8   BANK9  BANK10  BANK1
      +1  BANK12  BANK13  BANK14  BANK15
  5233 ;;      Params:         0       0       0       0       0       0       0       0       0       0       0       0       
      +0       0       0       0       0
  5234 ;;      Locals:         0       0       0       0       0       0       0       0       0       0       0       0       
      +0       0       0       0       0
  5235 ;;      Temps:          0       0       0       0       0       0       0       0       0       0       0       0       
      +0       0       0       0       0
  5236 ;;      Totals:         0       0       0       0       0       0       0       0       0       0       0       0       
      +0       0       0       0       0
  5237 ;;Total ram usage:        0 bytes
  5238 ;; Hardware stack levels used: 1
  5239 ;; This function calls:
  5240 ;;		Nothing
  5241 ;; This function is called by:
  5242 ;;		_InterruptManager
  5243 ;; This function uses a non-reentrant model
  5244 ;;
  5245                           
  5246                           	psect	text31
  5247   0026FE                     __ptext31:
  5248                           	callstack 0
  5249   0026FE                     _TMR2_ISR:
  5250                           	callstack 23
  5251   0026FE                     
  5252                           ;MCAL_Layer/Timers/hal_timer2.c: 131:     (PIR1bits.TMR2IF = 0);
  5253   0026FE  929E               	bcf	158,1,c	;volatile
  5254   002700  0012               	return		;funcret
  5255   002702                     __end_of_TMR2_ISR:
  5256                           	callstack 0
  5257                           
  5258 ;; *************** function _TMR1_ISR *****************
  5259 ;; Defined at:
  5260 ;;		line 187 in file "MCAL_Layer/Timers/hal_timer1.c"
  5261 ;; Parameters:    Size  Location     Type
  5262 ;;		None
  5263 ;; Auto vars:     Size  Location     Type
  5264 ;;		None
  5265 ;; Return value:  Size  Location     Type
  5266 ;;                  1    wreg      void 
  5267 ;; Registers used:
  5268 ;;		None
  5269 ;; Tracked objects:
  5270 ;;		On entry : 0/0
  5271 ;;		On exit  : 0/0
  5272 ;;		Unchanged: 0/0
  5273 ;; Data sizes:     COMRAM   BANK0   BANK1   BANK2   BANK3   BANK4   BANK5   BANK6   BANK7   BANK8   BANK9  BANK10  BANK1
      +1  BANK12  BANK13  BANK14  BANK15
  5274 ;;      Params:         0       0       0       0       0       0       0       0       0       0       0       0       
      +0       0       0       0       0
  5275 ;;      Locals:         0       0       0       0       0       0       0       0       0       0       0       0       
      +0       0       0       0       0
  5276 ;;      Temps:          0       0       0       0       0       0       0       0       0       0       0       0       
      +0       0       0       0       0
  5277 ;;      Totals:         0       0       0       0       0       0       0       0       0       0       0       0       
      +0       0       0       0       0
  5278 ;;Total ram usage:        0 bytes
  5279 ;; Hardware stack levels used: 1
  5280 ;; This function calls:
  5281 ;;		Nothing
  5282 ;; This function is called by:
  5283 ;;		_InterruptManager
  5284 ;; This function uses a non-reentrant model
  5285 ;;
  5286                           
  5287                           	psect	text32
  5288   002702                     __ptext32:
  5289                           	callstack 0
  5290   002702                     _TMR1_ISR:
  5291                           	callstack 23
  5292   002702                     
  5293                           ;MCAL_Layer/Timers/hal_timer1.c: 188:     (PIR1bits.TMR1IF = 0);
  5294   002702  909E               	bcf	158,0,c	;volatile
  5295   002704  0012               	return		;funcret
  5296   002706                     __end_of_TMR1_ISR:
  5297                           	callstack 0
  5298                           
  5299 ;; *************** function _TMR0_ISR *****************
  5300 ;; Defined at:
  5301 ;;		line 199 in file "MCAL_Layer/Timers/hal_timer0.c"
  5302 ;; Parameters:    Size  Location     Type
  5303 ;;		None
  5304 ;; Auto vars:     Size  Location     Type
  5305 ;;		None
  5306 ;; Return value:  Size  Location     Type
  5307 ;;                  1    wreg      void 
  5308 ;; Registers used:
  5309 ;;		None
  5310 ;; Tracked objects:
  5311 ;;		On entry : 0/0
  5312 ;;		On exit  : 0/0
  5313 ;;		Unchanged: 0/0
  5314 ;; Data sizes:     COMRAM   BANK0   BANK1   BANK2   BANK3   BANK4   BANK5   BANK6   BANK7   BANK8   BANK9  BANK10  BANK1
      +1  BANK12  BANK13  BANK14  BANK15
  5315 ;;      Params:         0       0       0       0       0       0       0       0       0       0       0       0       
      +0       0       0       0       0
  5316 ;;      Locals:         0       0       0       0       0       0       0       0       0       0       0       0       
      +0       0       0       0       0
  5317 ;;      Temps:          0       0       0       0       0       0       0       0       0       0       0       0       
      +0       0       0       0       0
  5318 ;;      Totals:         0       0       0       0       0       0       0       0       0       0       0       0       
      +0       0       0       0       0
  5319 ;;Total ram usage:        0 bytes
  5320 ;; Hardware stack levels used: 1
  5321 ;; This function calls:
  5322 ;;		Nothing
  5323 ;; This function is called by:
  5324 ;;		_InterruptManager
  5325 ;; This function uses a non-reentrant model
  5326 ;;
  5327                           
  5328                           	psect	text33
  5329   002706                     __ptext33:
  5330                           	callstack 0
  5331   002706                     _TMR0_ISR:
  5332                           	callstack 23
  5333   002706                     
  5334                           ;MCAL_Layer/Timers/hal_timer0.c: 200:     (INTCONbits.TMR0IF = 0);
  5335   002706  94F2               	bcf	242,2,c	;volatile
  5336   002708  0012               	return		;funcret
  5337   00270A                     __end_of_TMR0_ISR:
  5338                           	callstack 0
  5339                           
  5340 ;; *************** function _MSSP_I2C_ISR *****************
  5341 ;; Defined at:
  5342 ;;		line 235 in file "MCAL_Layer/I2C/hal_i2c.c"
  5343 ;; Parameters:    Size  Location     Type
  5344 ;;		None
  5345 ;; Auto vars:     Size  Location     Type
  5346 ;;		None
  5347 ;; Return value:  Size  Location     Type
  5348 ;;                  1    wreg      void 
  5349 ;; Registers used:
  5350 ;;		wreg, status,2, status,0, pcl, pclath, pclatu, tosl, cstack
  5351 ;; Tracked objects:
  5352 ;;		On entry : 0/0
  5353 ;;		On exit  : 0/0
  5354 ;;		Unchanged: 0/0
  5355 ;; Data sizes:     COMRAM   BANK0   BANK1   BANK2   BANK3   BANK4   BANK5   BANK6   BANK7   BANK8   BANK9  BANK10  BANK1
      +1  BANK12  BANK13  BANK14  BANK15
  5356 ;;      Params:         0       0       0       0       0       0       0       0       0       0       0       0       
      +0       0       0       0       0
  5357 ;;      Locals:         0       0       0       0       0       0       0       0       0       0       0       0       
      +0       0       0       0       0
  5358 ;;      Temps:          0       0       0       0       0       0       0       0       0       0       0       0       
      +0       0       0       0       0
  5359 ;;      Totals:         0       0       0       0       0       0       0       0       0       0       0       0       
      +0       0       0       0       0
  5360 ;;Total ram usage:        0 bytes
  5361 ;; Hardware stack levels used: 1
  5362 ;; Hardware stack levels required when called: 1
  5363 ;; This function calls:
  5364 ;;		NULL
  5365 ;;		_I2C_DefaultInterruptHandler
  5366 ;; This function is called by:
  5367 ;;		_InterruptManager
  5368 ;; This function uses a non-reentrant model
  5369 ;;
  5370                           
  5371                           	psect	text34
  5372   00262C                     __ptext34:
  5373                           	callstack 0
  5374   00262C                     _MSSP_I2C_ISR:
  5375                           	callstack 22
  5376   00262C                     
  5377                           ;MCAL_Layer/I2C/hal_i2c.c: 237:     (PIR1bits.SSPIF = 0);
  5378   00262C  969E               	bcf	158,3,c	;volatile
  5379   00262E                     
  5380                           ;MCAL_Layer/I2C/hal_i2c.c: 238:     if (I2C_Default_Interrupt_Handler) {
  5381   00262E  5048               	movf	_I2C_Default_Interrupt_Handler^0,w,c
  5382   002630  1049               	iorwf	(_I2C_Default_Interrupt_Handler+1)^0,w,c
  5383   002632  B4D8               	btfsc	status,2,c
  5384   002634  EF1E  F013         	goto	i2u145_41
  5385   002638  EF20  F013         	goto	i2u145_40
  5386   00263C                     i2u145_41:
  5387   00263C  EF2C  F013         	goto	i2l1077
  5388   002640                     i2u145_40:
  5389   002640                     
  5390                           ;MCAL_Layer/I2C/hal_i2c.c: 239:         I2C_Default_Interrupt_Handler();
  5391   002640  D802               	call	i2u146_48
  5392   002642  EF2C  F013         	goto	i2u146_49
  5393   002646                     i2u146_48:
  5394   002646  0005               	push	
  5395   002648  6EFA               	movwf	pclath,c
  5396   00264A  5048               	movf	_I2C_Default_Interrupt_Handler^0,w,c
  5397   00264C  6EFD               	movwf	tosl,c
  5398   00264E  5049               	movf	(_I2C_Default_Interrupt_Handler+1)^0,w,c
  5399   002650  6EFE               	movwf	tosh,c
  5400   002652  6AFF               	clrf	tosu,c
  5401   002654  50FA               	movf	pclath,w,c
  5402   002656  0012               	return		;indir
  5403   002658                     i2u146_49:
  5404   002658                     i2l1077:
  5405   002658  0012               	return		;funcret
  5406   00265A                     __end_of_MSSP_I2C_ISR:
  5407                           	callstack 0
  5408                           
  5409 ;; *************** function _I2C_DefaultInterruptHandler *****************
  5410 ;; Defined at:
  5411 ;;		line 45 in file "application.c"
  5412 ;; Parameters:    Size  Location     Type
  5413 ;;		None
  5414 ;; Auto vars:     Size  Location     Type
  5415 ;;		None
  5416 ;; Return value:  Size  Location     Type
  5417 ;;                  1    wreg      void 
  5418 ;; Registers used:
  5419 ;;		None
  5420 ;; Tracked objects:
  5421 ;;		On entry : 0/0
  5422 ;;		On exit  : 0/0
  5423 ;;		Unchanged: 0/0
  5424 ;; Data sizes:     COMRAM   BANK0   BANK1   BANK2   BANK3   BANK4   BANK5   BANK6   BANK7   BANK8   BANK9  BANK10  BANK1
      +1  BANK12  BANK13  BANK14  BANK15
  5425 ;;      Params:         0       0       0       0       0       0       0       0       0       0       0       0       
      +0       0       0       0       0
  5426 ;;      Locals:         0       0       0       0       0       0       0       0       0       0       0       0       
      +0       0       0       0       0
  5427 ;;      Temps:          0       0       0       0       0       0       0       0       0       0       0       0       
      +0       0       0       0       0
  5428 ;;      Totals:         0       0       0       0       0       0       0       0       0       0       0       0       
      +0       0       0       0       0
  5429 ;;Total ram usage:        0 bytes
  5430 ;; Hardware stack levels used: 1
  5431 ;; This function calls:
  5432 ;;		Nothing
  5433 ;; This function is called by:
  5434 ;;		_MSSP_I2C_ISR
  5435 ;; This function uses a non-reentrant model
  5436 ;;
  5437                           
  5438                           	psect	text35
  5439   002680                     __ptext35:
  5440                           	callstack 0
  5441   002680                     _I2C_DefaultInterruptHandler:
  5442                           	callstack 22
  5443   002680                     
  5444                           ;application.c: 46:     if (SSPSTATbits.R_nW == 0) {
  5445   002680  B4C7               	btfsc	199,2,c	;volatile
  5446   002682  EF45  F013         	goto	i2u114_41
  5447   002686  EF47  F013         	goto	i2u114_40
  5448   00268A                     i2u114_41:
  5449   00268A  EF51  F013         	goto	i2l1689
  5450   00268E                     i2u114_40:
  5451   00268E                     
  5452                           ;application.c: 47:         if (SSPSTATbits.BF == 1) {
  5453   00268E  A0C7               	btfss	199,0,c	;volatile
  5454   002690  EF4C  F013         	goto	i2u115_41
  5455   002694  EF4E  F013         	goto	i2u115_40
  5456   002698                     i2u115_41:
  5457   002698  EF51  F013         	goto	i2l1689
  5458   00269C                     i2u115_40:
  5459   00269C                     
  5460                           ;application.c: 48:             Rec_TC74_Temp_Val = SSPBUF;
  5461   00269C  CFC9 F04D          	movff	4041,_Rec_TC74_Temp_Val	;volatile
  5462                           
  5463                           ;application.c: 49:             SSPCON1bits.CKP = 1;
  5464   0026A0  88C6               	bsf	198,4,c	;volatile
  5465   0026A2                     i2l1689:
  5466   0026A2  0012               	return		;funcret
  5467   0026A4                     __end_of_I2C_DefaultInterruptHandler:
  5468                           	callstack 0
  5469                           
  5470 ;; *************** function _MSSP_I2C_BC_ISR *****************
  5471 ;; Defined at:
  5472 ;;		line 244 in file "MCAL_Layer/I2C/hal_i2c.c"
  5473 ;; Parameters:    Size  Location     Type
  5474 ;;		None
  5475 ;; Auto vars:     Size  Location     Type
  5476 ;;		None
  5477 ;; Return value:  Size  Location     Type
  5478 ;;                  1    wreg      void 
  5479 ;; Registers used:
  5480 ;;		None
  5481 ;; Tracked objects:
  5482 ;;		On entry : 0/0
  5483 ;;		On exit  : 0/0
  5484 ;;		Unchanged: 0/0
  5485 ;; Data sizes:     COMRAM   BANK0   BANK1   BANK2   BANK3   BANK4   BANK5   BANK6   BANK7   BANK8   BANK9  BANK10  BANK1
      +1  BANK12  BANK13  BANK14  BANK15
  5486 ;;      Params:         0       0       0       0       0       0       0       0       0       0       0       0       
      +0       0       0       0       0
  5487 ;;      Locals:         0       0       0       0       0       0       0       0       0       0       0       0       
      +0       0       0       0       0
  5488 ;;      Temps:          0       0       0       0       0       0       0       0       0       0       0       0       
      +0       0       0       0       0
  5489 ;;      Totals:         0       0       0       0       0       0       0       0       0       0       0       0       
      +0       0       0       0       0
  5490 ;;Total ram usage:        0 bytes
  5491 ;; Hardware stack levels used: 1
  5492 ;; This function calls:
  5493 ;;		Nothing
  5494 ;; This function is called by:
  5495 ;;		_InterruptManager
  5496 ;; This function uses a non-reentrant model
  5497 ;;
  5498                           
  5499                           	psect	text36
  5500   00270A                     __ptext36:
  5501                           	callstack 0
  5502   00270A                     _MSSP_I2C_BC_ISR:
  5503                           	callstack 23
  5504   00270A                     
  5505                           ;MCAL_Layer/I2C/hal_i2c.c: 246:     (PIR2bits.BCLIF = 0);
  5506   00270A  96A1               	bcf	161,3,c	;volatile
  5507   00270C  0012               	return		;funcret
  5508   00270E                     __end_of_MSSP_I2C_BC_ISR:
  5509                           	callstack 0
  5510                           
  5511 ;; *************** function _EUSART_TX_ISR *****************
  5512 ;; Defined at:
  5513 ;;		line 418 in file "MCAL_Layer/eusart/hal_eusart.c"
  5514 ;; Parameters:    Size  Location     Type
  5515 ;;		None
  5516 ;; Auto vars:     Size  Location     Type
  5517 ;;		None
  5518 ;; Return value:  Size  Location     Type
  5519 ;;                  1    wreg      void 
  5520 ;; Registers used:
  5521 ;;		wreg, status,2, status,0
  5522 ;; Tracked objects:
  5523 ;;		On entry : 0/0
  5524 ;;		On exit  : 0/0
  5525 ;;		Unchanged: 0/0
  5526 ;; Data sizes:     COMRAM   BANK0   BANK1   BANK2   BANK3   BANK4   BANK5   BANK6   BANK7   BANK8   BANK9  BANK10  BANK1
      +1  BANK12  BANK13  BANK14  BANK15
  5527 ;;      Params:         0       0       0       0       0       0       0       0       0       0       0       0       
      +0       0       0       0       0
  5528 ;;      Locals:         0       0       0       0       0       0       0       0       0       0       0       0       
      +0       0       0       0       0
  5529 ;;      Temps:          0       0       0       0       0       0       0       0       0       0       0       0       
      +0       0       0       0       0
  5530 ;;      Totals:         0       0       0       0       0       0       0       0       0       0       0       0       
      +0       0       0       0       0
  5531 ;;Total ram usage:        0 bytes
  5532 ;; Hardware stack levels used: 1
  5533 ;; This function calls:
  5534 ;;		Nothing
  5535 ;; This function is called by:
  5536 ;;		_InterruptManager
  5537 ;; This function uses a non-reentrant model
  5538 ;;
  5539                           
  5540                           	psect	text37
  5541   00270E                     __ptext37:
  5542                           	callstack 0
  5543   00270E                     _EUSART_TX_ISR:
  5544                           	callstack 23
  5545   00270E                     
  5546                           ;MCAL_Layer/eusart/hal_eusart.c: 423:     (PIE1bits.TXIE= 0);
  5547   00270E  989D               	bcf	157,4,c	;volatile
  5548   002710  0012               	return		;funcret
  5549   002712                     __end_of_EUSART_TX_ISR:
  5550                           	callstack 0
  5551                           
  5552 ;; *************** function _EUSART_RX_ISR *****************
  5553 ;; Defined at:
  5554 ;;		line 426 in file "MCAL_Layer/eusart/hal_eusart.c"
  5555 ;; Parameters:    Size  Location     Type
  5556 ;;		None
  5557 ;; Auto vars:     Size  Location     Type
  5558 ;;		None
  5559 ;; Return value:  Size  Location     Type
  5560 ;;                  1    wreg      void 
  5561 ;; Registers used:
  5562 ;;		wreg, status,2, status,0
  5563 ;; Tracked objects:
  5564 ;;		On entry : 0/0
  5565 ;;		On exit  : 0/0
  5566 ;;		Unchanged: 0/0
  5567 ;; Data sizes:     COMRAM   BANK0   BANK1   BANK2   BANK3   BANK4   BANK5   BANK6   BANK7   BANK8   BANK9  BANK10  BANK1
      +1  BANK12  BANK13  BANK14  BANK15
  5568 ;;      Params:         0       0       0       0       0       0       0       0       0       0       0       0       
      +0       0       0       0       0
  5569 ;;      Locals:         0       0       0       0       0       0       0       0       0       0       0       0       
      +0       0       0       0       0
  5570 ;;      Temps:          0       0       0       0       0       0       0       0       0       0       0       0       
      +0       0       0       0       0
  5571 ;;      Totals:         0       0       0       0       0       0       0       0       0       0       0       0       
      +0       0       0       0       0
  5572 ;;Total ram usage:        0 bytes
  5573 ;; Hardware stack levels used: 1
  5574 ;; This function calls:
  5575 ;;		Nothing
  5576 ;; This function is called by:
  5577 ;;		_InterruptManager
  5578 ;; This function uses a non-reentrant model
  5579 ;;
  5580                           
  5581                           	psect	text38
  5582   002712                     __ptext38:
  5583                           	callstack 0
  5584   002712                     _EUSART_RX_ISR:
  5585                           	callstack 23
  5586   002712  0012               	return		;funcret
  5587   002714                     __end_of_EUSART_RX_ISR:
  5588                           	callstack 0
  5589                           
  5590                           	psect	rparam
  5591   000000                     
  5592                           	psect	temp
  5593   00005C                     btemp:
  5594                           	callstack 0
  5595   00005C                     	ds	1
  5596   000000                     int$flags	set	btemp
  5597   000000                     wtemp8	set	btemp+1
  5598   000000                     ttemp5	set	btemp+1
  5599   000000                     ttemp6	set	btemp+4
  5600   000000                     ttemp7	set	btemp+8
  5601                           
  5602                           	psect	config
  5603                           
  5604                           ; Padding undefined space
  5605   300000                     	org	3145728
  5606   300000  FF                 	db	255
  5607                           
  5608                           ;Config register CONFIG1H @ 0x300001
  5609                           ;	Oscillator Selection bits
  5610                           ;	FOSC = HS, HS oscillator
  5611                           ;	Fail-Safe Clock Monitor Enable bit
  5612                           ;	FCMEN = OFF, Fail-Safe Clock Monitor disabled
  5613                           ;	Internal/External Oscillator Switchover bit
  5614                           ;	IESO = OFF, Oscillator Switchover mode disabled
  5615   300001                     	org	3145729
  5616   300001  02                 	db	2
  5617                           
  5618                           ;Config register CONFIG2L @ 0x300002
  5619                           ;	Power-up Timer Enable bit
  5620                           ;	PWRTEN = OFF, PWRT disabled
  5621                           ;	Brown-out Reset Enable bits
  5622                           ;	BOREN = OFF, Brown-out Reset disabled in hardware and software
  5623                           ;	Brown Out Reset Voltage bits
  5624                           ;	BORV = 18, VBOR set to 1.8 V nominal
  5625   300002                     	org	3145730
  5626   300002  19                 	db	25
  5627                           
  5628                           ;Config register CONFIG2H @ 0x300003
  5629                           ;	Watchdog Timer Enable bit
  5630                           ;	WDTEN = ON, WDT is always enabled. SWDTEN bit has no effect
  5631                           ;	Watchdog Timer Postscale Select bits
  5632                           ;	WDTPS = 32768, 1:32768
  5633   300003                     	org	3145731
  5634   300003  1F                 	db	31
  5635                           
  5636                           ; Padding undefined space
  5637   300004                     	org	3145732
  5638   300004  FF                 	db	255
  5639                           
  5640                           ;Config register CONFIG3H @ 0x300005
  5641                           ;	CCP2 MUX bit
  5642                           ;	CCP2MX = PORTC, CCP2 input/output is multiplexed with RC1
  5643                           ;	PORTB A/D Enable bit
  5644                           ;	PBADEN = OFF, PORTB<4:0> pins are configured as digital I/O on Reset
  5645                           ;	Low-Power Timer1 Oscillator Enable bit
  5646                           ;	LPT1OSC = OFF, Timer1 configured for higher power operation
  5647                           ;	HFINTOSC Fast Start-up
  5648                           ;	HFOFST = OFF, The system clock is held off until the HFINTOSC is stable.
  5649                           ;	MCLR Pin Enable bit
  5650                           ;	MCLRE = ON, MCLR pin enabled; RE3 input pin disabled
  5651   300005                     	org	3145733
  5652   300005  81                 	db	129
  5653                           
  5654                           ;Config register CONFIG4L @ 0x300006
  5655                           ;	Stack Full/Underflow Reset Enable bit
  5656                           ;	STVREN = ON, Stack full/underflow will cause Reset
  5657                           ;	Single-Supply ICSP Enable bit
  5658                           ;	LVP = OFF, Single-Supply ICSP disabled
  5659                           ;	Extended Instruction Set Enable bit
  5660                           ;	XINST = OFF, Instruction set extension and Indexed Addressing mode disabled (Legacy mo
      +                          de)
  5661                           ;	Background Debugger Enable bit
  5662                           ;	DEBUG = 0x1, unprogrammed default
  5663   300006                     	org	3145734
  5664   300006  81                 	db	129
  5665                           
  5666                           ; Padding undefined space
  5667   300007                     	org	3145735
  5668   300007  FF                 	db	255
  5669                           
  5670                           ;Config register CONFIG5L @ 0x300008
  5671                           ;	Code Protection Block 0
  5672                           ;	CP0 = OFF, Block 0 (000800-003FFFh) not code-protected
  5673                           ;	Code Protection Block 1
  5674                           ;	CP1 = OFF, Block 1 (004000-007FFFh) not code-protected
  5675                           ;	Code Protection Block 2
  5676                           ;	CP2 = OFF, Block 2 (008000-00BFFFh) not code-protected
  5677                           ;	Code Protection Block 3
  5678                           ;	CP3 = OFF, Block 3 (00C000-00FFFFh) not code-protected
  5679   300008                     	org	3145736
  5680   300008  0F                 	db	15
  5681                           
  5682                           ;Config register CONFIG5H @ 0x300009
  5683                           ;	Boot Block Code Protection bit
  5684                           ;	CPB = OFF, Boot block (000000-0007FFh) not code-protected
  5685                           ;	Data EEPROM Code Protection bit
  5686                           ;	CPD = OFF, Data EEPROM not code-protected
  5687   300009                     	org	3145737
  5688   300009  C0                 	db	192
  5689                           
  5690                           ;Config register CONFIG6L @ 0x30000A
  5691                           ;	Write Protection Block 0
  5692                           ;	WRT0 = OFF, Block 0 (000800-003FFFh) not write-protected
  5693                           ;	Write Protection Block 1
  5694                           ;	WRT1 = OFF, Block 1 (004000-007FFFh) not write-protected
  5695                           ;	Write Protection Block 2
  5696                           ;	WRT2 = OFF, Block 2 (008000-00BFFFh) not write-protected
  5697                           ;	Write Protection Block 3
  5698                           ;	WRT3 = OFF, Block 3 (00C000h-00FFFFh) not write-protected
  5699   30000A                     	org	3145738
  5700   30000A  0F                 	db	15
  5701                           
  5702                           ;Config register CONFIG6H @ 0x30000B
  5703                           ;	Configuration Register Write Protection bit
  5704                           ;	WRTC = OFF, Configuration registers (300000-3000FFh) not write-protected
  5705                           ;	Boot Block Write Protection bit
  5706                           ;	WRTB = OFF, Boot Block (000000-0007FFh) not write-protected
  5707                           ;	Data EEPROM Write Protection bit
  5708                           ;	WRTD = OFF, Data EEPROM not write-protected
  5709   30000B                     	org	3145739
  5710   30000B  E0                 	db	224
  5711                           
  5712                           ;Config register CONFIG7L @ 0x30000C
  5713                           ;	Table Read Protection Block 0
  5714                           ;	EBTR0 = OFF, Block 0 (000800-003FFFh) not protected from table reads executed in other
      +                           blocks
  5715                           ;	Table Read Protection Block 1
  5716                           ;	EBTR1 = OFF, Block 1 (004000-007FFFh) not protected from table reads executed in other
      +                           blocks
  5717                           ;	Table Read Protection Block 2
  5718                           ;	EBTR2 = OFF, Block 2 (008000-00BFFFh) not protected from table reads executed in other
      +                           blocks
  5719                           ;	Table Read Protection Block 3
  5720                           ;	EBTR3 = OFF, Block 3 (00C000-00FFFFh) not protected from table reads executed in other
      +                           blocks
  5721   30000C                     	org	3145740
  5722   30000C  0F                 	db	15
  5723                           
  5724                           ;Config register CONFIG7H @ 0x30000D
  5725                           ;	Boot Block Table Read Protection bit
  5726                           ;	EBTRB = OFF, Boot Block (000000-0007FFh) not protected from table reads executed in ot
      +                          her blocks
  5727   30000D                     	org	3145741
  5728   30000D  40                 	db	64
  5729                           tosu	equ	0xFFF
  5730                           tosh	equ	0xFFE
  5731                           tosl	equ	0xFFD
  5732                           stkptr	equ	0xFFC
  5733                           pclatu	equ	0xFFB
  5734                           pclath	equ	0xFFA
  5735                           pcl	equ	0xFF9
  5736                           tblptru	equ	0xFF8
  5737                           tblptrh	equ	0xFF7
  5738                           tblptrl	equ	0xFF6
  5739                           tablat	equ	0xFF5
  5740                           prodh	equ	0xFF4
  5741                           prodl	equ	0xFF3
  5742                           indf0	equ	0xFEF
  5743                           postinc0	equ	0xFEE
  5744                           postdec0	equ	0xFED
  5745                           preinc0	equ	0xFEC
  5746                           plusw0	equ	0xFEB
  5747                           fsr0h	equ	0xFEA
  5748                           fsr0l	equ	0xFE9
  5749                           wreg	equ	0xFE8
  5750                           indf1	equ	0xFE7
  5751                           postinc1	equ	0xFE6
  5752                           postdec1	equ	0xFE5
  5753                           preinc1	equ	0xFE4
  5754                           plusw1	equ	0xFE3
  5755                           fsr1h	equ	0xFE2
  5756                           fsr1l	equ	0xFE1
  5757                           bsr	equ	0xFE0
  5758                           indf2	equ	0xFDF
  5759                           postinc2	equ	0xFDE
  5760                           postdec2	equ	0xFDD
  5761                           preinc2	equ	0xFDC
  5762                           plusw2	equ	0xFDB
  5763                           fsr2h	equ	0xFDA
  5764                           fsr2l	equ	0xFD9
  5765                           status	equ	0xFD8

Data Sizes:
    Strings     37
    Constant    12
    Data        58
    BSS         91
    Persistent  0
    Stack       0

Auto Spaces:
    Space          Size  Autos    Used
    COMRAM           94     71      91
    BANK0           160      2     131
    BANK1           256      0       0
    BANK2           256      0       0
    BANK3           256      0       0
    BANK4           256      0       0
    BANK5           256      0       0
    BANK6           256      0       0
    BANK7           256      0       0
    BANK8           256      0       0
    BANK9           256      0       0
    BANK10          256      0       0
    BANK11          256      0       0
    BANK12          256      0       0
    BANK13          256      0       0
    BANK14          256      0       0
    BANK15           96      0       0

Pointer List with Targets:

    ADC_GetConversionResult@adc$InterruptHandler	PTR FTN()void  size(2) Largest target is 0

    ADC_init@adc$InterruptHandler	PTR FTN()void  size(2) Largest target is 0

    ADC_Interrupt_Handler	PTR FTN()void  size(2) Largest target is 1
		 -> NULL(), 

    CCP1_Interrupt_Handler	PTR FTN()void  size(2) Largest target is 1
		 -> NULL(), 

    CCP2_Interrupt_Handler	PTR FTN()void  size(2) Largest target is 1
		 -> NULL(), 

    CCP_capture_compare_mode_timer_select@ccp$CCP1_InterruptHandler	PTR FTN()void  size(2) Largest target is 0

    CCP_capture_compare_mode_timer_select@ccp$CCP2_InterruptHandler	PTR FTN()void  size(2) Largest target is 0

    CCP_capture_set_mode_variant@ccp$CCP1_InterruptHandler	PTR FTN()void  size(2) Largest target is 0

    CCP_capture_set_mode_variant@ccp$CCP2_InterruptHandler	PTR FTN()void  size(2) Largest target is 0

    CCP_CaptureDataRead@ccp$CCP1_InterruptHandler	PTR FTN()void  size(2) Largest target is 0

    CCP_CaptureDataRead@ccp$CCP2_InterruptHandler	PTR FTN()void  size(2) Largest target is 0

    CCP_compare_set_mode_variant@ccp$CCP1_InterruptHandler	PTR FTN()void  size(2) Largest target is 0

    CCP_compare_set_mode_variant@ccp$CCP2_InterruptHandler	PTR FTN()void  size(2) Largest target is 0

    CCP_CompareSetValue@ccp$CCP1_InterruptHandler	PTR FTN()void  size(2) Largest target is 0

    CCP_CompareSetValue@ccp$CCP2_InterruptHandler	PTR FTN()void  size(2) Largest target is 0

    CCP_DeInit@ccp$CCP1_InterruptHandler	PTR FTN()void  size(2) Largest target is 0

    CCP_DeInit@ccp$CCP2_InterruptHandler	PTR FTN()void  size(2) Largest target is 0

    CCP_Init@ccp$CCP1_InterruptHandler	PTR FTN()void  size(2) Largest target is 0

    CCP_Init@ccp$CCP2_InterruptHandler	PTR FTN()void  size(2) Largest target is 0

    CCP_interrupt_config@ccp$CCP1_InterruptHandler	PTR FTN()void  size(2) Largest target is 0

    CCP_interrupt_config@ccp$CCP2_InterruptHandler	PTR FTN()void  size(2) Largest target is 0

    EUSART_ASYNC_RX_INIT@usart$EUSART_FRAMING_INTERRUPT_HANDLER	PTR FTN()void  size(2) Largest target is 0

    EUSART_ASYNC_RX_INIT@usart$EUSART_OVERRUN_INTERRUPT_HANDLER	PTR FTN()void  size(2) Largest target is 0

    EUSART_ASYNC_RX_INIT@usart$EUSART_RX_INTERRUPT_HANDLER	PTR FTN()void  size(2) Largest target is 0

    EUSART_ASYNC_RX_INIT@usart$EUSART_TX_INTERRUPT_HANDLER	PTR FTN()void  size(2) Largest target is 0

    EUSART_ASYNC_TX_INIT@usart$EUSART_FRAMING_INTERRUPT_HANDLER	PTR FTN()void  size(2) Largest target is 0

    EUSART_ASYNC_TX_INIT@usart$EUSART_OVERRUN_INTERRUPT_HANDLER	PTR FTN()void  size(2) Largest target is 0

    EUSART_ASYNC_TX_INIT@usart$EUSART_RX_INTERRUPT_HANDLER	PTR FTN()void  size(2) Largest target is 0

    EUSART_ASYNC_TX_INIT@usart$EUSART_TX_INTERRUPT_HANDLER	PTR FTN()void  size(2) Largest target is 0

    EUSART_Baud_Rate_Calculation@usart$EUSART_FRAMING_INTERRUPT_HANDLER	PTR FTN()void  size(2) Largest target is 0

    EUSART_Baud_Rate_Calculation@usart$EUSART_OVERRUN_INTERRUPT_HANDLER	PTR FTN()void  size(2) Largest target is 0

    EUSART_Baud_Rate_Calculation@usart$EUSART_RX_INTERRUPT_HANDLER	PTR FTN()void  size(2) Largest target is 0

    EUSART_Baud_Rate_Calculation@usart$EUSART_TX_INTERRUPT_HANDLER	PTR FTN()void  size(2) Largest target is 0

    EUSART_FramingError_Handler	PTR FTN()void  size(2) Largest target is 1
		 -> NULL(), 

    EUSART_OverrunError_Handler	PTR FTN()void  size(2) Largest target is 1
		 -> NULL(), 

    EUSART_RX_Interrupt_Handler	PTR FTN()void  size(2) Largest target is 1
		 -> NULL(), 

    EUSART_TX_Interrupt_Handler	PTR FTN()void  size(2) Largest target is 1
		 -> NULL(), 

    f$.$buffer	PTR unsigned char  size(2) Largest target is 0

    f$.$source	PTR const unsigned char  size(2) Largest target is 0

    gpio_pin_direction_initializion@pin_config	PTR const struct . size(1) Largest target is 6
		 -> lcd_1(BANK0[6]), lcd_1$lcd_data(BANK0[4]), led_initialization@pin_obj(COMRAM[1]), motor1(COMRAM[2]), 
		 -> motor1$motor(COMRAM[2]), motor2(COMRAM[2]), motor2$motor(COMRAM[2]), relay_initialization@pin_obj(COMRAM[1]), 

    gpio_pin_initialization@pin_config	PTR const struct . size(1) Largest target is 6
		 -> lcd_1(BANK0[6]), lcd_1$lcd_data(BANK0[4]), led_initialization@pin_obj(COMRAM[1]), motor1(COMRAM[2]), 
		 -> motor1$motor(COMRAM[2]), motor2(COMRAM[2]), motor2$motor(COMRAM[2]), relay_initialization@pin_obj(COMRAM[1]), 

    gpio_pin_write_logic@pin_config	PTR const struct . size(1) Largest target is 6
		 -> lcd_1(BANK0[6]), lcd_1$lcd_data(BANK0[4]), led_initialization@pin_obj(COMRAM[1]), led_turn_off@pin_obj(COMRAM[1]), 
		 -> led_turn_on@pin_obj(COMRAM[1]), motor1(COMRAM[2]), motor1$motor(COMRAM[2]), motor2(COMRAM[2]), 
		 -> motor2$motor(COMRAM[2]), relay_initialization@pin_obj(COMRAM[1]), relay_turn_off@pin_obj(COMRAM[1]), relay_turn_on@pin_obj(COMRAM[1]), 

    I2C_Default_Interrupt_Handler	PTR FTN()void  size(2) Largest target is 1
		 -> I2C_DefaultInterruptHandler(), NULL(), 

    I2C_MASTER_MODE_CLOCK_CONFIG@i2c_obj	PTR const struct . size(1) Largest target is 16
		 -> mssp_i2c2(BANK0[16]), 

    I2C_MASTER_MODE_CLOCK_CONFIG@i2c_obj$I2C_DefaultInterruptHandler	PTR FTN()void  size(2) Largest target is 1
		 -> I2C_DefaultInterruptHandler(), 

    I2C_MASTER_MODE_CLOCK_CONFIG@i2c_obj$I2C_Report_Recieve_Overflow	PTR FTN()void  size(2) Largest target is 0

    I2C_MASTER_MODE_CLOCK_CONFIG@i2c_obj$I2C_Report_Write_Collision	PTR FTN()void  size(2) Largest target is 1
		 -> NULL(), 

    I2C_Report_Recieve_Overflow_Interrupt_Handler	PTR FTN()void  size(2) Largest target is 2
		 -> mssp_i2c2$I2C_Report_Recieve_Overflow(BANK0[2]), NULL(), 

    I2C_Report_Write_Collision_Interrupt_Handler	PTR FTN()void  size(2) Largest target is 1
		 -> NULL(), 

    I2C_Slave_Mode_Config@i2c_obj	PTR const struct . size(1) Largest target is 16
		 -> mssp_i2c2(BANK0[16]), 

    I2C_Slave_Mode_Config@i2c_obj$I2C_DefaultInterruptHandler	PTR FTN()void  size(2) Largest target is 1
		 -> I2C_DefaultInterruptHandler(), 

    I2C_Slave_Mode_Config@i2c_obj$I2C_Report_Recieve_Overflow	PTR FTN()void  size(2) Largest target is 0

    I2C_Slave_Mode_Config@i2c_obj$I2C_Report_Write_Collision	PTR FTN()void  size(2) Largest target is 1
		 -> NULL(), 

    INT0_InterruptHandler	PTR FTN()void  size(2) Largest target is 1
		 -> NULL(), 

    INT1_InterruptHandler	PTR FTN()void  size(2) Largest target is 1
		 -> NULL(), 

    INT2_InterruptHandler	PTR FTN()void  size(2) Largest target is 1
		 -> NULL(), 

    interrupt_intx_clear_flag@int_obj$EXT_InterruptHandler	PTR FTN()void  size(2) Largest target is 0

    interrupt_intx_disable@int_obj$EXT_InterruptHandler	PTR FTN()void  size(2) Largest target is 0

    interrupt_intx_edge_init@int_obj$EXT_InterruptHandler	PTR FTN()void  size(2) Largest target is 0

    interrupt_intx_enable@int_obj$EXT_InterruptHandler	PTR FTN()void  size(2) Largest target is 0

    interrupt_intx_pin_init@int_obj$EXT_InterruptHandler	PTR FTN()void  size(2) Largest target is 0

    interrupt_INTx_SetInterruptHandler@int_obj$EXT_InterruptHandler	PTR FTN()void  size(2) Largest target is 0

    interrupt_RBx_enable@int_obj$EXT_InterruptHandler_high	PTR FTN()void  size(2) Largest target is 0

    interrupt_RBx_enable@int_obj$EXT_InterruptHandler_low	PTR FTN()void  size(2) Largest target is 0

    interrupt_RBx_pin_init@int_obj$EXT_InterruptHandler_high	PTR FTN()void  size(2) Largest target is 0

    interrupt_RBx_pin_init@int_obj$EXT_InterruptHandler_low	PTR FTN()void  size(2) Largest target is 0

    interrupt_RBx_SetInterruptHandler@int_obj$EXT_InterruptHandler_high	PTR FTN()void  size(2) Largest target is 0

    interrupt_RBx_SetInterruptHandler@int_obj$EXT_InterruptHandler_low	PTR FTN()void  size(2) Largest target is 0

    lat_register	PTR volatile unsigned char [5] size(2) Largest target is 1
		 -> LATA(BITBIGSFRlllhll[1]), LATB(BITBIGSFRlllhlh[1]), LATC(BITBIGSFRlllhlh[1]), LATD(BITBIGSFRlllhlh[1]), 
		 -> LATE(BITBIGSFRlllhlh[1]), 

    lcd_4bit_initialize@lcd	PTR const struct . size(1) Largest target is 6
		 -> lcd_1(BANK0[6]), 

    lcd_4bit_send_char_data@lcd	PTR const struct . size(1) Largest target is 6
		 -> lcd_1(BANK0[6]), 

    lcd_4bit_send_char_string_pos@lcd	PTR const struct . size(1) Largest target is 6
		 -> lcd_1(BANK0[6]), 

    lcd_4bit_send_char_string_pos@str	PTR unsigned char  size(1) Largest target is 15
		 -> STR_4(CODE[15]), STR_5(CODE[15]), STR_6(CODE[15]), 

    lcd_4bit_send_command@lcd	PTR const struct . size(1) Largest target is 6
		 -> lcd_1(BANK0[6]), 

    lcd_4bit_send_enable_signal@lcd	PTR const struct . size(1) Largest target is 6
		 -> lcd_1(BANK0[6]), 

    lcd_4bit_set_cusrsor@lcd	PTR const struct . size(1) Largest target is 6
		 -> lcd_1(BANK0[6]), 

    lcd_send_4bit@lcd	PTR const struct . size(1) Largest target is 6
		 -> lcd_1(BANK0[6]), 

    motor_initialization@motor	PTR const struct . size(1) Largest target is 2
		 -> motor1(COMRAM[2]), motor2(COMRAM[2]), 

    motor_move_backward@motor	PTR const struct . size(1) Largest target is 2
		 -> motor1(COMRAM[2]), motor2(COMRAM[2]), 

    motor_move_forward@motor	PTR const struct . size(1) Largest target is 2
		 -> motor1(COMRAM[2]), motor2(COMRAM[2]), 

    motor_stop@motor	PTR const struct . size(1) Largest target is 2
		 -> motor1(COMRAM[2]), motor2(COMRAM[2]), 

    mssp_i2c2$I2C_DefaultInterruptHandler	PTR FTN()void  size(2) Largest target is 1
		 -> I2C_DefaultInterruptHandler(), 

    mssp_i2c2$I2C_Report_Recieve_Overflow	PTR FTN()void  size(2) Largest target is 0

    mssp_i2c2$I2C_Report_Write_Collision	PTR FTN()void  size(2) Largest target is 1
		 -> NULL(), 

    MSSP_I2C_Init@i2c_obj	PTR const struct . size(1) Largest target is 16
		 -> mssp_i2c2(BANK0[16]), 

    MSSP_I2C_Init@i2c_obj$I2C_DefaultInterruptHandler	PTR FTN()void  size(2) Largest target is 1
		 -> I2C_DefaultInterruptHandler(), 

    MSSP_I2C_Init@i2c_obj$I2C_Report_Recieve_Overflow	PTR FTN()void  size(2) Largest target is 0

    MSSP_I2C_Init@i2c_obj$I2C_Report_Write_Collision	PTR FTN()void  size(2) Largest target is 1
		 -> NULL(), 

    MSSP_I2C_Interrupt_config@i2c_obj	PTR const struct . size(1) Largest target is 16
		 -> mssp_i2c2(BANK0[16]), 

    MSSP_I2C_Interrupt_config@i2c_obj$I2C_DefaultInterruptHandler	PTR FTN()void  size(2) Largest target is 1
		 -> I2C_DefaultInterruptHandler(), 

    MSSP_I2C_Interrupt_config@i2c_obj$I2C_Report_Recieve_Overflow	PTR FTN()void  size(2) Largest target is 0

    MSSP_I2C_Interrupt_config@i2c_obj$I2C_Report_Write_Collision	PTR FTN()void  size(2) Largest target is 1
		 -> NULL(), 

    port_register	PTR volatile unsigned char [5] size(2) Largest target is 1
		 -> PORTA(BITBIGSFRlllhll[1]), PORTB(BITBIGSFRlllhll[1]), PORTC(BITBIGSFRlllhll[1]), PORTD(BITBIGSFRlllhll[1]), 
		 -> PORTE(BITBIGSFRlllhll[1]), 

    RB4_InterruptHandlerHigh	PTR FTN()void  size(2) Largest target is 1
		 -> NULL(), 

    RB4_InterruptHandlerLow	PTR FTN()void  size(2) Largest target is 1
		 -> NULL(), 

    RB5_InterruptHandlerHigh	PTR FTN()void  size(2) Largest target is 1
		 -> NULL(), 

    RB5_InterruptHandlerLow	PTR FTN()void  size(2) Largest target is 1
		 -> NULL(), 

    RB6_InterruptHandlerHigh	PTR FTN()void  size(2) Largest target is 1
		 -> NULL(), 

    RB6_InterruptHandlerLow	PTR FTN()void  size(2) Largest target is 1
		 -> NULL(), 

    RB7_InterruptHandlerHigh	PTR FTN()void  size(2) Largest target is 1
		 -> NULL(), 

    RB7_InterruptHandlerLow	PTR FTN()void  size(2) Largest target is 1
		 -> NULL(), 

    relay_initialization@relay	PTR const struct . size(1) Largest target is 1
		 -> relay1(COMRAM[1]), 

    relay_turn_off@relay	PTR const struct . size(1) Largest target is 1
		 -> relay1(COMRAM[1]), 

    relay_turn_on@relay	PTR const struct . size(1) Largest target is 1
		 -> relay1(COMRAM[1]), 

    S1177$CCP1_InterruptHandler	PTR FTN()void  size(2) Largest target is 0

    S1177$CCP2_InterruptHandler	PTR FTN()void  size(2) Largest target is 0

    S1789$EUSART_FRAMING_INTERRUPT_HANDLER	PTR FTN()void  size(2) Largest target is 0

    S1789$EUSART_OVERRUN_INTERRUPT_HANDLER	PTR FTN()void  size(2) Largest target is 0

    S1789$EUSART_RX_INTERRUPT_HANDLER	PTR FTN()void  size(2) Largest target is 0

    S1789$EUSART_TX_INTERRUPT_HANDLER	PTR FTN()void  size(2) Largest target is 0

    S2307$I2C_DefaultInterruptHandler	PTR FTN()void  size(2) Largest target is 1
		 -> I2C_DefaultInterruptHandler(), 

    S2307$I2C_Report_Recieve_Overflow	PTR FTN()void  size(2) Largest target is 0

    S2307$I2C_Report_Write_Collision	PTR FTN()void  size(2) Largest target is 1
		 -> NULL(), 

    S2786$EXT_InterruptHandler	PTR FTN()void  size(2) Largest target is 0

    S2829$EXT_InterruptHandler_high	PTR FTN()void  size(2) Largest target is 0

    S2829$EXT_InterruptHandler_low	PTR FTN()void  size(2) Largest target is 0

    S3325$timer0_InterruptHandler	PTR FTN()void  size(2) Largest target is 0

    S3483$timer1_InterruptHandler	PTR FTN()void  size(2) Largest target is 0

    S3684$timer2_InterruptHandler	PTR FTN()void  size(2) Largest target is 0

    S3818$timer3_InterruptHandler	PTR FTN()void  size(2) Largest target is 0

    S4621$buffer	PTR unsigned char  size(2) Largest target is 0

    S4621$source	PTR const unsigned char  size(2) Largest target is 0

    S726$InterruptHandler	PTR FTN()void  size(2) Largest target is 0

    select_result_format@adc$InterruptHandler	PTR FTN()void  size(2) Largest target is 0

    select_voltage_reference@adc$InterruptHandler	PTR FTN()void  size(2) Largest target is 0

    sp__memset	PTR void  size(2) Largest target is 0

    timer0_init@timer$timer0_InterruptHandler	PTR FTN()void  size(2) Largest target is 0

    Timer0_InterruptHandler	PTR FTN()void  size(2) Largest target is 1
		 -> NULL(), 

    Timer0_mode_config@timer$timer0_InterruptHandler	PTR FTN()void  size(2) Largest target is 0

    Timer0_prescaler_config@timer$timer0_InterruptHandler	PTR FTN()void  size(2) Largest target is 0

    Timer0_reg_config@timer$timer0_InterruptHandler	PTR FTN()void  size(2) Largest target is 0

    timer1_init@timer$timer1_InterruptHandler	PTR FTN()void  size(2) Largest target is 0

    Timer1_InterruptHandler	PTR FTN()void  size(2) Largest target is 1
		 -> NULL(), 

    Timer1_mode_config@timer$timer1_InterruptHandler	PTR FTN()void  size(2) Largest target is 0

    Timer1_reg_config@timer$timer1_InterruptHandler	PTR FTN()void  size(2) Largest target is 0

    timer2_init@timer$timer2_InterruptHandler	PTR FTN()void  size(2) Largest target is 0

    Timer2_InterruptHandler	PTR FTN()void  size(2) Largest target is 1
		 -> NULL(), 

    Timer3_Init@timer$timer3_InterruptHandler	PTR FTN()void  size(2) Largest target is 0

    Timer3_InterruptHandler	PTR FTN()void  size(2) Largest target is 1
		 -> NULL(), 

    Timer3_mode_config@timer$timer3_InterruptHandler	PTR FTN()void  size(2) Largest target is 0

    Timer3_reg_config@timer$timer3_InterruptHandler	PTR FTN()void  size(2) Largest target is 0

    tris_register	PTR volatile unsigned char [5] size(2) Largest target is 1
		 -> TRISA(BITBIGSFRlllhll[1]), TRISB(ABS[1]), TRISC(ABS[1]), TRISD(ABS[1]), 
		 -> TRISE(ABS[1]), 

    vfprintf$0	PTR struct _IO_FILE size(1) Largest target is 12
		 -> sprintf@f(COMRAM[12]), 

    vfprintf$1	PTR const unsigned char  size(1) Largest target is 4
		 -> STR_1(CODE[3]), STR_2(CODE[3]), STR_3(CODE[4]), 

    vfprintf$2	PTR PTR void  size(1) Largest target is 1
		 -> sprintf@ap(COMRAM[1]), 


Critical Paths under _main in COMRAM

    _relay_turn_on->_gpio_pin_write_logic
    _relay_turn_off->_gpio_pin_write_logic
    _motor_stop->_gpio_pin_write_logic
    _motor_move_forward->_gpio_pin_write_logic
    _motor_move_backward->_gpio_pin_write_logic
    _lcd_4bit_send_char_string_pos->_lcd_4bit_set_cusrsor
    _lcd_4bit_set_cusrsor->_lcd_4bit_send_command
    _lcd_4bit_send_char_data->_lcd_send_4bit
    _application_initialize->_MSSP_I2C_Init
    _ecu_layer_initialize->_lcd_4bit_initialize
    _relay_initialization->_gpio_pin_initialization
    _motor_initialization->_gpio_pin_initialization
    _lcd_4bit_initialize->_lcd_4bit_send_command
    _lcd_4bit_send_command->_lcd_send_4bit
    _lcd_send_4bit->_gpio_pin_write_logic
    _lcd_4bit_send_enable_signal->_gpio_pin_write_logic
    _gpio_pin_initialization->_gpio_pin_write_logic
    _MSSP_I2C_Init->_I2C_MASTER_MODE_CLOCK_CONFIG
    _I2C_MASTER_MODE_CLOCK_CONFIG->___fltol
    ___fltol->___fladd
    ___fldiv->___xxtofl
    ___fladd->___fldiv

Critical Paths under _InterruptManager in COMRAM

    None.

Critical Paths under _main in BANK0

    None.

Critical Paths under _InterruptManager in BANK0

    None.

Critical Paths under _main in BANK1

    None.

Critical Paths under _InterruptManager in BANK1

    None.

Critical Paths under _main in BANK2

    None.

Critical Paths under _InterruptManager in BANK2

    None.

Critical Paths under _main in BANK3

    None.

Critical Paths under _InterruptManager in BANK3

    None.

Critical Paths under _main in BANK4

    None.

Critical Paths under _InterruptManager in BANK4

    None.

Critical Paths under _main in BANK5

    None.

Critical Paths under _InterruptManager in BANK5

    None.

Critical Paths under _main in BANK6

    None.

Critical Paths under _InterruptManager in BANK6

    None.

Critical Paths under _main in BANK7

    None.

Critical Paths under _InterruptManager in BANK7

    None.

Critical Paths under _main in BANK8

    None.

Critical Paths under _InterruptManager in BANK8

    None.

Critical Paths under _main in BANK9

    None.

Critical Paths under _InterruptManager in BANK9

    None.

Critical Paths under _main in BANK10

    None.

Critical Paths under _InterruptManager in BANK10

    None.

Critical Paths under _main in BANK11

    None.

Critical Paths under _InterruptManager in BANK11

    None.

Critical Paths under _main in BANK12

    None.

Critical Paths under _InterruptManager in BANK12

    None.

Critical Paths under _main in BANK13

    None.

Critical Paths under _InterruptManager in BANK13

    None.

Critical Paths under _main in BANK14

    None.

Critical Paths under _InterruptManager in BANK14

    None.

Critical Paths under _main in BANK15

    None.

Critical Paths under _InterruptManager in BANK15

    None.

Call Graph Tables:

 ---------------------------------------------------------------------------------
 (Depth) Function   	        Calls       Base Space   Used Autos Params    Refs
 ---------------------------------------------------------------------------------
 (0) _main                                                 2     2      0  109605
                                              0 BANK0      2     2      0
             _application_initialize
      _lcd_4bit_send_char_string_pos
                _motor_move_backward
                 _motor_move_forward
                         _motor_stop
                     _relay_turn_off
                      _relay_turn_on
 ---------------------------------------------------------------------------------
 (1) _relay_turn_on                                        4     3      1    5095
                                             10 COMRAM     3     2      1
               _gpio_pin_write_logic
 ---------------------------------------------------------------------------------
 (1) _relay_turn_off                                       4     3      1    5171
                                             10 COMRAM     3     2      1
               _gpio_pin_write_logic
 ---------------------------------------------------------------------------------
 (1) _motor_stop                                           2     1      1    5117
                                             10 COMRAM     1     0      1
               _gpio_pin_write_logic
 ---------------------------------------------------------------------------------
 (1) _motor_move_forward                                   2     1      1    5117
                                             10 COMRAM     1     0      1
               _gpio_pin_write_logic
 ---------------------------------------------------------------------------------
 (1) _motor_move_backward                                  2     1      1    5117
                                             10 COMRAM     1     0      1
               _gpio_pin_write_logic
 ---------------------------------------------------------------------------------
 (1) _lcd_4bit_send_char_string_pos                        5     1      4   36363
                                             20 COMRAM     4     0      4
            _lcd_4bit_send_char_data
               _lcd_4bit_set_cusrsor
 ---------------------------------------------------------------------------------
 (2) _lcd_4bit_set_cusrsor                                 4     1      3   18548
                                             16 COMRAM     4     1      3
              _lcd_4bit_send_command
 ---------------------------------------------------------------------------------
 (2) _lcd_4bit_send_char_data                              3     1      2   16716
                                             13 COMRAM     3     1      2
               _gpio_pin_write_logic
        _lcd_4bit_send_enable_signal
                      _lcd_send_4bit
 ---------------------------------------------------------------------------------
 (1) _application_initialize                               0     0      0   47625
                      _MSSP_I2C_Init
               _ecu_layer_initialize
 ---------------------------------------------------------------------------------
 (2) _ecu_layer_initialize                                 0     0      0   39222
                _lcd_4bit_initialize
               _motor_initialization
               _relay_initialization
 ---------------------------------------------------------------------------------
 (3) _relay_initialization                                 4     3      1    7012
                                             13 COMRAM     3     2      1
            _gpio_pin_initialization
 ---------------------------------------------------------------------------------
 (3) _motor_initialization                                 2     1      1    7026
                                             13 COMRAM     1     0      1
            _gpio_pin_initialization
 ---------------------------------------------------------------------------------
 (3) _lcd_4bit_initialize                                  5     4      1   25184
                                             16 COMRAM     5     4      1
            _gpio_pin_initialization
              _lcd_4bit_send_command
 ---------------------------------------------------------------------------------
 (3) _lcd_4bit_send_command                                3     1      2   17933
                                             13 COMRAM     3     1      2
               _gpio_pin_write_logic
        _lcd_4bit_send_enable_signal
                      _lcd_send_4bit
 ---------------------------------------------------------------------------------
 (4) _lcd_send_4bit                                        3     1      2    5725
                                             10 COMRAM     3     1      2
               _gpio_pin_write_logic
 ---------------------------------------------------------------------------------
 (4) _lcd_4bit_send_enable_signal                          2     1      1    5287
                                             10 COMRAM     2     1      1
               _gpio_pin_write_logic
 ---------------------------------------------------------------------------------
 (4) _gpio_pin_initialization                              3     2      1    6800
                                             10 COMRAM     3     2      1
    _gpio_pin_direction_initializion
               _gpio_pin_write_logic
 ---------------------------------------------------------------------------------
 (2) _gpio_pin_write_logic                                 8     6      2    4891
                                              2 COMRAM     8     6      2
 ---------------------------------------------------------------------------------
 (5) _gpio_pin_direction_initializion                      7     6      1     483
                                              2 COMRAM     7     6      1
 ---------------------------------------------------------------------------------
 (2) _MSSP_I2C_Init                                        3     2      1    8403
                                             69 COMRAM     2     1      1
       _I2C_MASTER_MODE_CLOCK_CONFIG
              _I2C_Slave_Mode_Config
          _MSSP_I2C_Interrupt_config
             _MSSP_I2C_MODE_GPIO_CFG
 ---------------------------------------------------------------------------------
 (3) _MSSP_I2C_MODE_GPIO_CFG                               0     0      0       0
 ---------------------------------------------------------------------------------
 (3) _MSSP_I2C_Interrupt_config                            1     0      1     142
                                              2 COMRAM     1     0      1
 ---------------------------------------------------------------------------------
 (3) _I2C_Slave_Mode_Config                                2     1      1      98
                                              2 COMRAM     2     1      1
 ---------------------------------------------------------------------------------
 (3) _I2C_MASTER_MODE_CLOCK_CONFIG                         2     1      1    7792
                                             67 COMRAM     2     1      1
                            ___fladd
                            ___fldiv
                            ___fltol
                           ___xxtofl
 ---------------------------------------------------------------------------------
 (4) ___xxtofl                                            14    10      4     827
                                              2 COMRAM    14    10      4
 ---------------------------------------------------------------------------------
 (4) ___fltol                                             10     6      4     430
                                             57 COMRAM    10     6      4
                            ___fladd (ARG)
                            ___fldiv (ARG)
                           ___xxtofl (ARG)
 ---------------------------------------------------------------------------------
 (4) ___fldiv                                             25    17      8    3169
                                             16 COMRAM    25    17      8
                           ___xxtofl (ARG)
 ---------------------------------------------------------------------------------
 (4) ___fladd                                             16     8      8    3246
                                             41 COMRAM    16     8      8
                            ___fldiv (ARG)
                           ___xxtofl (ARG)
 ---------------------------------------------------------------------------------
 Estimated maximum stack depth 5
 ---------------------------------------------------------------------------------
 (Depth) Function   	        Calls       Base Space   Used Autos Params    Refs
 ---------------------------------------------------------------------------------
 (7) _InterruptManager                                     2     2      0       0
                                              0 COMRAM     2     2      0
                      _EUSART_RX_ISR
                      _EUSART_TX_ISR
                    _MSSP_I2C_BC_ISR
                       _MSSP_I2C_ISR
                           _TMR0_ISR
                           _TMR1_ISR
                           _TMR2_ISR
                           _TMR3_ISR
 ---------------------------------------------------------------------------------
 (8) _TMR3_ISR                                             0     0      0       0
 ---------------------------------------------------------------------------------
 (8) _TMR2_ISR                                             0     0      0       0
 ---------------------------------------------------------------------------------
 (8) _TMR1_ISR                                             0     0      0       0
 ---------------------------------------------------------------------------------
 (8) _TMR0_ISR                                             0     0      0       0
 ---------------------------------------------------------------------------------
 (8) _MSSP_I2C_ISR                                         0     0      0       0
                                NULL *
        _I2C_DefaultInterruptHandler *
 ---------------------------------------------------------------------------------
 (9) _I2C_DefaultInterruptHandler                          0     0      0       0
 ---------------------------------------------------------------------------------
 (9) NULL(Fake)                                            0     0      0       0
 ---------------------------------------------------------------------------------
 (8) _MSSP_I2C_BC_ISR                                      0     0      0       0
 ---------------------------------------------------------------------------------
 (8) _EUSART_TX_ISR                                        0     0      0       0
 ---------------------------------------------------------------------------------
 (8) _EUSART_RX_ISR                                        0     0      0       0
 ---------------------------------------------------------------------------------
 Estimated maximum stack depth 9
 ---------------------------------------------------------------------------------

 Call Graph Graphs:

 _main (ROOT)
   _application_initialize
     _MSSP_I2C_Init
       _I2C_MASTER_MODE_CLOCK_CONFIG
         ___fladd
           ___fldiv (ARG)
             ___xxtofl (ARG)
           ___xxtofl (ARG)
         ___fldiv
         ___fltol
           ___fladd (ARG)
           ___fldiv (ARG)
           ___xxtofl (ARG)
         ___xxtofl
       _I2C_Slave_Mode_Config
       _MSSP_I2C_Interrupt_config
       _MSSP_I2C_MODE_GPIO_CFG
     _ecu_layer_initialize
       _lcd_4bit_initialize
         _gpio_pin_initialization
           _gpio_pin_direction_initializion
           _gpio_pin_write_logic
         _lcd_4bit_send_command
           _gpio_pin_write_logic
           _lcd_4bit_send_enable_signal
             _gpio_pin_write_logic
           _lcd_send_4bit
             _gpio_pin_write_logic
       _motor_initialization
         _gpio_pin_initialization
       _relay_initialization
         _gpio_pin_initialization
   _lcd_4bit_send_char_string_pos
     _lcd_4bit_send_char_data
       _gpio_pin_write_logic
       _lcd_4bit_send_enable_signal
       _lcd_send_4bit
     _lcd_4bit_set_cusrsor
       _lcd_4bit_send_command
   _motor_move_backward
     _gpio_pin_write_logic
   _motor_move_forward
     _gpio_pin_write_logic
   _motor_stop
     _gpio_pin_write_logic
   _relay_turn_off
     _gpio_pin_write_logic
   _relay_turn_on
     _gpio_pin_write_logic

 _InterruptManager (ROOT)
   _EUSART_RX_ISR
   _EUSART_TX_ISR
   _MSSP_I2C_BC_ISR
   _MSSP_I2C_ISR
     NULL(Fake) *
     _I2C_DefaultInterruptHandler *
   _TMR0_ISR
   _TMR1_ISR
   _TMR2_ISR
   _TMR3_ISR

 Address spaces:
Name               Size   Autos  Total    Cost      Usage
BIGRAM             F5F      0       0      49        0.0%
EEDATA             400      0       0       0        0.0%
BITBANK14          100      0       0      33        0.0%
BANK14             100      0       0      34        0.0%
BITBANK13          100      0       0      31        0.0%
BANK13             100      0       0      32        0.0%
BITBANK12          100      0       0      29        0.0%
BANK12             100      0       0      30        0.0%
BITBANK11          100      0       0      27        0.0%
BANK11             100      0       0      28        0.0%
BITBANK10          100      0       0      25        0.0%
BANK10             100      0       0      26        0.0%
BITBANK9           100      0       0      23        0.0%
BANK9              100      0       0      24        0.0%
BITBANK8           100      0       0      21        0.0%
BANK8              100      0       0      22        0.0%
BITBANK7           100      0       0      19        0.0%
BANK7              100      0       0      20        0.0%
BITBANK6           100      0       0      17        0.0%
BANK6              100      0       0      18        0.0%
BITBANK5           100      0       0      15        0.0%
BANK5              100      0       0      16        0.0%
BITBANK4           100      0       0      13        0.0%
BANK4              100      0       0      14        0.0%
BITBANK3           100      0       0      10        0.0%
BANK3              100      0       0      11        0.0%
BITBANK2           100      0       0       8        0.0%
BANK2              100      0       0       9        0.0%
BITBANK1           100      0       0       6        0.0%
BANK1              100      0       0       7        0.0%
BITBANK0            A0      0       0       4        0.0%
BANK0               A0      2      83       5       81.9%
BITBANK15           60      0       0      35        0.0%
BANK15              60      0       0      36        0.0%
BITCOMRAM           5E      0       0       0        0.0%
COMRAM              5E     47      5B       1       96.8%
BITBIGSFRllll       1D      0       0      48        0.0%
BITBIGSFRhlhhhl     18      0       0      38        0.0%
BITBIGSFRhh          D      0       0      37        0.0%
BITBIGSFRlllhhh      6      0       0      45        0.0%
BITBIGSFRhlhhhl      5      0       0      39        0.0%
BITBIGSFRllhllh      4      0       0      42        0.0%
BITBIGSFRlllhlh      4      0       0      46        0.0%
BITBIGSFRllhllh      4      0       0      43        0.0%
BITBIGSFRlllhll      4      0       0      47        0.0%
BITBIGSFRhlhhhl      1      0       0      40        0.0%
BITBIGSFRllhllh      1      0       0      41        0.0%
BITBIGSFRllhlll      1      0       0      44        0.0%
BIGSFR               0      0       0     200        0.0%
BITSFR               0      0       0     200        0.0%
SFR                  0      0       0     200        0.0%
STACK                0      0       0       2        0.0%
NULL                 0      0       0       0        0.0%
ABS                  0      0      DE      12        0.0%
DATA                 0      0      DE       3        0.0%
CODE                 0      0       0       0        0.0%


Microchip Technology PIC18 Macro Assembler V2.46 build 20240104201356 
Symbol Table                                                                                   Thu Nov 28 11:30:57 2024

                           ??_InterruptManager 0001                                 ?_lcd_send_4bit 000B  
                   __end_of_motor_move_forward 25FE                                   ___fldiv@aexp 0029  
                                 ___fldiv@bexp 0028                                   ___fldiv@sign 0021  
                                  _SSPSTATbits 0FC7                                             l71 242E  
                                           l66 1F88                                             l76 24E8  
                           _timer3_preload_val 0075                                            l101 2160  
                                          l201 21CE                                            l220 236C  
                                          l206 256C                                            l311 25FC  
                                          l321 25CE                                            l306 267E  
                                          l332 2308                                            l316 262A  
                                          l342 224E                                            l335 21E4  
                                          l328 22B8                                            l346 22A2  
                                          l363 26C4                                            l339 2238  
                                          l906 1D8C                                            l927 248C  
                                          l991 1A56                                            l887 1C7C  
                                          l997 1AD0                                            _ret 0056  
                                          _str 004C            __end_of_lcd_4bit_send_enable_signal 256E  
                  _lcd_4bit_send_enable_signal 252E                                            tosl 0FFD  
                                          wreg 0FE8                                   ___fltol@exp1 0043  
                                         l1008 1B6A                                           l1090 26DE  
                                         l2220 1222                                           l1084 20EE  
                                         l2221 1210                                           l1093 252C  
                                         l2222 11D6                                           l1087 26F8  
                                         l2237 133C                                           l2229 14F2  
                                         l2246 140C                                           l2350 1A40  
                                         l2247 13FA                                           l2361 19D8  
                                         l2274 188C                                           l2354 197C  
                                         l2347 18E4                                           l2276 16EC  
                                         l2285 1732                                           l2287 17AA  
                                         l2279 16B0                                           l2288 1798  
                                         l6000 232C                                           l6002 2340  
                                         l6100 1B68                                           l1684 26EC  
                                         l6102 1B6A                                           l6006 2354  
                                         l6008 236A                                           l6120 2110  
                                         l6200 221C                                           l5402 1D60  
                                         l6122 2114                                           l6210 2252  
                                         l6202 222C                                           l5500 10B2  
                                         l6060 1A52                                           l5420 1BFE  
                                         l5412 1B6C                                           l5404 1D8A  
                                         l6124 2128                                           l6116 20F0  
                                         l6212 2284                                           l5510 10DA  
                                         l5502 10B4                                           l6070 1AB0  
                                         l6062 1A58                                           l5414 1B80  
                                         l5430 2162                                           l6126 2140  
                                         l6118 2100                                           l6214 2286  
                                         l6206 223A                                           l5600 12AA  
                                         l5520 1114                                           l5512 10EA  
                                         l5504 10BA                                           l6072 1AB6  
                                         l6080 1AEC                                           l6064 1A72  
                                         l5424 1C4E                                           l5416 1BA0  
                                         l5440 252E                                           l5432 2172  
                                         l6056 26A4                                           l6128 2142  
                                         l6216 2296                                           l6208 224A  
                                         l5610 131C                                           l5602 12B0  
                                         l5530 1140                                           l5522 1126  
                                         l5514 10FA                                           l5506 10C8  
                                         l6090 1B28                                           l6082 1AF0  
                                         l6074 1ACE                                           l6066 1A7E  
                                         l6058 1A42                                           l5418 1BA8  
                                         l5426 1C7A                                           l5450 256A  
                                         l5442 253E                                           l5434 217A  
                                         l6170 25E0                                           l5620 1376  
                                         l5604 12D6                                           l5612 132C  
                                         l5540 1154                                           l5532 1144  
                                         l5524 1134                                           l5516 10FC  
                                         l5508 10CA                                           l5700 1560  
                                         l6092 1B40                                           l6084 1B08  
                                         l6076 1AD6                                           l6068 1A98  
                                         l5460 246C                                           l5444 2546  
                                         l5436 21CC                                           l6180 2612  
                                         l6172 25E4                                           l1989 1E92  
                                         l5630 13A6                                           l5622 1380  
                                         l5614 1352                                           l5606 130A  
                                         l5550 1168                                           l5542 1158  
                                         l5534 1148                                           l5526 1138  
                                         l5518 1104                                           l5710 1596  
                                         l5702 1566                                           l6094 1B46  
                                         l6086 1B0E                                           l6078 1AE4  
                                         l5390 1C7E                                           l5462 248A  
                                         l5454 2430                                           l5446 2552  
                                         l5470 23E8                                           l5640 13CE  
                                         l5632 13AA                                           l5624 138E  
                                         l5616 1362                                           l5608 130C  
                                         l5560 11A2                                           l5552 116C  
                                         l5544 115C                                           l5536 114C  
                                         l5528 113C                                           l5480 1040  
                                         l5800 184C                                           l5720 15D6  
                                         l5712 15A6                                           l5704 1574  
                                         l6096 1B5E                                           l6088 1B26  
                                         l5392 1C92                                           l5456 2444  
                                         l5448 255C                                           l5472 2428  
                                         l6176 25FE                                           l6168 25D0  
                                         l6184 25A2                                           l6192 21D0  
                                         l5650 1428                                           l5642 13DC  
                                         l5634 13BA                                           l5626 1390  
                                         l5570 11F4                                           l5562 11BE  
                                         l5554 1170                                           l5546 1160  
                                         l5538 1150                                           l5490 1080  
                                         l5482 104E                                           l5810 1882  
                                         l5802 1868                                           l5722 15E6  
                                         l5730 1606                                           l5714 15A8  
                                         l5706 1576                                           l6098 1B60  
                                         l5394 1CB2                                           l5458 2464  
                                         l5474 242C                                           l5466 23D0  
                                         l6178 260E                                           l6186 25B2  
                                         l6194 21E0                                           l5660 1492  
                                         l5652 1436                                           l5644 13F2  
                                         l5628 139E                                           l5636 13BC  
                                         l5580 1240                                           l5572 1202  
                                         l5564 11CE                                           l5548 1164  
                                         l5556 1174                                           l5492 1082  
                                         l5484 1050                                           l5804 186C  
                                         l5740 1644                                           l5732 1616  
                                         l5724 15EE                                           l5708 1586  
                                         l5716 15B0                                           l5820 1DA4  
                                         l5900 1A20                                           l5396 1CBA  
                                         l5468 23E0                                           l6188 25B6  
                                         l6196 21E8                                           l5670 14CC  
                                         l5662 14B2                                           l5654 1470  
                                         l5590 1280                                           l5638 13CA  
                                         l5574 1204                                           l5566 11E4  
                                         l5558 1178                                           l5486 1060  
                                         l5494 108A                                           l5478 1034  
                                         l5806 187A                                           l5750 168C  
                                         l5742 1654                                           l5734 1616  
                                         l5726 15F2                                           l5718 15C0  
                                         l5830 1DF4                                           l5902 1A2E  
                                         l5398 1D10                                           l5910 1EA8  
                                         l6294 26E0                                           l6198 221A  
                                         l5672 14D2                                           l5664 14B6  
                                         l5648 141C                                           l5656 1472  
                                         l5592 128C                                           l5584 1254  
                                         l5576 120E                                           l5568 11F0  
                                         l5496 109A                                           l5488 1070  
                                         l5808 1880                                           l5760 16DA  
                                         l5752 16A0                                           l5744 1664  
                                         l5680 14F4                                           l5840 1E1E  
                                         l5832 1DF8                                           l5824 1DB8  
                                         l5904 1A30                                           l5920 1EC4  
                                         l5912 1EAC                                           l6296 26E4  
                                         l5674 14E0                                           l5666 14C4  
                                         l5658 1482                                           l5594 1290  
                                         l5586 1264                                           l5578 1230  
                                         l5498 10A0                                           l5770 1722  
                                         l5762 16EA                                           l5754 16AE  
                                         l5746 1674                                           l5738 162A  
                                         l5690 1530                                           l5682 1500  
                                         l5850 1E46                                           l5842 1E28  
                                         l5834 1E06                                           l5826 1DE2  
                                         l5818 1D8E                                           l5930 1F00  
                                         l5922 1ED0                                           l5914 1EC0  
                                         l5676 14E2                                           l5668 14CA  
                                         l5596 129E                                           l5588 1272  
                                         l5780 1762                                           l5772 1730  
                                         l5764 16FC                                           l5756 16BA  
                                         l5748 167C                                           l5692 1540  
                                         l5684 150E                                           l5852 1E52  
                                         l5844 1E32                                           l5828 1DE4  
                                         l5940 1F58                                           l5932 1F1E  
                                         l5924 1ED2                                           l5908 1E94  
                                         l7540 1F8A                                           l5598 12A0  
                                         l5790 17D4                                           l5782 1790  
                                         l5766 1712                                           l5774 1742  
                                         l5758 16D8                                           l5694 1542  
                                         l5686 1510                                           l5854 1E62  
                                         l5870 190A                                           l5862 1890  
                                         l5942 1F64                                           l5934 1F34  
                                         l5926 1EE2                                           l5950 265A  
                                         l7550 1FDE                                           l7542 1F8E  
                                         l5792 17FE                                           l5776 1750  
                                         l5768 1718                                           l5688 1520  
                                         l5696 154A                                           l5856 1E72  
                                         l5880 1964                                           l5864 18A0  
                                         l5944 1F70                                           l5936 1F40  
                                         l5928 1EF4                                           l5952 266A  
                                         l5960 22B4                                           l7552 1FF6  
                                         l7544 1F9E                                           l5786 17BA  
                                         l5794 1802                                           l5778 1754  
                                         l5698 155A                                           l5858 1E82  
                                         l5890 19C8                                           l5882 1966  
                                         l5874 191E                                           l5866 18AE  
                                         l5946 1F7C                                           l5938 1F4C  
                                         l5954 266E                                           l5962 22BC  
                                         l7554 200E                                           l7546 1FB6  
                                         l5796 181C                                           l5788 17C6  
                                         l5892 19E6                                           l5884 1972  
                                         l5876 1926                                           l5868 18F4  
                                         l5972 205A                                           l5980 24EA  
                                         l7564 1D74                                           l5964 22EE  
                                         l7556 2026                                           l7548 1FCE  
                                         l5798 1832                                           l5894 19E8  
                                         l5886 19AE                                           l5878 1932  
                                         l5974 2072                                           l5982 24F6  
                                         l5966 22F0                                           l5958 22A4  
                                         l5990 24E6                                           l7558 203A  
                                         l5896 19EC                                           l5888 19BA  
                                         l5976 26C6                                           l5968 2300  
                                         l5984 248E                                           l5898 1A10  
                                         l5978 26F4                                           l5986 249E  
                                         l5994 230A                                           l5988 24A6  
                                         l5996 231E                                           l5998 2326  
                                         _CFGS 7D36                                           STR_1 102F  
                                         STR_3 102B                                           STR_4 100D  
                                         STR_5 101C                                           STR_6 101C  
                                         _LATA 0F89                                           _LATB 0F8A  
                                         _LATC 0F8B                                           u4000 1BA0  
                                         _LATD 0F8C                                           u4001 1B9C  
                                         _LATE 0F8D                                           u4100 1060  
                                         u4101 105C                                           u4110 1070  
                                         u4030 1C64                                           u4014 1BC6  
                                         u4111 106C                                           u4031 1C5E  
                                         u4015 1BC2                                           u4200 11BC  
                                         u4120 10B2                                           u5000 1A72  
                                         u4024 1C1C                                           u4040 2172  
                                         u4121 10AE                                           u5001 1A6E  
                                         u4025 1C18                                           u4041 216E  
                                         u4210 11E4                                           u4130 10C8  
                                         u5010 1A98                                           u4050 253E  
                                         u4211 11E0                                           u4131 10C4  
                                         u5011 1A94                                           u4051 253A  
                                         u4300 131C                                           u4220 1202  
                                         u4140 10DA                                           u5020 1AB0  
                                         u4036 1C66                                           u4060 2444  
                                         u5100 2110                                           u4301 1318  
                                         u4221 11FE                                           u4141 10D6  
                                         u5021 1AAC                                           u4061 2440  
                                         u5101 210C                                           u4310 1352  
                                         u4230 1222                                           u4150 10EA  
                                         u5030 1ACE                                           u4070 2464  
                                         u5110 2160                                           u4311 134E  
                                         u4231 121E                                           u4151 10E6  
                                         u5031 1ACA                                           u4071 2460  
                                         u5111 215C                                           u4400 141C  
                                         u4320 1362                                           u4240 1230  
                                         u4160 1126                                           u5040 1B08  
                                         u4080 23E0                                           u4401 1418  
                                         u4321 135E                                           u4241 122C  
                                         u4161 1122                                           u5041 1B04  
                                         u4081 23DC                                           u4410 1436  
                                         u4330 138E                                           u4250 1240  
                                         u4170 1134                                           u4090 104E  
                                         u5050 1B26                                           u5210 224A  
                                         u4411 1432                                           u4331 138A  
                                         u4251 123C                                           u4171 1130  
                                         u4091 104A                                           u5051 1B22  
                                         u5211 2246                                           u4420 1470  
                                         u4340 139E                                           u4260 1272  
                                         u4180 11A2                                           u4500 1530  
                                         u5060 1B40                                           u4421 146C  
                                         u4341 139A                                           u4261 126E  
                                         u4181 119E                                           u4501 152C  
                                         u5061 1B3C                                           u5205 222A  
                                         u4430 1482                                           u4350 13BA  
                                         u4270 1280                                           u4190 11BA  
                                         u4510 1574                                           u5070 1B5E  
                                         u4431 147E                                           u4351 13B6  
                                         u4271 127C                                           u4191 11B4  
                                         u4511 1570                                           u5071 1B5A  
                                         u5207 222C                                           u4440 1492  
                                         u4360 13CA                                           u4280 129E  
                                         u4600 1712                                           u4520 1586  
                                         u5160 25E0                                           u4441 148E  
                                         u4361 13C6                                           u4281 129A  
                                         u4601 170E                                           u4521 1582  
                                         u5161 25DC                                           u5225 2294  
                                         u4450 14B2                                           u4370 13DC  
                                         u4290 12D6                                           u4610 1730  
                                         u4530 1596                                           u5090 2100  
                                         u5170 260E                                           u4451 14AE  
                                         u4371 13D8                                           u4291 12D2  
                                         u4611 172C                                           u4531 1592  
                                         u5091 20FC                                           u5171 260A  
                                         u5227 2296                                           u4460 14C4  
                                         u4380 13F2                                           u4700 187A  
                                         u4620 1750                                           u4540 15D6  
                                         u5180 25B2                                           u4461 14C0  
                                         u4381 13EE                                           u4701 1876  
                                         u4621 174C                                           u4541 15D2  
                                         u5181 25AE                                           u4470 14E0  
                                         u4390 1408                                           u4630 1762  
                                         u4550 1616                                           u4710 1DA4  
                                         u5190 21E0                                           u4471 14DC  
                                         u4391 1404                                           u4631 175E  
                                         u4551 1612                                           u4711 1DA0  
                                         u5191 21DC                                           u4640 1790  
                                         u4560 168C                                           u4480 150E  
                                         u4720 1DD8                                           u4800 190A  
                                         u4641 178C                                           u4561 1688  
                                         u4481 150A                                           u4801 1906  
                                         u4650 17A6                                           u4570 16AE  
                                         u4490 1520                                           u4730 1E06  
                                         u4810 1960                                           u4651 17A2  
                                         u4571 16AA                                           u4491 151C  
                                         u4731 1E02                                           u4811 195C  
                                         u4660 17BA                                           u4580 16D8  
                                         u4740 1E1A                                           u4820 19AA  
                                         u4900 266A                                           u4661 17B6  
                                         u4581 16D4                                           u4741 1E16  
                                         u4725 1DCE                                           u4821 19A6  
                                         u4901 2666                                           u4670 17D4  
                                         u4590 16FC                                           u4750 1E42  
                                         u4830 19C8                                           u3950 1C92  
                                         u4910 22B4                                           u4671 17D0  
                                         u4591 16F8                                           u4751 1E3E  
                                         u4831 19C4                                           u3951 1C8E  
                                         u4911 22B0                                           u4680 181C  
                                         u4760 1E62                                           u4840 19D8  
                                         u3960 1CB2                                           u4681 1818  
                                         u4761 1E5E                                           u4841 19D4  
                                         u3961 1CAE                                           u4690 184C  
                                         u4770 1E72                                           u4850 19E6  
                                         u4930 249E                                           u4691 1848  
                                         u4771 1E6E                                           u4851 19E2  
                                         u4931 249A                                           u4860 1A20  
                                         u4780 18A0                                           u4940 231E  
                                         u4861 1A1C                                           u4781 189C  
                                         u4925 22FE                                           u4941 231A  
                                         u4870 1A2E                                           u4790 18AE  
                                         u3990 1B80                                           u3974 1CD8  
                                         u4871 1A2A                                           u4791 18AA  
                                         u3991 1B7C                                           u3975 1CD4  
                                         u4927 2300                                           u3984 1D2E  
                                         u4880 1EA8                                           u6800 1FDE  
                                         u3985 1D2A                                           u4881 1EA4  
                                         u6801 1FDA                                           u4890 1EE2  
                                         u4891 1EDE                                           u4990 1A52  
                                         u4991 1A4E                                           u6817 2046  
                                         u6827 1EE8                                           u6837 1F06  
                                         u6790 1F9E                                           u6847 1F28  
                                         u6791 1F9A                                           u6857 2554  
                                         _TMR2 0FCC                  ??_lcd_4bit_send_enable_signal 000C  
                     _RB4_InterruptHandlerHigh 008F                                           _main 1F8A  
                     _RB7_InterruptHandlerHigh 0083                                           fsr2h 0FDA  
                                         indf2 0FDF                                           fsr1l 0FE1  
                                         fsr2l 0FD9                                           btemp 005C  
    gpio_pin_direction_initializion@pin_config 0003                                           prodl 0FF3  
                                         start 011E                                ___fldiv@new_exp 0022  
                   ?_MSSP_I2C_Interrupt_config 0003                     gpio_pin_initialization@ret 000D  
                         _lcd_4bit_set_cusrsor 230A                                   ___param_bank 0000  
                        _lcd_4bit_send_command 23D0                           _gpio_pin_write_logic 1C7E  
                                _EUSART_RX_ISR 2712                                  ___fltol@sign1 0042  
                                _EUSART_TX_ISR 270E                                __end_of___fladd 14F4  
                                        ?_main 0001                       ??_application_initialize 0048  
                              __end_of___fldiv 188E                                          _EEADR 0FA9  
                     motor_move_backward@motor 000B                                __end_of___fltol 1E94  
                                        _EEPGD 7D37                                          i2l830 2710  
                                        i2l829 270E                                          i2l839 2712  
                                        _RCREG 0FAE                            relay_turn_off@F3314 004F  
                                        _TMR0H 0FD7                                          _TMR1H 0FCF  
                                        _TMR0L 0FD6                                          _TMR1L 0FCE  
                                        _TMR3H 0FB3                                          _TMR3L 0FB2  
                                        _SPBRG 0FAF                                          _PORTA 0F80  
                                        _PORTB 0F81                                          _PORTC 0F82  
                                        _PORTD 0F83                                          _PORTE 0F84  
                                        _TRISA 0F92                                          _TRISB 0F93  
                                        _TRISC 0F94                                          _TRISD 0F95  
                                        _TRISE 0F96                                          _TXREG 0FAD  
                             __end_of_TMR0_ISR 270A                               __end_of_TMR1_ISR 2706  
                             __end_of_TMR2_ISR 2702                               __end_of_TMR3_ISR 26FE  
                                        _lcd_1 00DB                                          pclath 0FFA  
                                        pclatu 0FFB                                          tablat 0FF5  
                          relay_turn_off@relay 000B                                          ttemp5 005D  
                                        ttemp6 0060                                          ttemp7 0064  
                                        status 0FD8                                          wtemp8 005D  
                        _I2C_Slave_Mode_Config 26C6                                ??_lcd_send_4bit 000D  
             MSSP_I2C_Interrupt_config@i2c_obj 0003            __end_of_I2C_DefaultInterruptHandler 26A4  
                        ?_lcd_4bit_set_cusrsor 0011                    _I2C_DefaultInterruptHandler 2680  
                              __initialization 236E           __end_of_I2C_MASTER_MODE_CLOCK_CONFIG 20F0  
                 _I2C_MASTER_MODE_CLOCK_CONFIG 205A              __end_of_MSSP_I2C_Interrupt_config 252E  
                        __end_of_relay_turn_on 223A                                   __end_of_main 205A  
              ??_lcd_4bit_send_char_string_pos 0019                       ??_MSSP_I2C_MODE_GPIO_CFG 0003  
                        ?_gpio_pin_write_logic 0003                                 ?_EUSART_RX_ISR 0001  
                               ?_EUSART_TX_ISR 0001                  ??_I2C_DefaultInterruptHandler 0001  
                                       ??_main 00E1                                  __activetblptr 0003  
                             led_turn_on@F3315 0054                                         _ADRESH 0FC4  
                                       _EEADRH 0FAA                                         _ADRESL 0FC3  
                                       _EEDATA 0FA8                                         _CCPR1H 0FBF  
                                       _CCPR2H 0FBC                                         _CCPR1L 0FBE  
                                       _CCPR2L 0FBB                                         _EECON2 0FA7  
                      led_initialization@F3310 0055                                         i2l1081 270C  
                                       i2l1077 2658                                         i2l1511 2704  
                                       i2l1351 0032                                         i2l1361 00D2  
                                       i2l1353 0052                                         i2l1442 2708  
                                       i2l1363 00F2                                         i2l1355 0072  
                                       i2l1357 0092                                         i2l1366 0112  
                                       i2l1359 00B2                                         i2l1552 2700  
                                       i2l1625 26FC                                         i2l3314 262C  
                                       i2l3316 262E                                         i2l3094 2680  
                                       i2l3318 2640                                         i2l3096 268E  
                                       i2l3098 269C                                         i2l1689 26A2  
                                       i2l6220 270E                                         i2l6224 2712  
                                       i2l6236 270A                                         i2l6270 2706  
                                       i2l6282 26FE                                         i2l7250 0040  
                                       i2l6276 2702                                         i2l7260 008E  
                                       i2l7252 004E                                         i2l7244 0012  
                                       i2l7270 00E0                                         i2l7262 00A0  
                                       i2l7254 0060                                         i2l7246 0020  
                                       i2l6288 26FA                                         i2l7272 00EE  
                                       i2l7264 00AE                                         i2l7256 006E  
                                       i2l7248 002E                                         i2l7274 0100  
                                       i2l7266 00C0                                         i2l7258 0080  
                                       i2l7276 010E                                         i2l7268 00CE  
                                       _SPBRGH 0FB0                                         _SSPADD 0FC8  
                                       _SSPBUF 0FC9                               __end_of___xxtofl 1A42  
                            _Rec_TC74_Temp_Val 004D                                  _tris_register 00C1  
                        __end_of_MSSP_I2C_Init 1B6C                        _RB6_InterruptHandlerLow 0089  
                    motor_initialization@motor 000E                         ?_lcd_4bit_send_command 000E  
                                    ??___fladd 0032                                      ??___fldiv 0019  
                                    ??___fltol 003E                  ?_I2C_MASTER_MODE_CLOCK_CONFIG 0044  
                                       clear_0 23B4                                         clear_1 23C0  
                                       _relay1 005B                                 _relay_turn_off 223A  
                                       _motor1 0059                                         _motor2 0057  
                                       isa$std 0001                               lcd_send_4bit@lcd 000B  
                             lcd_send_4bit@ret 000D                                   __pdataCOMRAM 0056  
                                 __mediumconst 0000                                         tblptrh 0FF7  
                                       tblptrl 0FF6                                         tblptru 0FF8  
                         relay_turn_on@pin_obj 000D                        _Timer0_InterruptHandler 0081  
                                 ___xxtofl@arg 000D                                   ___xxtofl@exp 000C  
                                 ___xxtofl@val 0003                                     __accesstop 0060  
                _I2C_Default_Interrupt_Handler 0048                        __end_of__initialization 23C6  
                       ?_I2C_Slave_Mode_Config 0003                                  ___rparam_used 0001  
                       ??_lcd_4bit_set_cusrsor 0014                                     ___fltol@f1 003A  
                      _lcd_4bit_send_char_data 248E                         ??_gpio_pin_write_logic 0005  
                               __pcstackCOMRAM 0001                                   __pidataBANK0 256E  
                 __end_of_motor_initialization 2680                                      ?_TMR0_ISR 0001  
                              ??_EUSART_RX_ISR 0001                                      ?_TMR1_ISR 0001  
                                    ?_TMR2_ISR 0001                                      ?_TMR3_ISR 0001  
                       __end_of_relay_turn_off 22A4                                ??_EUSART_TX_ISR 0001  
                 convert_short_to_string@F3463 006B   _I2C_Report_Write_Collision_Interrupt_Handler 009B  
                     lcd_4bit_send_command@lcd 000E                       lcd_4bit_send_command@ret 0010  
        __end_of_lcd_4bit_send_char_string_pos 2162                  _lcd_4bit_send_char_string_pos 20F0  
      __end_of_gpio_pin_direction_initializion 1C7E              ??_gpio_pin_direction_initializion 0004  
             ?_gpio_pin_direction_initializion 0003                _gpio_pin_direction_initializion 1B6C  
                           _motor_move_forward 25D0                   I2C_Slave_Mode_Config@i2c_obj 0003  
                                   __pbssBANK0 0060                            ?_motor_move_forward 000B  
                        _INT0_InterruptHandler 0097                         _application_initialize 26E0  
                  _EUSART_TX_Interrupt_Handler 00A3                    ??_MSSP_I2C_Interrupt_config 0004  
                                   ??_TMR0_ISR 0001                                     ??_TMR1_ISR 0001  
                                   ??_TMR2_ISR 0001                                     ??_TMR3_ISR 0001  
                            led_turn_off@F3320 0053                                ?_relay_turn_off 000B  
                         ??_motor_move_forward 000C                                led_toggle@F3325 0052  
                                    ?___xxtofl 0003                                  ?_MSSP_I2C_ISR 0001  
                       _MSSP_I2C_MODE_GPIO_CFG 26F4                       _RB6_InterruptHandlerHigh 0087  
                    ??_lcd_4bit_send_char_data 0010                              ??_MSSP_I2C_BC_ISR 0001  
                                      __Hparam 0000                                        __Lparam 0000  
                  relay_initialization@pin_obj 0010                                        ___fladd 1034  
                                      ___fldiv 14F4                                        ___fltol 1D8E  
                                 __psmallconst 1000                        _Timer1_InterruptHandler 007D  
                                      __pcinit 236E                                      _ANSELbits 0F7E  
                                      __ramtop 1000                                        __ptext0 1F8A  
                                      __ptext1 21D0                                        __ptext2 223A  
                                      __ptext3 25A2                                        __ptext4 25D0  
                                      __ptext5 25FE                                        __ptext6 20F0  
                                      __ptext7 230A                                        __ptext8 248E  
                                      __ptext9 26E0                                      _T0CONbits 0FD5  
                                    _T1CONbits 0FCD                                 ??_MSSP_I2C_ISR 0001  
                                    _T2CONbits 0FCA                                     ??___xxtofl 0007  
                                    _T3CONbits 0FB1                      _MSSP_I2C_Interrupt_config 24EA  
               ?_lcd_4bit_send_char_string_pos 0015                           _motor_initialization 265A  
                         end_of_initialization 23C6                           __end_of_keypad_value 100D  
                      ??_lcd_4bit_send_command 0010              gpio_pin_initialization@pin_config 000B  
                        relay_turn_off@pin_obj 000D                                      _RCSTAbits 0FAB  
                        __end_of_lcd_send_4bit 21D0                                        postdec1 0FE5  
                                      postdec2 0FDD                                        postinc0 0FEE  
                                      postinc2 0FDE                                     _motor_stop 25A2  
                          _lcd_4bit_initialize 1E94                __end_of_lcd_4bit_send_char_data 24EA  
                        _INT1_InterruptHandler 0095                        _gpio_pin_initialization 2430  
             lcd_4bit_send_char_string_pos@col 0017               lcd_4bit_send_char_string_pos@lcd 0015  
             lcd_4bit_send_char_string_pos@row 0016               lcd_4bit_send_char_string_pos@str 0018  
                             _InterruptManager 0008                                    ___fladd@grs 0039  
                   lcd_4bit_send_char_data@lcd 000E                     lcd_4bit_send_char_data@ret 0010  
                                ___xxtofl@sign 000B                                    ___fldiv@grs 0024  
                                  ___fldiv@rem 001D                          ?_motor_initialization 000E  
                      ??_I2C_Slave_Mode_Config 0004                           ?_lcd_4bit_initialize 0011  
                                  _CCP1CONbits 0FBD                                    _CCP2CONbits 0FBA  
                                    _TXSTAbits 0FAC                       CCP_CaptureDataRead@F3373 00A7  
                      _RB4_InterruptHandlerLow 0091                        _RB7_InterruptHandlerLow 0085  
                           relay_turn_on@F3309 0050                                    _BAUDCONbits 0FB8  
                                __pidataCOMRAM 26EE                             relay_turn_on@relay 000B  
                          _motor_move_backward 25FE                            start_initialization 236E  
                 __end_of_relay_initialization 230A                   ?_lcd_4bit_send_enable_signal 000B  
                      motor_move_forward@motor 000B                                   _lat_register 00B7  
          I2C_MASTER_MODE_CLOCK_CONFIG@i2c_obj 0044                        ?_application_initialize 0001  
                        ??_lcd_4bit_initialize 0012                        _Timer2_InterruptHandler 0079  
                         ?_motor_move_backward 000B                               ??_relay_turn_off 000C  
                         __end_of_MSSP_I2C_ISR 265A                     convert_int_to_string@F3470 0060  
                  convert_byte_to_string@F3456 0071                                  _relay_turn_on 21D0  
                    ??_gpio_pin_initialization 000C                                    __pdataBANK0 00AD  
                                  ?_motor_stop 000B                          __end_of_EUSART_RX_ISR 2714  
                        __end_of_EUSART_TX_ISR 2712                   __end_of_ecu_layer_initialize 26C6  
                 lcd_4bit_send_command@command 000F                                      ___fladd@a 002E  
                                    ___fladd@b 002A                           MSSP_I2C_Init@i2c_obj 0046  
                                    ___fldiv@a 0015                                      ___fldiv@b 0011  
                      ?_MSSP_I2C_MODE_GPIO_CFG 0001                                    __pbssCOMRAM 0048  
                                __pcstackBANK0 00E1                         ??_motor_initialization 000F  
               __end_of_application_initialize 26EE                                _MSSP_I2C_BC_ISR 270A  
                      lcd_4bit_set_cusrsor@col 0013                        lcd_4bit_set_cusrsor@lcd 0011  
                      lcd_4bit_set_cusrsor@ret 0014                        lcd_4bit_set_cusrsor@row 0012  
                       _CCP1_Interrupt_Handler 00AB                          _INT2_InterruptHandler 0093  
               gpio_pin_write_logic@pin_config 0003                          ??_motor_move_backward 000C  
                                _MSSP_I2C_Init 1A42                   ?_I2C_DefaultInterruptHandler 0001  
                                    __pintcode 0008                                 ?_relay_turn_on 000B  
                                     ?___fladd 002A                                       ?___fldiv 0011  
                                     ?___fltol 003A                      gpio_pin_write_logic@logic 0004  
                                 _keypad_value 1001                 __end_of_MSSP_I2C_MODE_GPIO_CFG 26FA  
                                  __smallconst 1000                __end_of_gpio_pin_initialization 248E  
                              motor_stop@motor 000B                       _RB5_InterruptHandlerHigh 008B  
                                     _IOCBbits 0F7D                       __end_of_InterruptManager 011E  
                                     _PIE1bits 0F9D                                       _PIE2bits 0FA0  
                               ?_MSSP_I2C_Init 0046                                       i2u114_40 268E  
                                     i2u114_41 268A                                       i2u115_40 269C  
                                     i2u115_41 2698                  __end_of_lcd_4bit_send_command 2430  
                                     i2u145_40 2640                                       i2u145_41 263C  
                                     i2u146_48 2646                                       i2u146_49 2658  
                                     _PIR1bits 0F9E                                       _PIR2bits 0FA1  
                                     i2u630_40 0020                                       i2u630_41 001C  
                                     i2u631_40 002E                                       i2u631_41 002A  
                                     i2u640_40 00C0                                       i2u632_40 0040  
                                     i2u640_41 00BC                                       i2u632_41 003C  
                                     i2u641_40 00CE                                       i2u633_40 004E  
                                     i2u641_41 00CA                                       i2u633_41 004A  
                                     i2u642_40 00E0                                       i2u634_40 0060  
                                     i2u642_41 00DC                                       i2u634_41 005C  
                                     i2u643_40 00EE                                       i2u635_40 006E  
                                     i2u643_41 00EA                                       i2u635_41 006A  
                                     i2u644_40 0100                                       i2u636_40 0080  
                                     i2u644_41 00FC                                       i2u636_41 007C  
                                     i2u645_40 010E                                       i2u637_40 008E  
                                     i2u645_41 010A                                       i2u637_41 008A  
                                     i2u638_40 00A0                                       i2u638_41 009C  
                                     i2u639_40 00AE                                       i2u639_41 00AA  
                         _relay_initialization 22A4                                      _mssp_i2c2 00CB  
                                     _TMR0_ISR 2706                                       _TMR1_ISR 2702  
                                     _TMR2_ISR 26FE                                       _TMR3_ISR 26FA  
                      _Timer3_InterruptHandler 0077             gpio_pin_direction_initializion@ret 0009  
                                   _ADCON0bits 0FC2                                     _ADCON1bits 0FC1  
                                   _ADCON2bits 0FC0                        __end_of_MSSP_I2C_BC_ISR 270E  
               ??_I2C_MASTER_MODE_CLOCK_CONFIG 0045                        gpio_pin_write_logic@ret 000A  
                                  _INTCON2bits 0FF1                                    _INTCON3bits 0FF0  
                     ?_lcd_4bit_send_char_data 000E                                      copy_data0 2382  
                                    copy_data1 23A2                      relay_initialization@F3304 0051  
                __end_of_I2C_Slave_Mode_Config 26E0                           _ecu_layer_initialize 26A4  
                                   _EECON1bits 0FA6                                       __Hrparam 0000  
                              ??_relay_turn_on 000C                          ?_relay_initialization 000E  
                                     __Lrparam 0000  _I2C_Report_Recieve_Overflow_Interrupt_Handler 0099  
                    relay_initialization@relay 000E                          _ADC_Interrupt_Handler 004A  
                  _EUSART_FramingError_Handler 009F                             _timer0_preload_val 007F  
                                   _ANSELHbits 0F7F                                       ___xxtofl 188E  
                                 _MSSP_I2C_ISR 262C                                       __ptext10 26A4  
                                     __ptext11 22A4                                       __ptext20 1A42  
                                     __ptext12 265A                                       __ptext21 26F4  
                                     __ptext13 1E94                                       __ptext30 26FA  
                                     __ptext22 24EA                                       __ptext14 23D0  
                                     __ptext31 26FE                                       __ptext23 26C6  
                                     __ptext15 2162                                       __ptext32 2702  
                                     __ptext24 205A                                       __ptext16 252E  
                                     __ptext33 2706                                       __ptext25 188E  
                                     __ptext17 2430                                       __ptext34 262C  
                                     __ptext26 1D8E                                       __ptext18 1C7E  
                                     __ptext35 2680                                       __ptext27 14F4  
                                     __ptext19 1B6C                                       __ptext36 270A  
                                     __ptext28 1034                                       __ptext37 270E  
                                     __ptext38 2712                       CCP_CompareSetValue@F3382 00A5  
                        ?_ecu_layer_initialize 0001                                ??_MSSP_I2C_Init 0047  
                      _RB5_InterruptHandlerLow 008D                                       isa$xinst 0000  
                 lcd_4bit_initialize@l_counter 0015                                       int$flags 005C  
                                 ??_motor_stop 000C                             _timer1_preload_val 007B  
                             ?_MSSP_I2C_BC_ISR 0001                                     _INTCONbits 0FF2  
                 __end_of_lcd_4bit_set_cusrsor 236E                    __end_of_lcd_4bit_initialize 1F8A  
                 __end_of_gpio_pin_write_logic 1D8E                                       intlevel2 0000  
               lcd_4bit_send_enable_signal@lcd 000B                 lcd_4bit_send_enable_signal@ret 000C  
                           __end_of_motor_stop 25D0                         ??_relay_initialization 000F  
                                _lcd_send_4bit 2162                          lcd_send_4bit@_command 000C  
                           _timer2_preload_val 004E                    _EUSART_OverrunError_Handler 009D  
                                  _SSPCON1bits 0FC6                                    _SSPCON2bits 0FC5  
                                ___fladd@signs 0036                         _CCP2_Interrupt_Handler 00A9  
                  __end_of_motor_move_backward 262C                         ??_ecu_layer_initialize 0016  
                                _port_register 00AD                                   ___fladd@aexp 0037  
                                 ___fladd@bexp 0038                    lcd_4bit_send_char_data@data 000F  
                  _EUSART_RX_Interrupt_Handler 00A1                              ?_InterruptManager 0001  
                       lcd_4bit_initialize@lcd 0011                         lcd_4bit_initialize@ret 0014  
                     ?_gpio_pin_initialization 000B  
